Archive member included to satisfy reference by file (symbol)

arch/arm/lib/lib.a(ashldi3.o)
                              drivers/built-in.o (__aeabi_llsl)
arch/arm/lib/lib.a(ashrdi3.o)
                              drivers/mtd/nand/built-in.o (__aeabi_lasr)
arch/arm/lib/lib.a(lib1funcs.o)
                              arch/arm/mach-omap2/built-in.o (__aeabi_uidiv)
arch/arm/lib/lib.a(lshrdi3.o)
                              drivers/mtd/nand/built-in.o (__aeabi_llsr)
arch/arm/lib/lib.a(div0.o)    arch/arm/lib/lib.a(lib1funcs.o) (__div0)

Discarded input sections

 .data          0x0000000000000000        0x0 arch/arm/cpu/armv7/start.o
 .bss           0x0000000000000000        0x0 arch/arm/cpu/armv7/start.o
 .text          0x0000000000000000        0x0 board/ti/am335x/built-in.o
 .text.do_board_detect
                0x0000000000000000       0x2c board/ti/am335x/built-in.o
 .text.board_fit_config_name_match
                0x0000000000000000       0xe8 board/ti/am335x/built-in.o
 .rodata.board_fit_config_name_match.str1.1
                0x0000000000000000       0x6e board/ti/am335x/built-in.o
 .rodata.do_board_detect.str1.1
                0x0000000000000000       0x1b board/ti/am335x/built-in.o
 .data          0x0000000000000000        0x0 board/ti/am335x/built-in.o
 .bss           0x0000000000000000        0x0 board/ti/am335x/built-in.o
 .text.mmu_page_table_flush
                0x0000000000000000       0x1e arch/arm/cpu/armv7/built-in.o
 .text.v7_arch_cp15_set_l2aux_ctrl
                0x0000000000000000        0x6 arch/arm/cpu/armv7/built-in.o
 .text.v7_arch_cp15_set_acr
                0x0000000000000000        0x6 arch/arm/cpu/armv7/built-in.o
 .text.wait_on_value
                0x0000000000000000       0x1e arch/arm/cpu/armv7/built-in.o
 .data          0x0000000000000000        0x0 arch/arm/cpu/armv7/built-in.o
 .bss           0x0000000000000000        0x0 arch/arm/cpu/armv7/built-in.o
 .text.armv7_boot_nonsec_default
                0x0000000000000000        0x4 arch/arm/lib/built-in.o
 .text.enable_caches
                0x0000000000000000        0xc arch/arm/lib/built-in.o
 .text.invalidate_dcache_range
                0x0000000000000000        0x2 arch/arm/lib/built-in.o
 .text.flush_dcache_range
                0x0000000000000000        0x2 arch/arm/lib/built-in.o
 .text.flush_dcache_all
                0x0000000000000000        0xa arch/arm/lib/built-in.o
 .text.invalidate_l2_cache
                0x0000000000000000        0xc arch/arm/lib/built-in.o
 .text.arm_init_before_mmu
                0x0000000000000000        0x2 arch/arm/lib/built-in.o
 .text.arm_init_domains
                0x0000000000000000        0x2 arch/arm/lib/built-in.o
 .text.mmu_page_table_flush
                0x0000000000000000        0x2 arch/arm/lib/built-in.o
 .text.mmu_set_region_dcache_behaviour
                0x0000000000000000       0x40 arch/arm/lib/built-in.o
 .text.dram_bank_mmu_setup
                0x0000000000000000       0x2a arch/arm/lib/built-in.o
 .text.icache_status
                0x0000000000000000        0xa arch/arm/lib/built-in.o
 .text.fdt_psci
                0x0000000000000000        0x4 arch/arm/lib/built-in.o
 .rodata.enable_caches.str1.1
                0x0000000000000000       0x1d arch/arm/lib/built-in.o
 .data          0x0000000000000000        0x0 arch/arm/lib/built-in.o
 .__secure_end  0x0000000000000000        0x0 arch/arm/lib/built-in.o
 .__secure_stack_end
                0x0000000000000000        0x0 arch/arm/lib/built-in.o
 .__secure_stack_start
                0x0000000000000000        0x0 arch/arm/lib/built-in.o
 .__secure_start
                0x0000000000000000        0x0 arch/arm/lib/built-in.o
 .bss           0x0000000000000000        0x0 arch/arm/lib/built-in.o
 .text.get_dpll_mpu_params
                0x0000000000000000        0x8 arch/arm/mach-omap2/built-in.o
 .text.get_dpll_core_params
                0x0000000000000000       0x14 arch/arm/mach-omap2/built-in.o
 .text.get_dpll_per_params
                0x0000000000000000       0x14 arch/arm/mach-omap2/built-in.o
 .text.setup_clocks_for_console
                0x0000000000000000       0x78 arch/arm/mach-omap2/built-in.o
 .text.enable_basic_clocks
                0x0000000000000000       0x44 arch/arm/mach-omap2/built-in.o
 .text.set_mpu_spreadspectrum
                0x0000000000000000       0xc4 arch/arm/mach-omap2/built-in.o
 .text.do_setup_dpll
                0x0000000000000000       0xe0 arch/arm/mach-omap2/built-in.o
 .text.do_enable_clocks
                0x0000000000000000       0x64 arch/arm/mach-omap2/built-in.o
 .text.do_disable_clocks
                0x0000000000000000       0x70 arch/arm/mach-omap2/built-in.o
 .text.scale_vcores
                0x0000000000000000        0x2 arch/arm/mach-omap2/built-in.o
 .text.setup_early_clocks
                0x0000000000000000       0x12 arch/arm/mach-omap2/built-in.o
 .text.prcm_init
                0x0000000000000000       0x5c arch/arm/mach-omap2/built-in.o
 .text.get_sysboot_value
                0x0000000000000000       0x14 arch/arm/mach-omap2/built-in.o
 .text.get_sys_clk_index
                0x0000000000000000       0x14 arch/arm/mach-omap2/built-in.o
 .text.am335x_get_efuse_mpu_max_freq
                0x0000000000000000       0x7c arch/arm/mach-omap2/built-in.o
 .text.am335x_get_tps65910_mpu_vdd
                0x0000000000000000       0x34 arch/arm/mach-omap2/built-in.o
 .text.am335x_get_mpu_vdd
                0x0000000000000000       0x20 arch/arm/mach-omap2/built-in.o
 .text.configure_mr
                0x0000000000000000       0x88 arch/arm/mach-omap2/built-in.o
 .text.config_sdram_emif4d5
                0x0000000000000000      0x160 arch/arm/mach-omap2/built-in.o
 .text.config_sdram
                0x0000000000000000       0x80 arch/arm/mach-omap2/built-in.o
 .text.set_sdram_timings
                0x0000000000000000       0x3c arch/arm/mach-omap2/built-in.o
 .text.config_ddr_phy
                0x0000000000000000      0x1ac arch/arm/mach-omap2/built-in.o
 .text.config_cmd_ctrl
                0x0000000000000000       0x44 arch/arm/mach-omap2/built-in.o
 .text.config_ddr_data
                0x0000000000000000       0x4c arch/arm/mach-omap2/built-in.o
 .text.config_io_ctrl
                0x0000000000000000       0x34 arch/arm/mach-omap2/built-in.o
 .text.cpu_mmc_init
                0x0000000000000000       0x28 arch/arm/mach-omap2/built-in.o
 .text.configure_module_pin_mux
                0x0000000000000000       0x20 arch/arm/mach-omap2/built-in.o
 .text.set_uart_mux_conf
                0x0000000000000000        0x2 arch/arm/mach-omap2/built-in.o
 .text.set_mux_conf_regs
                0x0000000000000000        0x2 arch/arm/mach-omap2/built-in.o
 .text.ft_cpu_setup
                0x0000000000000000        0x2 arch/arm/mach-omap2/built-in.o
 .text.warm_reset
                0x0000000000000000       0x1c arch/arm/mach-omap2/built-in.o
 .text.setup_warmreset_time
                0x0000000000000000        0x2 arch/arm/mach-omap2/built-in.o
 .text.do_cancel_out
                0x0000000000000000       0x44 arch/arm/mach-omap2/built-in.o
 .text.cancel_out
                0x0000000000000000       0x62 arch/arm/mach-omap2/built-in.o
 .text.omap_die_id
                0x0000000000000000        0xc arch/arm/mach-omap2/built-in.o
 .text.omap_die_id_serial
                0x0000000000000000       0x4c arch/arm/mach-omap2/built-in.o
 .text.omap_die_id_get_board_serial
                0x0000000000000000       0x24 arch/arm/mach-omap2/built-in.o
 .text.omap_die_id_usbethaddr
                0x0000000000000000       0x58 arch/arm/mach-omap2/built-in.o
 .text.omap_die_id_display
                0x0000000000000000       0x2c arch/arm/mach-omap2/built-in.o
 .text.omap_sys_boot_device
                0x0000000000000000        0x4 arch/arm/mach-omap2/built-in.o
 .text.save_omap_boot_params
                0x0000000000000000       0x78 arch/arm/mach-omap2/built-in.o
 .rodata.cmdpll
                0x0000000000000000        0x4 arch/arm/mach-omap2/built-in.o
 .rodata.cmper  0x0000000000000000        0x4 arch/arm/mach-omap2/built-in.o
 .rodata.cmrtc  0x0000000000000000        0x4 arch/arm/mach-omap2/built-in.o
 .rodata.cmwkup
                0x0000000000000000        0x4 arch/arm/mach-omap2/built-in.o
 .rodata.dpll_core_1000MHz
                0x0000000000000000       0x40 arch/arm/mach-omap2/built-in.o
 .rodata.dpll_core_opp100
                0x0000000000000000       0x10 arch/arm/mach-omap2/built-in.o
 .rodata.dpll_core_regs
                0x0000000000000000       0x24 arch/arm/mach-omap2/built-in.o
 .rodata.dpll_ddr2_266MHz
                0x0000000000000000       0x40 arch/arm/mach-omap2/built-in.o
 .rodata.dpll_ddr3_303MHz
                0x0000000000000000       0x40 arch/arm/mach-omap2/built-in.o
 .rodata.dpll_ddr3_400MHz
                0x0000000000000000       0x40 arch/arm/mach-omap2/built-in.o
 .rodata.dpll_ddr_regs
                0x0000000000000000       0x24 arch/arm/mach-omap2/built-in.o
 .rodata.dpll_mpu_opp
                0x0000000000000000      0x180 arch/arm/mach-omap2/built-in.o
 .rodata.dpll_mpu_regs
                0x0000000000000000       0x24 arch/arm/mach-omap2/built-in.o
 .rodata.dpll_per_192MHz
                0x0000000000000000       0x40 arch/arm/mach-omap2/built-in.o
 .rodata.dpll_per_regs
                0x0000000000000000       0x24 arch/arm/mach-omap2/built-in.o
 .rodata.set_mpu_spreadspectrum.str1.1
                0x0000000000000000       0x31 arch/arm/mach-omap2/built-in.o
 .rodata.do_disable_clocks.str1.1
                0x0000000000000000       0x2b arch/arm/mach-omap2/built-in.o
 .rodata.do_enable_clocks.str1.1
                0x0000000000000000       0x2a arch/arm/mach-omap2/built-in.o
 .rodata.do_setup_dpll.str1.1
                0x0000000000000000       0x3a arch/arm/mach-omap2/built-in.o
 .rodata.CSWTCH.12
                0x0000000000000000       0x4c arch/arm/mach-omap2/built-in.o
 .rodata.config_sdram_emif4d5.str1.1
                0x0000000000000000       0x2a arch/arm/mach-omap2/built-in.o
 .rodata.ddr_cmd_reg
                0x0000000000000000        0x8 arch/arm/mach-omap2/built-in.o
 .rodata.ddr_data_reg
                0x0000000000000000        0x8 arch/arm/mach-omap2/built-in.o
 .rodata.emif_reg
                0x0000000000000000        0x8 arch/arm/mach-omap2/built-in.o
 .rodata.omap_die_id_display.str1.1
                0x0000000000000000       0x1f arch/arm/mach-omap2/built-in.o
 .rodata.omap_die_id_serial.str1.1
                0x0000000000000000       0x11 arch/arm/mach-omap2/built-in.o
 .rodata.omap_die_id_usbethaddr.str1.1
                0x0000000000000000        0xb arch/arm/mach-omap2/built-in.o
 .data          0x0000000000000000        0x0 arch/arm/mach-omap2/built-in.o
 .data.dpll_mpu_opp100
                0x0000000000000000       0x10 arch/arm/mach-omap2/built-in.o
 .data.cstat    0x0000000000000000        0x4 arch/arm/mach-omap2/built-in.o
 .bss           0x0000000000000000        0x0 arch/arm/mach-omap2/built-in.o
 .text          0x0000000000000000        0x0 board/ti/common/built-in.o
 .text.ti_eeprom_string_cleanup
                0x0000000000000000       0x24 board/ti/common/built-in.o
 .text.ti_i2c_set_alen
                0x0000000000000000       0x2c board/ti/common/built-in.o
 .text.gpi2c_init
                0x0000000000000000        0x2 board/ti/common/built-in.o
 .text.ti_i2c_eeprom_get
                0x0000000000000000       0xae board/ti/common/built-in.o
 .text.ti_i2c_eeprom_am_set
                0x0000000000000000       0x60 board/ti/common/built-in.o
 .text.ti_i2c_eeprom_am_get
                0x0000000000000000       0xcc board/ti/common/built-in.o
 .text.ti_i2c_eeprom_dra7_get
                0x0000000000000000       0xac board/ti/common/built-in.o
 .text.board_ti_rev_is
                0x0000000000000000       0x34 board/ti/common/built-in.o
 .text.board_ti_get_config
                0x0000000000000000        0x8 board/ti/common/built-in.o
 .text.board_ti_get_name
                0x0000000000000000        0x8 board/ti/common/built-in.o
 .text.board_ti_get_eth_mac_addr
                0x0000000000000000       0x34 board/ti/common/built-in.o
 .text.board_ti_get_emif1_size
                0x0000000000000000       0x20 board/ti/common/built-in.o
 .text.board_ti_get_emif2_size
                0x0000000000000000       0x20 board/ti/common/built-in.o
 .text.board_ti_set_ethaddr
                0x0000000000000000      0x154 board/ti/common/built-in.o
 .text.board_ti_was_eeprom_read
                0x0000000000000000       0x18 board/ti/common/built-in.o
 .rodata.__func__.9881
                0x0000000000000000       0x15 board/ti/common/built-in.o
 .rodata.board_ti_set_ethaddr.str1.1
                0x0000000000000000       0x34 board/ti/common/built-in.o
 .rodata.ti_i2c_eeprom_am_get.str1.1
                0x0000000000000000        0x5 board/ti/common/built-in.o
 .rodata.ti_i2c_eeprom_am_set.str1.1
                0x0000000000000000        0x5 board/ti/common/built-in.o
 .rodata.ti_i2c_eeprom_dra7_get.str1.1
                0x0000000000000000        0x6 board/ti/common/built-in.o
 .data          0x0000000000000000        0x0 board/ti/common/built-in.o
 .bss           0x0000000000000000        0x0 board/ti/common/built-in.o
 .text          0x0000000000000000        0x0 cmd/built-in.o
 .text.bootz_setup
                0x0000000000000000       0x14 cmd/built-in.o
 .text.eeprom_init
                0x0000000000000000        0x2 cmd/built-in.o
 .text.name_to_gpio
                0x0000000000000000        0x8 cmd/built-in.o
 .text.i2c_init_board
                0x0000000000000000        0x2 cmd/built-in.o
 .rodata.bootz_setup.str1.1
                0x0000000000000000       0x34 cmd/built-in.o
 .rodata.evalexp.str1.1
                0x0000000000000000       0x1f cmd/built-in.o
 .data          0x0000000000000000        0x0 cmd/built-in.o
 .bss           0x0000000000000000        0x0 cmd/built-in.o
 .text          0x0000000000000000        0x0 common/built-in.o
 .text.hash_progressive_lookup_algo
                0x0000000000000000       0x40 common/built-in.o
 .text.hash_parse_string
                0x0000000000000000       0x3c common/built-in.o
 .text.hash_block
                0x0000000000000000       0x3e common/built-in.o
 .text.unset_local_var
                0x0000000000000000       0x60 common/built-in.o
 .text.arch_cpu_init_dm
                0x0000000000000000        0x4 common/built-in.o
 .text.dram_init_banksize
                0x0000000000000000       0x1a common/built-in.o
 .text.red_led_off
                0x0000000000000000        0x2 common/built-in.o
 .text.green_led_on
                0x0000000000000000        0x2 common/built-in.o
 .text.green_led_off
                0x0000000000000000        0x2 common/built-in.o
 .text.yellow_led_on
                0x0000000000000000        0x2 common/built-in.o
 .text.yellow_led_off
                0x0000000000000000        0x2 common/built-in.o
 .text.blue_led_on
                0x0000000000000000        0x2 common/built-in.o
 .text.blue_led_off
                0x0000000000000000        0x2 common/built-in.o
 .text.arch_reserve_stacks
                0x0000000000000000        0x4 common/built-in.o
 .text.board_flash_wp_on
                0x0000000000000000        0x4 common/built-in.o
 .text.fixup_cpu
                0x0000000000000000        0x4 common/built-in.o
 .text.fdt_read_prop
                0x0000000000000000       0x3c common/built-in.o
 .text.fdt_getprop_u32_default_node
                0x0000000000000000       0x24 common/built-in.o
 .text.fdt_getprop_u32_default
                0x0000000000000000       0x24 common/built-in.o
 .text.do_fixup_by_path_u32
                0x0000000000000000       0x1a common/built-in.o
 .text.do_fixup_by_prop
                0x0000000000000000       0x5e common/built-in.o
 .text.do_fixup_by_prop_u32
                0x0000000000000000       0x24 common/built-in.o
 .text.do_fixup_by_compat
                0x0000000000000000       0x50 common/built-in.o
 .text.do_fixup_by_compat_u32
                0x0000000000000000       0x1a common/built-in.o
 .text.fdt_increase_size
                0x0000000000000000        0xc common/built-in.o
 .text.fdt_del_node_and_alias
                0x0000000000000000       0x30 common/built-in.o
 .text.fdt_node_offset_by_compat_reg
                0x0000000000000000       0x5c common/built-in.o
 .text.fdt_alloc_phandle
                0x0000000000000000       0x36 common/built-in.o
 .text.fdt_set_phandle
                0x0000000000000000       0x40 common/built-in.o
 .text.fdt_create_phandle
                0x0000000000000000       0x40 common/built-in.o
 .text.fdt_set_node_status
                0x0000000000000000       0x90 common/built-in.o
 .text.fdt_set_status_by_alias
                0x0000000000000000       0x1c common/built-in.o
 .text.fdt_verify_alias_address
                0x0000000000000000       0x88 common/built-in.o
 .text.fdt_get_base_address
                0x0000000000000000       0x28 common/built-in.o
 .text.fdt_read_range
                0x0000000000000000       0xd0 common/built-in.o
 .text.fdt_setup_simplefb_node
                0x0000000000000000      0x160 common/built-in.o
 .text.fdt_fixup_display
                0x0000000000000000       0x84 common/built-in.o
 .text.mdio_free
                0x0000000000000000        0x4 common/built-in.o
 .text.mdio_register_seq
                0x0000000000000000       0x24 common/built-in.o
 .text.mdio_unregister
                0x0000000000000000       0x24 common/built-in.o
 .text.usb_submit_int_msg
                0x0000000000000000        0x4 common/built-in.o
 .text.usb_set_protocol
                0x0000000000000000       0x2e common/built-in.o
 .text.usb_set_idle
                0x0000000000000000       0x32 common/built-in.o
 .text.usb_get_report
                0x0000000000000000       0x3a common/built-in.o
 .text.usb_get_class_descriptor
                0x0000000000000000       0x3a common/built-in.o
 .text.usb_hub_probe
                0x0000000000000000       0x3a common/built-in.o
 .text.splash_screen_prepare
                0x0000000000000000        0x4 common/built-in.o
 .text.menu_default_choice
                0x0000000000000000       0x12 common/built-in.o
 .text.cli_simple_parse_line
                0x0000000000000000       0x54 common/built-in.o
 .text.cli_simple_run_command
                0x0000000000000000       0xd0 common/built-in.o
 .text.cli_simple_loop
                0x0000000000000000       0x58 common/built-in.o
 .text.cli_simple_run_command_list
                0x0000000000000000       0x38 common/built-in.o
 .text.serial_printf
                0x0000000000000000       0x32 common/built-in.o
 .text.fputc    0x0000000000000000       0x14 common/built-in.o
 .text.fprintf  0x0000000000000000       0x36 common/built-in.o
 .text.console_announce_r
                0x0000000000000000       0x50 common/built-in.o
 .text.stdio_print_current_devices
                0x0000000000000000       0x78 common/built-in.o
 .text.valloc   0x0000000000000000        0xa common/built-in.o
 .text.pvalloc  0x0000000000000000       0x14 common/built-in.o
 .text.cfree    0x0000000000000000        0x4 common/built-in.o
 .text.malloc_usable_size
                0x0000000000000000       0x30 common/built-in.o
 .text.mallopt  0x0000000000000000       0x30 common/built-in.o
 .text.memalign_simple
                0x0000000000000000       0x32 common/built-in.o
 .text.genimg_get_short_name
                0x0000000000000000       0x14 common/built-in.o
 .text.genimg_get_cat_name
                0x0000000000000000       0x38 common/built-in.o
 .text.genimg_get_cat_short_name
                0x0000000000000000       0x38 common/built-in.o
 .text.genimg_get_cat_count
                0x0000000000000000       0x10 common/built-in.o
 .text.genimg_get_cat_desc
                0x0000000000000000       0x10 common/built-in.o
 .text.genimg_get_type_short_name
                0x0000000000000000        0xc common/built-in.o
 .text.genimg_get_comp_short_name
                0x0000000000000000        0xc common/built-in.o
 .text.genimg_get_os_short_name
                0x0000000000000000        0xc common/built-in.o
 .text.genimg_get_arch_short_name
                0x0000000000000000        0xc common/built-in.o
 .text.fit_get_subimage_count
                0x0000000000000000       0x30 common/built-in.o
 .text.fit_image_get_data_offset
                0x0000000000000000       0x24 common/built-in.o
 .text.fit_image_get_data_size
                0x0000000000000000       0x24 common/built-in.o
 .text.fit_set_timestamp
                0x0000000000000000       0x2c common/built-in.o
 .text.fit_conf_find_compat
                0x0000000000000000       0xec common/built-in.o
 .text.fit_conf_get_prop_node_count
                0x0000000000000000        0x4 common/built-in.o
 .text.stdio_init
                0x0000000000000000        0xe common/built-in.o
 .text.run_command_repeatable
                0x0000000000000000       0x12 common/built-in.o
 .rodata.fdt_create_phandle.str1.1
                0x0000000000000000       0x1a common/built-in.o
 .rodata.fdt_fixup_display.str1.1
                0x0000000000000000       0x1c common/built-in.o
 .rodata.fdt_read_range.str1.1
                0x0000000000000000        0xf common/built-in.o
 .rodata.fdt_set_node_status.str1.1
                0x0000000000000000       0x3a common/built-in.o
 .rodata.fdt_set_phandle.str1.1
                0x0000000000000000       0x16 common/built-in.o
 .rodata.fdt_setup_simplefb_node.str1.1
                0x0000000000000000       0x2c common/built-in.o
 .rodata.fdt_verify_alias_address.str1.1
                0x0000000000000000       0xcd common/built-in.o
 .rodata.mdio_register_seq.str1.1
                0x0000000000000000        0x6 common/built-in.o
 .rodata.cli_simple_loop.str1.1
                0x0000000000000000       0x11 common/built-in.o
 .rodata.cli_simple_parse_line.str1.1
                0x0000000000000000       0x1f common/built-in.o
 .rodata.cli_simple_run_command.str1.1
                0x0000000000000000       0x16 common/built-in.o
 .rodata.console_announce_r.str1.1
                0x0000000000000000        0x7 common/built-in.o
 .rodata.stdio_print_current_devices.str1.1
                0x0000000000000000       0x74 common/built-in.o
 .rodata.genimg_get_short_name.str1.1
                0x0000000000000000        0x8 common/built-in.o
 .rodata.table_info
                0x0000000000000000       0x30 common/built-in.o
 .rodata.unknown_str.8682
                0x0000000000000000        0x9 common/built-in.o
 .rodata.fit_image_get_data_offset.str1.1
                0x0000000000000000        0xc common/built-in.o
 .rodata.fit_image_get_data_size.str1.1
                0x0000000000000000        0xa common/built-in.o
 .data          0x0000000000000000        0x0 common/built-in.o
 .bss           0x0000000000000000        0x0 common/built-in.o
 .bss.lastcommand.8108
                0x0000000000000000      0x401 common/built-in.o
 .bss.msg.8683  0x0000000000000000       0x1e common/built-in.o
 .bss.save_addr
                0x0000000000000000        0x4 common/built-in.o
 .bss.save_size
                0x0000000000000000        0x4 common/built-in.o
 .text          0x0000000000000000        0x0 disk/built-in.o
 .text.part_get_info_by_name_type
                0x0000000000000000       0x6c disk/built-in.o
 .text.part_get_info_by_name
                0x0000000000000000        0x8 disk/built-in.o
 .text.is_valid_dos_buf
                0x0000000000000000       0x10 disk/built-in.o
 .text.write_mbr_partition
                0x0000000000000000       0x44 disk/built-in.o
 .text.is_valid_gpt_buf
                0x0000000000000000       0x4e disk/built-in.o
 .text.write_mbr_and_gpt_partitions
                0x0000000000000000      0x300 disk/built-in.o
 .rodata.__func__.8128
                0x0000000000000000       0x14 disk/built-in.o
 .rodata.write_mbr_partition.str1.1
                0x0000000000000000       0x2d disk/built-in.o
 .rodata.__func__.8964
                0x0000000000000000       0x1d disk/built-in.o
 .rodata.write_mbr_and_gpt_partitions.str1.1
                0x0000000000000000       0x7c disk/built-in.o
 .data          0x0000000000000000        0x0 disk/built-in.o
 .bss           0x0000000000000000        0x0 disk/built-in.o
 .text          0x0000000000000000        0x0 drivers/built-in.o
 .text._device_find_global_by_of_offset
                0x0000000000000000       0x2e drivers/built-in.o
 .text.device_get_child
                0x0000000000000000       0x32 drivers/built-in.o
 .text.device_find_child_by_seq
                0x0000000000000000       0x3a drivers/built-in.o
 .text.device_get_child_by_seq
                0x0000000000000000       0x32 drivers/built-in.o
 .text.device_find_child_by_of_offset
                0x0000000000000000       0x2e drivers/built-in.o
 .text.device_get_child_by_of_offset
                0x0000000000000000       0x20 drivers/built-in.o
 .text.device_get_global_by_of_offset
                0x0000000000000000       0x28 drivers/built-in.o
 .text.dev_get_driver_ops
                0x0000000000000000        0x8 drivers/built-in.o
 .text.dev_get_uclass_name
                0x0000000000000000        0xa drivers/built-in.o
 .text.device_has_children
                0x0000000000000000        0xe drivers/built-in.o
 .text.device_set_name_alloced
                0x0000000000000000        0xa drivers/built-in.o
 .text.device_set_name
                0x0000000000000000       0x20 drivers/built-in.o
 .text.devfdt_get_addr_size_index
                0x0000000000000000       0x2c drivers/built-in.o
 .text.devfdt_get_addr_name
                0x0000000000000000       0x28 drivers/built-in.o
 .text.devfdt_get_addr_ptr
                0x0000000000000000        0x6 drivers/built-in.o
 .text.devfdt_map_physmem
                0x0000000000000000       0x10 drivers/built-in.o
 .text.dm_fixup_for_gd_move
                0x0000000000000000       0x14 drivers/built-in.o
 .text.dm_set_translation_offset
                0x0000000000000000       0x10 drivers/built-in.o
 .text.dm_uninit
                0x0000000000000000       0x18 drivers/built-in.o
 .text.uclass_destroy
                0x0000000000000000       0x52 drivers/built-in.o
 .text.uclass_get_name
                0x0000000000000000       0x1a drivers/built-in.o
 .text.uclass_find_device_by_name
                0x0000000000000000       0x50 drivers/built-in.o
 .text.uclass_get_device_by_driver
                0x0000000000000000       0x40 drivers/built-in.o
 .text.uclass_get_device_by_name
                0x0000000000000000       0x1c drivers/built-in.o
 .text.uclass_get_device_by_phandle
                0x0000000000000000       0x66 drivers/built-in.o
 .text.uclass_first_device_check
                0x0000000000000000       0x1e drivers/built-in.o
 .text.uclass_next_device_check
                0x0000000000000000       0x1a drivers/built-in.o
 .text.list_count_items
                0x0000000000000000       0x14 drivers/built-in.o
 .text.simple_bus_translate
                0x0000000000000000       0x20 drivers/built-in.o
 .text.of_read_fmap_entry
                0x0000000000000000       0x80 drivers/built-in.o
 .text.ofnode_read_s32_default
                0x0000000000000000       0x16 drivers/built-in.o
 .text.ofnode_find_subnode
                0x0000000000000000       0x12 drivers/built-in.o
 .text.ofnode_first_subnode
                0x0000000000000000       0x10 drivers/built-in.o
 .text.ofnode_next_subnode
                0x0000000000000000       0x10 drivers/built-in.o
 .text.ofnode_read_size
                0x0000000000000000       0x20 drivers/built-in.o
 .text.decode_timing_property
                0x0000000000000000       0x40 drivers/built-in.o
 .text.ofnode_get_addr_index
                0x0000000000000000       0x10 drivers/built-in.o
 .text.ofnode_get_addr
                0x0000000000000000        0x6 drivers/built-in.o
 .text.ofnode_stringlist_search
                0x0000000000000000       0x26 drivers/built-in.o
 .text.ofnode_read_string_index
                0x0000000000000000       0x2c drivers/built-in.o
 .text.ofnode_read_string_count
                0x0000000000000000        0xe drivers/built-in.o
 .text.ofnode_count_phandle_with_args
                0x0000000000000000       0x24 drivers/built-in.o
 .text.ofnode_read_bool
                0x0000000000000000       0x10 drivers/built-in.o
 .text.ofnode_decode_display_timing
                0x0000000000000000      0x1dc drivers/built-in.o
 .text.ofnode_is_available
                0x0000000000000000       0x16 drivers/built-in.o
 .text.ofnode_get_addr_size
                0x0000000000000000       0x14 drivers/built-in.o
 .text.ofnode_read_u8_array_ptr
                0x0000000000000000       0x14 drivers/built-in.o
 .text.ofnode_read_pci_addr
                0x0000000000000000       0x68 drivers/built-in.o
 .text.ofnode_read_simple_addr_cells
                0x0000000000000000        0xc drivers/built-in.o
 .text.ofnode_read_addr_cells
                0x0000000000000000        0x4 drivers/built-in.o
 .text.ofnode_read_simple_size_cells
                0x0000000000000000        0xc drivers/built-in.o
 .text.ofnode_read_size_cells
                0x0000000000000000        0x4 drivers/built-in.o
 .text.ofnode_pre_reloc
                0x0000000000000000       0x34 drivers/built-in.o
 .text.ofnode_read_resource
                0x0000000000000000       0x40 drivers/built-in.o
 .text.ofnode_read_resource_byname
                0x0000000000000000       0x24 drivers/built-in.o
 .text.timer_conv_64
                0x0000000000000000       0x2c drivers/built-in.o
 .text.rsa_mod_exp
                0x0000000000000000       0x18 drivers/built-in.o
 .text.misc_read
                0x0000000000000000       0x18 drivers/built-in.o
 .text.misc_write
                0x0000000000000000       0x18 drivers/built-in.o
 .text.misc_ioctl
                0x0000000000000000       0x10 drivers/built-in.o
 .text.misc_call
                0x0000000000000000       0x18 drivers/built-in.o
 .text.cpu_mmc_init
                0x0000000000000000        0x6 drivers/built-in.o
 .text.board_mmc_init
                0x0000000000000000        0x6 drivers/built-in.o
 .text.mmc_set_preinit
                0x0000000000000000        0x6 drivers/built-in.o
 .text.mmc_destroy
                0x0000000000000000        0x4 drivers/built-in.o
 .text.dfu_get_alt
                0x0000000000000000       0x64 drivers/built-in.o
 .text.dfu_write_from_mem_addr
                0x0000000000000000       0x68 drivers/built-in.o
 .text.rtc_mktime
                0x0000000000000000       0x72 drivers/built-in.o
 .text._input_send_keycodes
                0x0000000000000000      0x2b0 drivers/built-in.o
 .text.input_tstc
                0x0000000000000000       0x28 drivers/built-in.o
 .text.input_getc
                0x0000000000000000       0x34 drivers/built-in.o
 .text.input_send_keycodes
                0x0000000000000000        0x6 drivers/built-in.o
 .text.input_add_keycode
                0x0000000000000000       0x54 drivers/built-in.o
 .text.input_add_table
                0x0000000000000000       0x28 drivers/built-in.o
 .text.input_set_delays
                0x0000000000000000        0xa drivers/built-in.o
 .text.input_allow_repeats
                0x0000000000000000        0x6 drivers/built-in.o
 .text.input_leds_changed
                0x0000000000000000        0xe drivers/built-in.o
 .text.input_add_tables
                0x0000000000000000       0x54 drivers/built-in.o
 .text.input_init
                0x0000000000000000       0x14 drivers/built-in.o
 .text.input_stdio_register
                0x0000000000000000       0x34 drivers/built-in.o
 .text.create_keymap
                0x0000000000000000       0x5a drivers/built-in.o
 .text.key_matrix_decode
                0x0000000000000000       0x96 drivers/built-in.o
 .text.key_matrix_decode_fdt
                0x0000000000000000       0x70 drivers/built-in.o
 .text.key_matrix_init
                0x0000000000000000       0x20 drivers/built-in.o
 .rodata.devfdt_get_addr_name.str1.1
                0x0000000000000000        0xa drivers/built-in.o
 .rodata.of_read_fmap_entry.str1.1
                0x0000000000000000       0x1b drivers/built-in.o
 .rodata.ofnode_decode_display_timing.str1.1
                0x0000000000000000       0xca drivers/built-in.o
 .rodata.ofnode_pre_reloc.str1.1
                0x0000000000000000       0x30 drivers/built-in.o
 .rodata.ofnode_read_resource.str1.1
                0x0000000000000000        0x4 drivers/built-in.o
 .rodata.ofnode_read_resource_byname.str1.1
                0x0000000000000000        0xa drivers/built-in.o
 .rodata.dfu_write_from_mem_addr.str1.1
                0x0000000000000000       0x24 drivers/built-in.o
 .rodata.CSWTCH.34
                0x0000000000000000        0xd drivers/built-in.o
 .rodata.input_stdio_register.str1.1
                0x0000000000000000        0x6 drivers/built-in.o
 .rodata.kbd_plain_xlate
                0x0000000000000000       0x64 drivers/built-in.o
 .rodata.kbd_plain_xlate_german
                0x0000000000000000       0x84 drivers/built-in.o
 .rodata.kbd_to_ansi364
                0x0000000000000000       0x20 drivers/built-in.o
 .rodata.key_matrix_decode_fdt.str1.1
                0x0000000000000000       0x1d drivers/built-in.o
 .data          0x0000000000000000        0x0 drivers/built-in.o
 .data.kbd_ctrl_xlate
                0x0000000000000000       0x64 drivers/built-in.o
 .data.kbd_entry
                0x0000000000000000       0x8c drivers/built-in.o
 .data.kbd_right_alt_xlate_german
                0x0000000000000000       0x58 drivers/built-in.o
 .data.kbd_shift_xlate
                0x0000000000000000       0x64 drivers/built-in.o
 .data.kbd_shift_xlate_german
                0x0000000000000000       0x84 drivers/built-in.o
 .bss           0x0000000000000000        0x0 drivers/built-in.o
 .text          0x0000000000000000        0x0 drivers/gpio/built-in.o
 .text.gpio_requestf
                0x0000000000000000       0x2a drivers/gpio/built-in.o
 .text.dm_gpio_get_open_drain
                0x0000000000000000       0x2c drivers/gpio/built-in.o
 .text.dm_gpio_set_open_drain
                0x0000000000000000       0x2c drivers/gpio/built-in.o
 .text.dm_gpio_set_dir
                0x0000000000000000        0x6 drivers/gpio/built-in.o
 .text.gpio_claim_vector
                0x0000000000000000       0x52 drivers/gpio/built-in.o
 .text.gpio_get_values_as_int
                0x0000000000000000       0x2c drivers/gpio/built-in.o
 .text.dm_gpio_get_values_as_int
                0x0000000000000000       0x32 drivers/gpio/built-in.o
 .text.gpio_request_by_name_nodev
                0x0000000000000000       0x44 drivers/gpio/built-in.o
 .text.gpio_get_number
                0x0000000000000000       0x14 drivers/gpio/built-in.o
 .text.gpio_is_valid
                0x0000000000000000        0xa drivers/gpio/built-in.o
 .rodata.dm_gpio_get_open_drain.str1.1
                0x0000000000000000        0xf drivers/gpio/built-in.o
 .rodata.dm_gpio_set_open_drain.str1.1
                0x0000000000000000        0xf drivers/gpio/built-in.o
 .data          0x0000000000000000        0x0 drivers/gpio/built-in.o
 .bss           0x0000000000000000        0x0 drivers/gpio/built-in.o
 .text          0x0000000000000000        0x0 drivers/i2c/built-in.o
 .text.i2c_dump_msgs
                0x0000000000000000       0x64 drivers/i2c/built-in.o
 .text.dm_i2c_xfer
                0x0000000000000000       0x22 drivers/i2c/built-in.o
 .text.dm_i2c_reg_read
                0x0000000000000000       0x1a drivers/i2c/built-in.o
 .text.dm_i2c_reg_write
                0x0000000000000000       0x14 drivers/i2c/built-in.o
 .text.i2c_get_bus_num_fdt
                0x0000000000000000       0x18 drivers/i2c/built-in.o
 .text.i2c_get_bus_num
                0x0000000000000000        0xc drivers/i2c/built-in.o
 .text.i2c_set_bus_num
                0x0000000000000000        0xc drivers/i2c/built-in.o
 .text.i2c_init
                0x0000000000000000        0x2 drivers/i2c/built-in.o
 .text.board_i2c_init
                0x0000000000000000        0x2 drivers/i2c/built-in.o
 .text.i2c_reg_read
                0x0000000000000000       0x20 drivers/i2c/built-in.o
 .text.i2c_reg_write
                0x0000000000000000       0x1e drivers/i2c/built-in.o
 .rodata.i2c_dump_msgs.str1.1
                0x0000000000000000       0x1b drivers/i2c/built-in.o
 .bss           0x0000000000000000        0x0 drivers/i2c/built-in.o
 .text          0x0000000000000000        0x0 drivers/mtd/built-in.o
 .text.idr_remove
                0x0000000000000000        0xe drivers/mtd/built-in.o
 .text.idr_find
                0x0000000000000000        0xe drivers/mtd/built-in.o
 .text.idr_alloc
                0x0000000000000000       0x26 drivers/mtd/built-in.o
 .text.del_mtd_device
                0x0000000000000000       0x4c drivers/mtd/built-in.o
 .text.get_mtd_device
                0x0000000000000000       0x58 drivers/mtd/built-in.o
 .text.mtd_get_unmapped_area
                0x0000000000000000       0x48 drivers/mtd/built-in.o
 .text.mtd_panic_write
                0x0000000000000000       0x6a drivers/mtd/built-in.o
 .text.mtd_get_fact_prot_info
                0x0000000000000000       0x1a drivers/mtd/built-in.o
 .text.mtd_read_fact_prot_reg
                0x0000000000000000       0x22 drivers/mtd/built-in.o
 .text.mtd_get_user_prot_info
                0x0000000000000000       0x1a drivers/mtd/built-in.o
 .text.mtd_read_user_prot_reg
                0x0000000000000000       0x22 drivers/mtd/built-in.o
 .text.mtd_write_user_prot_reg
                0x0000000000000000       0x38 drivers/mtd/built-in.o
 .text.mtd_lock_user_prot_reg
                0x0000000000000000       0x1e drivers/mtd/built-in.o
 .text.mtd_lock
                0x0000000000000000       0x50 drivers/mtd/built-in.o
 .text.mtd_is_locked
                0x0000000000000000       0x50 drivers/mtd/built-in.o
 .text.mtd_block_isreserved
                0x0000000000000000       0x2c drivers/mtd/built-in.o
 .rodata.del_mtd_device.str1.1
                0x0000000000000000       0x30 drivers/mtd/built-in.o
 .data          0x0000000000000000        0x0 drivers/mtd/built-in.o
 .bss           0x0000000000000000        0x0 drivers/mtd/built-in.o
 .bss.mtd_table
                0x0000000000000000       0x80 drivers/mtd/built-in.o
 .text          0x0000000000000000        0x0 drivers/mtd/nand/built-in.o
 .text.nand_mtd_to_devnum
                0x0000000000000000       0x1e drivers/mtd/nand/built-in.o
 .text.onfi_async_timing_mode_to_sdr_timings
                0x0000000000000000       0x18 drivers/mtd/nand/built-in.o
 .text.omap_correct_data
                0x0000000000000000       0xc0 drivers/mtd/nand/built-in.o
 .text.omap_nand_switch_ecc
                0x0000000000000000      0x244 drivers/mtd/nand/built-in.o
 .rodata.onfi_sdr_timings
                0x0000000000000000      0x360 drivers/mtd/nand/built-in.o
 .rodata.omap_correct_data.str1.1
                0x0000000000000000       0x31 drivers/mtd/nand/built-in.o
 .rodata.omap_nand_switch_ecc.str1.1
                0x0000000000000000       0x9e drivers/mtd/nand/built-in.o
 .data          0x0000000000000000        0x0 drivers/mtd/nand/built-in.o
 .data.nand_manuf_ids
                0x0000000000000000       0x78 drivers/mtd/nand/built-in.o
 .bss           0x0000000000000000        0x0 drivers/mtd/nand/built-in.o
 .text          0x0000000000000000        0x0 drivers/mtd/spi/built-in.o
 .text.spi_flash_decode_fdt
                0x0000000000000000        0x4 drivers/mtd/spi/built-in.o
 .data          0x0000000000000000        0x0 drivers/mtd/spi/built-in.o
 .bss           0x0000000000000000        0x0 drivers/mtd/spi/built-in.o
 .text          0x0000000000000000        0x0 drivers/net/built-in.o
 .data          0x0000000000000000        0x0 drivers/net/built-in.o
 .bss           0x0000000000000000        0x0 drivers/net/built-in.o
 .text          0x0000000000000000        0x0 drivers/net/phy/built-in.o
 .text.phy_set_supported
                0x0000000000000000       0x3c drivers/net/phy/built-in.o
 .text.miiphy_reset
                0x0000000000000000       0x1a drivers/net/phy/built-in.o
 .text.phy_shutdown
                0x0000000000000000        0xe drivers/net/phy/built-in.o
 .data          0x0000000000000000        0x0 drivers/net/phy/built-in.o
 .bss           0x0000000000000000        0x0 drivers/net/phy/built-in.o
 .text          0x0000000000000000        0x0 drivers/power/pmic/built-in.o
 .text.tps65217_reg_read
                0x0000000000000000       0x16 drivers/power/pmic/built-in.o
 .text.tps65217_reg_write
                0x0000000000000000       0x9a drivers/power/pmic/built-in.o
 .text.tps65217_voltage_update
                0x0000000000000000       0x32 drivers/power/pmic/built-in.o
 .text.tps65910_set_i2c_control
                0x0000000000000000       0x36 drivers/power/pmic/built-in.o
 .text.tps65910_voltage_update
                0x0000000000000000       0x94 drivers/power/pmic/built-in.o
 .data          0x0000000000000000        0x0 drivers/power/pmic/built-in.o
 .bss           0x0000000000000000        0x0 drivers/power/pmic/built-in.o
 .comment       0x0000000000000000       0x5c drivers/power/pmic/built-in.o
 .note.GNU-stack
                0x0000000000000000        0x0 drivers/power/pmic/built-in.o
 .ARM.attributes
                0x0000000000000000       0x2d drivers/power/pmic/built-in.o
 .debug_aranges
                0x0000000000000000       0x58 drivers/power/pmic/built-in.o
 .debug_info    0x0000000000000000     0x19eb drivers/power/pmic/built-in.o
 .debug_abbrev  0x0000000000000000      0x44b drivers/power/pmic/built-in.o
 .debug_line    0x0000000000000000      0x38c drivers/power/pmic/built-in.o
 .debug_frame   0x0000000000000000       0xb0 drivers/power/pmic/built-in.o
 .debug_str     0x0000000000000000     0x17d7 drivers/power/pmic/built-in.o
 .debug_loc     0x0000000000000000      0x216 drivers/power/pmic/built-in.o
 .debug_ranges  0x0000000000000000       0x38 drivers/power/pmic/built-in.o
 .text          0x0000000000000000        0x0 drivers/serial/built-in.o
 .text.ns16550_calc_divisor
                0x0000000000000000       0x10 drivers/serial/built-in.o
 .text.NS16550_reinit
                0x0000000000000000       0x38 drivers/serial/built-in.o
 .text.NS16550_putc
                0x0000000000000000       0x2a drivers/serial/built-in.o
 .text.NS16550_getc
                0x0000000000000000       0x22 drivers/serial/built-in.o
 .text.NS16550_tstc
                0x0000000000000000       0x10 drivers/serial/built-in.o
 .data          0x0000000000000000        0x0 drivers/serial/built-in.o
 .bss           0x0000000000000000        0x0 drivers/serial/built-in.o
 .text          0x0000000000000000        0x0 drivers/spi/built-in.o
 .text.spi_set_wordlen
                0x0000000000000000       0x20 drivers/spi/built-in.o
 .rodata.spi_set_wordlen.str1.1
                0x0000000000000000       0x19 drivers/spi/built-in.o
 .data          0x0000000000000000        0x0 drivers/spi/built-in.o
 .bss           0x0000000000000000        0x0 drivers/spi/built-in.o
 .text          0x0000000000000000        0x0 drivers/usb/common/built-in.o
 .data          0x0000000000000000        0x0 drivers/usb/common/built-in.o
 .bss           0x0000000000000000        0x0 drivers/usb/common/built-in.o
 .text          0x0000000000000000        0x0 drivers/usb/gadget/built-in.o
 .text.usb_function_deactivate
                0x0000000000000000       0x2a drivers/usb/gadget/built-in.o
 .text.usb_function_activate
                0x0000000000000000       0x2a drivers/usb/gadget/built-in.o
 .text.usb_string_ids_tab
                0x0000000000000000       0x28 drivers/usb/gadget/built-in.o
 .text.usb_string_ids_n
                0x0000000000000000       0x1c drivers/usb/gadget/built-in.o
 .text.board_usb_init
                0x0000000000000000        0x4 drivers/usb/gadget/built-in.o
 .text.board_usb_cleanup
                0x0000000000000000        0x4 drivers/usb/gadget/built-in.o
 .text.fastboot_fail
                0x0000000000000000       0x20 drivers/usb/gadget/built-in.o
 .text.fastboot_okay
                0x0000000000000000       0x20 drivers/usb/gadget/built-in.o
 .text.fb_set_reboot_flag
                0x0000000000000000        0x6 drivers/usb/gadget/built-in.o
 .rodata        0x0000000000000000        0xc drivers/usb/gadget/built-in.o
 .data          0x0000000000000000        0x0 drivers/usb/gadget/built-in.o
 .bss           0x0000000000000000        0x0 drivers/usb/gadget/built-in.o
 .text          0x0000000000000000        0x0 drivers/usb/host/built-in.o
 .text.create_int_queue
                0x0000000000000000       0x2a drivers/usb/host/built-in.o
 .text.poll_int_queue
                0x0000000000000000       0x1e drivers/usb/host/built-in.o
 .text.destroy_int_queue
                0x0000000000000000       0x20 drivers/usb/host/built-in.o
 .text.usb_setup_ehci_gadget
                0x0000000000000000       0x42 drivers/usb/host/built-in.o
 .text.usb_detect_change
                0x0000000000000000       0x68 drivers/usb/host/built-in.o
 .data          0x0000000000000000        0x0 drivers/usb/host/built-in.o
 .bss           0x0000000000000000        0x0 drivers/usb/host/built-in.o
 .text          0x0000000000000000        0x0 drivers/usb/musb-new/built-in.o
 .text.musb_gadget_cleanup
                0x0000000000000000        0x2 drivers/usb/musb-new/built-in.o
 .text.musb_g_resume
                0x0000000000000000        0x2 drivers/usb/musb-new/built-in.o
 .text.musb_g_suspend
                0x0000000000000000        0x2 drivers/usb/musb-new/built-in.o
 .text.musb_g_wakeup
                0x0000000000000000        0x2 drivers/usb/musb-new/built-in.o
 .text.musb_g_disconnect
                0x0000000000000000       0x38 drivers/usb/musb-new/built-in.o
 .text.musb_g_reset
                0x0000000000000000       0x72 drivers/usb/musb-new/built-in.o
 .text.musb_register
                0x0000000000000000       0x30 drivers/usb/musb-new/built-in.o
 .rodata.musb_register.str1.1
                0x0000000000000000       0x1f drivers/usb/musb-new/built-in.o
 .data          0x0000000000000000        0x0 drivers/usb/musb-new/built-in.o
 .bss           0x0000000000000000        0x0 drivers/usb/musb-new/built-in.o
 .text          0x0000000000000000        0x0 env/built-in.o
 .text.env_flags_parse_varaccess_from_binflags
                0x0000000000000000       0x30 env/built-in.o
 .rodata.env_flags_parse_varaccess_from_binflags.str1.1
                0x0000000000000000       0x2c env/built-in.o
 .data          0x0000000000000000        0x0 env/built-in.o
 .bss           0x0000000000000000        0x0 env/built-in.o
 .text          0x0000000000000000        0x0 fs/built-in.o
 .text.fs_uuid  0x0000000000000000       0x1c fs/built-in.o
 .text.do_fs_uuid
                0x0000000000000000       0x58 fs/built-in.o
 .text.print_revoke_blks
                0x0000000000000000       0x38 fs/built-in.o
 .text.fat_register_device
                0x0000000000000000       0x54 fs/built-in.o
 .rodata.print_revoke_blks.str1.1
                0x0000000000000000       0x25 fs/built-in.o
 .rodata.fat_register_device.str1.1
                0x0000000000000000       0x2b fs/built-in.o
 .data          0x0000000000000000        0x0 fs/built-in.o
 .bss           0x0000000000000000        0x0 fs/built-in.o
 .bss.ext4fs_symlinknest
                0x0000000000000000        0x4 fs/built-in.o
 .text          0x0000000000000000        0x0 lib/built-in.o
 .text.invalidate_icache_all
                0x0000000000000000        0x2 lib/built-in.o
 .text.__efi_nesting
                0x0000000000000000        0xc lib/built-in.o
 .text.efi_add_runtime_mmio
                0x0000000000000000       0x60 lib/built-in.o
 .text.efi_dp_str
                0x0000000000000000        0x4 lib/built-in.o
 .text.efi_dp_append
                0x0000000000000000       0x58 lib/built-in.o
 .text.efi_dp_append_node
                0x0000000000000000       0x8c lib/built-in.o
 .text.efi_dp_from_dev
                0x0000000000000000       0x28 lib/built-in.o
 .text._fdt_sw_check_header
                0x0000000000000000       0x14 lib/built-in.o
 .text._fdt_grab_space
                0x0000000000000000       0x30 lib/built-in.o
 .text.fdt_create
                0x0000000000000000       0x40 lib/built-in.o
 .text.fdt_resize
                0x0000000000000000       0x78 lib/built-in.o
 .text.fdt_add_reservemap_entry
                0x0000000000000000       0x5e lib/built-in.o
 .text.fdt_finish_reservemap
                0x0000000000000000       0x14 lib/built-in.o
 .text.fdt_begin_node
                0x0000000000000000       0x42 lib/built-in.o
 .text.fdt_end_node
                0x0000000000000000       0x26 lib/built-in.o
 .text.fdt_property_placeholder
                0x0000000000000000       0x9e lib/built-in.o
 .text.fdt_property
                0x0000000000000000       0x22 lib/built-in.o
 .text.fdt_finish
                0x0000000000000000       0x94 lib/built-in.o
 .text.fdt_create_empty_tree
                0x0000000000000000       0x44 lib/built-in.o
 .text.fdt_node_offset_by_prop_value
                0x0000000000000000       0x56 lib/built-in.o
 .text.fdt_stringlist_search
                0x0000000000000000       0x66 lib/built-in.o
 .text.fdt_node_offset_by_compatible
                0x0000000000000000       0x40 lib/built-in.o
 .text.fdt_set_name
                0x0000000000000000       0x5a lib/built-in.o
 .text.fdt_appendprop
                0x0000000000000000       0x82 lib/built-in.o
 .text.fdt_remove_unused_strings
                0x0000000000000000       0x6a lib/built-in.o
 .text.fdt_nop_property
                0x0000000000000000       0x2a lib/built-in.o
 .text.fdt_nop_node
                0x0000000000000000       0x30 lib/built-in.o
 .text.fdt_find_regions
                0x0000000000000000      0x23c lib/built-in.o
 .text.fdt_add_region
                0x0000000000000000       0x58 lib/built-in.o
 .text.fdt_add_alias_regions
                0x0000000000000000      0x120 lib/built-in.o
 .text.fdt_next_region
                0x0000000000000000      0x330 lib/built-in.o
 .text.fdt_first_region
                0x0000000000000000       0x3a lib/built-in.o
 .text.utf16_strcpy
                0x0000000000000000       0x10 lib/built-in.o
 .text.utf16_strdup
                0x0000000000000000       0x24 lib/built-in.o
 .text.crc7     0x0000000000000000       0x1c lib/built-in.o
 .text.crc8     0x0000000000000000       0x32 lib/built-in.o
 .text.fdtdec_get_uint
                0x0000000000000000       0x1c lib/built-in.o
 .text.lmb_dump_all
                0x0000000000000000        0x2 lib/built-in.o
 .text.lmb_is_reserved
                0x0000000000000000       0x28 lib/built-in.o
 .text.arch_lmb_reserve
                0x0000000000000000        0x2 lib/built-in.o
 .text.ldiv     0x0000000000000000       0x2e lib/built-in.o
 .text.byteReverse
                0x0000000000000000        0x2 lib/built-in.o
 .text.md5      0x0000000000000000       0x44 lib/built-in.o
 .text.rc4_encode
                0x0000000000000000       0x88 lib/built-in.o
 .text.sha1_csum
                0x0000000000000000       0x24 lib/built-in.o
 .text.sha1_hmac
                0x0000000000000000       0xb6 lib/built-in.o
 .text.sha1_self_test
                0x0000000000000000        0x4 lib/built-in.o
 .text.inflateInit_
                0x0000000000000000        0xa lib/built-in.o
 .text.fdtdec_get_compatible
                0x0000000000000000        0xc lib/built-in.o
 .text.fdtdec_get_uint64
                0x0000000000000000       0x24 lib/built-in.o
 .text.fdtdec_lookup
                0x0000000000000000       0x28 lib/built-in.o
 .text.fdtdec_next_compatible
                0x0000000000000000       0x10 lib/built-in.o
 .text.fdtdec_next_compatible_subnode
                0x0000000000000000       0x3c lib/built-in.o
 .text.fdtdec_next_alias
                0x0000000000000000       0x60 lib/built-in.o
 .text.fdtdec_add_aliases_for_id
                0x0000000000000000      0x16c lib/built-in.o
 .text.fdtdec_find_aliases_for_id
                0x0000000000000000       0x2a lib/built-in.o
 .text.fdtdec_check_fdt
                0x0000000000000000        0xa lib/built-in.o
 .text.decode_timing_property
                0x0000000000000000       0x48 lib/built-in.o
 .text.fdtdec_get_int_array_count
                0x0000000000000000       0x38 lib/built-in.o
 .text.fdtdec_locate_array
                0x0000000000000000       0x18 lib/built-in.o
 .text.fdtdec_get_child_count
                0x0000000000000000       0x1e lib/built-in.o
 .text.fdtdec_get_byte_array
                0x0000000000000000       0x22 lib/built-in.o
 .text.fdtdec_locate_byte_array
                0x0000000000000000       0x16 lib/built-in.o
 .text.fdtdec_get_config_bool
                0x0000000000000000       0x2c lib/built-in.o
 .text.fdtdec_decode_region
                0x0000000000000000       0x2c lib/built-in.o
 .text.fdt_get_resource
                0x0000000000000000       0x8c lib/built-in.o
 .text.fdt_get_named_resource
                0x0000000000000000       0x2c lib/built-in.o
 .text.fdtdec_decode_memory_region
                0x0000000000000000       0xb8 lib/built-in.o
 .text.fdtdec_decode_display_timing
                0x0000000000000000      0x1e8 lib/built-in.o
 .text.fdtdec_setup_memory_size
                0x0000000000000000       0x44 lib/built-in.o
 .text.fdtdec_setup_memory_banksize
                0x0000000000000000       0x54 lib/built-in.o
 .text.print_freq
                0x0000000000000000      0x11c lib/built-in.o
 .text.div_s64_rem
                0x0000000000000000       0xae lib/built-in.o
 .text.div64_u64_rem
                0x0000000000000000      0x10c lib/built-in.o
 .text.div64_u64
                0x0000000000000000       0xe8 lib/built-in.o
 .text.div64_s64
                0x0000000000000000       0x32 lib/built-in.o
 .text.iter_div_u64_rem
                0x0000000000000000       0x24 lib/built-in.o
 .text.copy_from_user
                0x0000000000000000        0xa lib/built-in.o
 .text.get_mem  0x0000000000000000       0x10 lib/built-in.o
 .text.kmem_cache_alloc
                0x0000000000000000        0x8 lib/built-in.o
 .text.membuff_purge
                0x0000000000000000        0x8 lib/built-in.o
 .text.membuff_putraw
                0x0000000000000000       0x6a lib/built-in.o
 .text.membuff_putbyte
                0x0000000000000000       0x1c lib/built-in.o
 .text.membuff_getraw
                0x0000000000000000       0x54 lib/built-in.o
 .text.membuff_getbyte
                0x0000000000000000       0x24 lib/built-in.o
 .text.membuff_peekbyte
                0x0000000000000000       0x22 lib/built-in.o
 .text.membuff_get
                0x0000000000000000       0x44 lib/built-in.o
 .text.membuff_put
                0x0000000000000000       0x3a lib/built-in.o
 .text.membuff_isempty
                0x0000000000000000        0xc lib/built-in.o
 .text.membuff_avail
                0x0000000000000000       0x34 lib/built-in.o
 .text.membuff_size
                0x0000000000000000        0x6 lib/built-in.o
 .text.membuff_makecontig
                0x0000000000000000       0x44 lib/built-in.o
 .text.membuff_free
                0x0000000000000000       0x1a lib/built-in.o
 .text.membuff_readline
                0x0000000000000000       0x6e lib/built-in.o
 .text.membuff_extend_by
                0x0000000000000000       0x78 lib/built-in.o
 .text.membuff_init
                0x0000000000000000        0xc lib/built-in.o
 .text.membuff_new
                0x0000000000000000       0x22 lib/built-in.o
 .text.membuff_uninit
                0x0000000000000000        0xc lib/built-in.o
 .text.membuff_dispose
                0x0000000000000000       0x14 lib/built-in.o
 .text.strchrnul
                0x0000000000000000       0x14 lib/built-in.o
 .text.strcspn  0x0000000000000000       0x22 lib/built-in.o
 .text.strswab  0x0000000000000000       0x24 lib/built-in.o
 .text.memscan  0x0000000000000000       0x16 lib/built-in.o
 .text.memchr_inv
                0x0000000000000000       0xa8 lib/built-in.o
 .text.table_compute_checksum
                0x0000000000000000       0x1a lib/built-in.o
 .text.srand    0x0000000000000000        0xc lib/built-in.o
 .text.vsnprintf
                0x0000000000000000        0x4 lib/built-in.o
 .text.scnprintf
                0x0000000000000000       0x1a lib/built-in.o
 .text.__assert_fail
                0x0000000000000000       0x10 lib/built-in.o
 .text.print_grouped_ull
                0x0000000000000000       0x5c lib/built-in.o
 .text.strmhz   0x0000000000000000       0x48 lib/built-in.o
 .rodata.fdt_create_empty_tree.str1.1
                0x0000000000000000        0x1 lib/built-in.o
 .rodata.fdt_add_alias_regions.str1.1
                0x0000000000000000        0x8 lib/built-in.o
 .rodata.crc7_syndrome_table
                0x0000000000000000      0x100 lib/built-in.o
 .rodata.sha1_der_prefix
                0x0000000000000000        0xf lib/built-in.o
 .rodata.sha256_der_prefix
                0x0000000000000000       0x13 lib/built-in.o
 .rodata.z_errmsg
                0x0000000000000000       0x28 lib/built-in.o
 .rodata.compat_names
                0x0000000000000000       0xa0 lib/built-in.o
 .rodata.fdtdec_decode_display_timing.str1.1
                0x0000000000000000       0xca lib/built-in.o
 .rodata.fdtdec_decode_memory_region.str1.1
                0x0000000000000000       0x25 lib/built-in.o
 .rodata.fdtdec_next_alias.str1.1
                0x0000000000000000        0x7 lib/built-in.o
 .rodata.names.8208
                0x0000000000000000        0x3 lib/built-in.o
 .rodata.__assert_fail.str1.1
                0x0000000000000000       0x22 lib/built-in.o
 .rodata.print_grouped_ull.str1.1
                0x0000000000000000        0xb lib/built-in.o
 .rodata.strmhz.str1.1
                0x0000000000000000        0xb lib/built-in.o
 .data          0x0000000000000000        0x0 lib/built-in.o
 .data.cur      0x0000000000000000        0x4 lib/built-in.o
 .data.current  0x0000000000000000        0x4 lib/built-in.o
 .bss           0x0000000000000000        0x0 lib/built-in.o
 .text          0x0000000000000000        0x0 net/built-in.o
 .text.add_ip_checksums
                0x0000000000000000       0x2a net/built-in.o
 .text.eth_init_state_only
                0x0000000000000000       0x1e net/built-in.o
 .text.eth_is_active
                0x0000000000000000       0x20 net/built-in.o
 .text.net_get_udp_handler
                0x0000000000000000        0xc net/built-in.o
 .text.net_set_arp_handler
                0x0000000000000000       0x18 net/built-in.o
 .text.random_port
                0x0000000000000000       0x12 net/built-in.o
 .text.vlan_to_string
                0x0000000000000000       0x34 net/built-in.o
 .text.env_get_vlan
                0x0000000000000000        0xe net/built-in.o
 .rodata.vlan_to_string.str1.1
                0x0000000000000000        0x8 net/built-in.o
 .data          0x0000000000000000        0x0 net/built-in.o
 .data.tftp_timeout_ms
                0x0000000000000000        0x4 net/built-in.o
 .bss           0x0000000000000000        0x0 net/built-in.o
 .bss.net_busy_flag
                0x0000000000000000        0x4 net/built-in.o
 .text          0x0000000000000000        0x0 test/dm/built-in.o
 .data          0x0000000000000000        0x0 test/dm/built-in.o
 .bss           0x0000000000000000        0x0 test/dm/built-in.o
 .text          0x0000000000000000        0x0 arch/arm/lib/eabi_compat.o
 .data          0x0000000000000000        0x0 arch/arm/lib/eabi_compat.o
 .bss           0x0000000000000000        0x0 arch/arm/lib/eabi_compat.o
 .text.raise    0x0000000000000000       0x14 arch/arm/lib/eabi_compat.o
 .text.__aeabi_unwind_cpp_pr0
                0x0000000000000000        0x2 arch/arm/lib/eabi_compat.o
 .text.__aeabi_unwind_cpp_pr1
                0x0000000000000000        0x2 arch/arm/lib/eabi_compat.o
 .text.__aeabi_memcpy
                0x0000000000000000        0x4 arch/arm/lib/eabi_compat.o
 .text.__aeabi_memset
                0x0000000000000000        0xa arch/arm/lib/eabi_compat.o
 .rodata.raise.str1.1
                0x0000000000000000       0x1b arch/arm/lib/eabi_compat.o
 .debug_info    0x0000000000000000      0xbc7 arch/arm/lib/eabi_compat.o
 .debug_abbrev  0x0000000000000000      0x250 arch/arm/lib/eabi_compat.o
 .debug_loc     0x0000000000000000      0x108 arch/arm/lib/eabi_compat.o
 .debug_aranges
                0x0000000000000000       0x38 arch/arm/lib/eabi_compat.o
 .debug_ranges  0x0000000000000000       0x28 arch/arm/lib/eabi_compat.o
 .debug_line    0x0000000000000000      0x1b7 arch/arm/lib/eabi_compat.o
 .debug_str     0x0000000000000000      0xaa0 arch/arm/lib/eabi_compat.o
 .comment       0x0000000000000000       0x2e arch/arm/lib/eabi_compat.o
 .note.GNU-stack
                0x0000000000000000        0x0 arch/arm/lib/eabi_compat.o
 .debug_frame   0x0000000000000000       0x68 arch/arm/lib/eabi_compat.o
 .ARM.attributes
                0x0000000000000000       0x2d arch/arm/lib/eabi_compat.o
 .text          0x0000000000000000        0x0 arch/arm/lib/lib.a(ashldi3.o)
 .data          0x0000000000000000        0x0 arch/arm/lib/lib.a(ashldi3.o)
 .bss           0x0000000000000000        0x0 arch/arm/lib/lib.a(ashldi3.o)
 .text          0x0000000000000000        0x0 arch/arm/lib/lib.a(ashrdi3.o)
 .data          0x0000000000000000        0x0 arch/arm/lib/lib.a(ashrdi3.o)
 .bss           0x0000000000000000        0x0 arch/arm/lib/lib.a(ashrdi3.o)
 .text          0x0000000000000000        0x0 arch/arm/lib/lib.a(lib1funcs.o)
 .data          0x0000000000000000        0x0 arch/arm/lib/lib.a(lib1funcs.o)
 .bss           0x0000000000000000        0x0 arch/arm/lib/lib.a(lib1funcs.o)
 .text.__umodsi3
                0x0000000000000000       0xa0 arch/arm/lib/lib.a(lib1funcs.o)
 .text.__modsi3
                0x0000000000000000       0xb8 arch/arm/lib/lib.a(lib1funcs.o)
 .text          0x0000000000000000        0x0 arch/arm/lib/lib.a(lshrdi3.o)
 .data          0x0000000000000000        0x0 arch/arm/lib/lib.a(lshrdi3.o)
 .bss           0x0000000000000000        0x0 arch/arm/lib/lib.a(lshrdi3.o)
 .text          0x0000000000000000        0x0 arch/arm/lib/lib.a(div0.o)
 .data          0x0000000000000000        0x0 arch/arm/lib/lib.a(div0.o)
 .bss           0x0000000000000000        0x0 arch/arm/lib/lib.a(div0.o)

Memory Configuration

Name             Origin             Length             Attributes
*default*        0x0000000000000000 0xffffffffffffffff

Linker script and memory map

Address of section .text set to 0x80800000
                0x0000000000000000                . = 0x0
                0x0000000000000000                . = ALIGN (0x4)

.text           0x0000000080800000    0x45d44
 *(.__image_copy_start)
 .__image_copy_start
                0x0000000080800000        0x0 arch/arm/lib/built-in.o
                0x0000000080800000                __image_copy_start
 *(.vectors)
 .vectors       0x0000000080800000      0x2e8 arch/arm/lib/built-in.o
                0x0000000080800000                _start
                0x0000000080800020                _undefined_instruction
                0x0000000080800024                _software_interrupt
                0x0000000080800028                _prefetch_abort
                0x000000008080002c                _data_abort
                0x0000000080800030                _not_used
                0x0000000080800034                _irq
                0x0000000080800038                _fiq
                0x0000000080800040                IRQ_STACK_START_IN
 arch/arm/cpu/armv7/start.o(.text*)
 .text          0x00000000808002e8       0xa4 arch/arm/cpu/armv7/start.o
                0x00000000808002e8                reset
                0x00000000808002ec                save_boot_params_ret
                0x0000000080800320                c_runtime_cpu_setup
                0x0000000080800334                cpu_init_cp15
 board/ti/am335x/built-in.o(.text*)
 .text.request_and_set_gpio
                0x000000008080038c       0x58 board/ti/am335x/built-in.o
 .text.board_init
                0x00000000808003e4      0x188 board/ti/am335x/built-in.o
                0x00000000808003e4                board_init
 .text.board_late_init
                0x000000008080056c      0x194 board/ti/am335x/built-in.o
                0x000000008080056c                board_late_init
 *(.text*)
 .text          0x0000000080800700      0x158 arch/arm/cpu/armv7/built-in.o
                0x0000000080800700                __v7_flush_dcache_all
                0x000000008080079c                v7_flush_dcache_all
                0x00000000808007ac                __v7_invalidate_dcache_all
                0x0000000080800848                v7_invalidate_dcache_all
 .text.invalidate_icache_all
                0x0000000080800858       0x14 arch/arm/cpu/armv7/built-in.o
                0x0000000080800858                invalidate_icache_all
 .text.v7_outer_cache_enable
                0x000000008080086c        0x2 arch/arm/cpu/armv7/built-in.o
                0x000000008080086c                v7_outer_cache_enable
 .text.v7_outer_cache_disable
                0x000000008080086e        0x2 arch/arm/cpu/armv7/built-in.o
                0x000000008080086e                v7_outer_cache_disable
 .text.v7_outer_cache_flush_all
                0x0000000080800870        0x2 arch/arm/cpu/armv7/built-in.o
                0x0000000080800870                v7_outer_cache_flush_all
 .text.flush_dcache_all
                0x0000000080800872        0xe arch/arm/cpu/armv7/built-in.o
                0x0000000080800872                flush_dcache_all
 .text.v7_outer_cache_inval_all
                0x0000000080800880        0x2 arch/arm/cpu/armv7/built-in.o
                0x0000000080800880                v7_outer_cache_inval_all
 .text.invalidate_dcache_all
                0x0000000080800882        0xe arch/arm/cpu/armv7/built-in.o
                0x0000000080800882                invalidate_dcache_all
 .text.arm_init_before_mmu
                0x0000000080800890       0x22 arch/arm/cpu/armv7/built-in.o
                0x0000000080800890                arm_init_before_mmu
 .text.v7_outer_cache_flush_range
                0x00000000808008b2        0x2 arch/arm/cpu/armv7/built-in.o
                0x00000000808008b2                v7_outer_cache_flush_range
 .text.flush_dcache_range
                0x00000000808008b4       0x38 arch/arm/cpu/armv7/built-in.o
                0x00000000808008b4                flush_dcache_range
 .text.v7_outer_cache_inval_range
                0x00000000808008ec        0x2 arch/arm/cpu/armv7/built-in.o
                0x00000000808008ec                v7_outer_cache_inval_range
 .text.invalidate_dcache_range
                0x00000000808008ee       0x42 arch/arm/cpu/armv7/built-in.o
                0x00000000808008ee                invalidate_dcache_range
 .text.cpu_cache_initialization
                0x0000000080800930        0x2 arch/arm/cpu/armv7/built-in.o
                0x0000000080800930                cpu_cache_initialization
 .text.cleanup_before_linux_select
                0x0000000080800932       0x3e arch/arm/cpu/armv7/built-in.o
                0x0000000080800932                cleanup_before_linux_select
 .text.cleanup_before_linux
                0x0000000080800970        0x6 arch/arm/cpu/armv7/built-in.o
                0x0000000080800970                cleanup_before_linux
 .text.sdelay   0x0000000080800976        0x6 arch/arm/cpu/armv7/built-in.o
                0x0000000080800976                sdelay
 *fill*         0x000000008080097c        0x4 
 .text          0x0000000080800980      0x420 arch/arm/lib/built-in.o
                0x0000000080800980                _main
                0x0000000080800a20                memset
                0x0000000080800ac0                memcpy
 .text.setjmp   0x0000000080800da0       0x10 arch/arm/lib/built-in.o
                0x0000000080800da0                setjmp
 .text.longjmp  0x0000000080800db0       0x1c arch/arm/lib/built-in.o
                0x0000000080800db0                longjmp
 .text.relocate_vectors
                0x0000000080800dcc       0x70 arch/arm/lib/built-in.o
                0x0000000080800dcc                relocate_vectors
                0x0000000080800dd8                relocate_code
 .text.arch_fixup_fdt
                0x0000000080800e3c       0x24 arch/arm/lib/built-in.o
                0x0000000080800e3c                arch_fixup_fdt
 .text.arch_lmb_reserve
                0x0000000080800e60       0x1a arch/arm/lib/built-in.o
                0x0000000080800e60                arch_lmb_reserve
 .text.board_quiesce_devices
                0x0000000080800e7a        0x2 arch/arm/lib/built-in.o
                0x0000000080800e7a                board_quiesce_devices
 .text.boot_jump_linux
                0x0000000080800e7c       0x90 arch/arm/lib/built-in.o
 .text.setup_board_tags
                0x0000000080800f0c        0x2 arch/arm/lib/built-in.o
                0x0000000080800f0c                setup_board_tags
 *fill*         0x0000000080800f0e        0x2 
 .text.boot_prep_linux
                0x0000000080800f10      0x100 arch/arm/lib/built-in.o
 .text.do_bootm_linux
                0x0000000080801010       0x3c arch/arm/lib/built-in.o
                0x0000000080801010                do_bootm_linux
 .text.boot_prep_vxworks
                0x000000008080104c       0x34 arch/arm/lib/built-in.o
                0x000000008080104c                boot_prep_vxworks
 .text.boot_jump_vxworks
                0x0000000080801080        0xa arch/arm/lib/built-in.o
                0x0000000080801080                boot_jump_vxworks
 *fill*         0x000000008080108a        0x2 
 .text.bootz_setup
                0x000000008080108c       0x6c arch/arm/lib/built-in.o
                0x000000008080108c                bootz_setup
 .text.arch_reserve_stacks
                0x00000000808010f8       0x16 arch/arm/lib/built-in.o
                0x00000000808010f8                arch_reserve_stacks
 *fill*         0x000000008080110e        0x2 
 .text.interrupt_init
                0x0000000080801110       0x14 arch/arm/lib/built-in.o
                0x0000000080801110                interrupt_init
 .text.enable_interrupts
                0x0000000080801124        0x2 arch/arm/lib/built-in.o
                0x0000000080801124                enable_interrupts
 .text.disable_interrupts
                0x0000000080801126        0x4 arch/arm/lib/built-in.o
                0x0000000080801126                disable_interrupts
 *fill*         0x000000008080112a        0x2 
 .text.bad_mode
                0x000000008080112c        0xc arch/arm/lib/built-in.o
                0x000000008080112c                bad_mode
 .text.show_regs
                0x0000000080801138      0x108 arch/arm/lib/built-in.o
                0x0000000080801138                show_regs
 .text.do_undefined_instruction
                0x0000000080801240       0x24 arch/arm/lib/built-in.o
                0x0000000080801240                do_undefined_instruction
 .text.do_software_interrupt
                0x0000000080801264       0x24 arch/arm/lib/built-in.o
                0x0000000080801264                do_software_interrupt
 .text.do_prefetch_abort
                0x0000000080801288       0x24 arch/arm/lib/built-in.o
                0x0000000080801288                do_prefetch_abort
 .text.do_data_abort
                0x00000000808012ac       0x24 arch/arm/lib/built-in.o
                0x00000000808012ac                do_data_abort
 .text.do_not_used
                0x00000000808012d0       0x24 arch/arm/lib/built-in.o
                0x00000000808012d0                do_not_used
 .text.do_fiq   0x00000000808012f4       0x24 arch/arm/lib/built-in.o
                0x00000000808012f4                do_fiq
 .text.do_irq   0x0000000080801318       0x24 arch/arm/lib/built-in.o
                0x0000000080801318                do_irq
 .text.reset_misc
                0x000000008080133c        0x2 arch/arm/lib/built-in.o
                0x000000008080133c                reset_misc
 *fill*         0x000000008080133e        0x2 
 .text.do_reset
                0x0000000080801340       0x28 arch/arm/lib/built-in.o
                0x0000000080801340                do_reset
 .text.flush_cache
                0x0000000080801368        0x6 arch/arm/lib/built-in.o
                0x0000000080801368                flush_cache
 *fill*         0x000000008080136e        0x2 
 .text.check_cache_range
                0x0000000080801370       0x20 arch/arm/lib/built-in.o
                0x0000000080801370                check_cache_range
 .text.set_section_dcache
                0x0000000080801390       0x12 arch/arm/lib/built-in.o
                0x0000000080801390                set_section_dcache
 .text.icache_enable
                0x00000000808013a2       0x12 arch/arm/lib/built-in.o
                0x00000000808013a2                icache_enable
 .text.icache_disable
                0x00000000808013b4       0x16 arch/arm/lib/built-in.o
                0x00000000808013b4                icache_disable
 .text.dcache_enable
                0x00000000808013ca       0x6e arch/arm/lib/built-in.o
                0x00000000808013ca                dcache_enable
 .text.dcache_disable
                0x0000000080801438       0x20 arch/arm/lib/built-in.o
                0x0000000080801438                dcache_disable
 .text.dcache_status
                0x0000000080801458        0xa arch/arm/lib/built-in.o
                0x0000000080801458                dcache_status
 *fill*         0x0000000080801462        0x2 
 .text          0x0000000080801464       0x60 arch/arm/mach-omap2/built-in.o
                0x0000000080801464                save_boot_params
                0x0000000080801470                omap_smc1
                0x000000008080148c                omap_smc_sec
 .text.get_cpu_rev
                0x00000000808014c4       0x10 arch/arm/mach-omap2/built-in.o
                0x00000000808014c4                get_cpu_rev
 .text.get_cpu_type
                0x00000000808014d4       0x14 arch/arm/mach-omap2/built-in.o
                0x00000000808014d4                get_cpu_type
 .text.print_cpuinfo
                0x00000000808014e8       0x90 arch/arm/mach-omap2/built-in.o
                0x00000000808014e8                print_cpuinfo
 .text.dram_init
                0x0000000080801578       0x16 arch/arm/mach-omap2/built-in.o
                0x0000000080801578                dram_init
 .text.dram_init_banksize
                0x000000008080158e       0x18 arch/arm/mach-omap2/built-in.o
                0x000000008080158e                dram_init_banksize
 *fill*         0x00000000808015a6        0x2 
 .text.arch_misc_init
                0x00000000808015a8       0x2c arch/arm/mach-omap2/built-in.o
                0x00000000808015a8                arch_misc_init
 .text.arch_cpu_init_dm
                0x00000000808015d4        0xa arch/arm/mach-omap2/built-in.o
                0x00000000808015d4                arch_cpu_init_dm
 *fill*         0x00000000808015de        0x2 
 .text.hw_data_init
                0x00000000808015e0       0x14 arch/arm/mach-omap2/built-in.o
                0x00000000808015e0                hw_data_init
 .text.clk_synthesizer_reg_write
                0x00000000808015f4       0x38 arch/arm/mach-omap2/built-in.o
 .text.setup_clock_synthesizer
                0x000000008080162c       0x94 arch/arm/mach-omap2/built-in.o
                0x000000008080162c                setup_clock_synthesizer
 .text.reset_cpu
                0x00000000808016c0       0x10 arch/arm/mach-omap2/built-in.o
                0x00000000808016c0                reset_cpu
 .text.get_device_type
                0x00000000808016d0       0x18 arch/arm/mach-omap2/built-in.o
                0x00000000808016d0                get_device_type
 .text.enable_caches
                0x00000000808016e8        0x4 arch/arm/mach-omap2/built-in.o
                0x00000000808016e8                enable_caches
 .text.dram_bank_mmu_setup
                0x00000000808016ec       0x26 arch/arm/mach-omap2/built-in.o
                0x00000000808016ec                dram_bank_mmu_setup
 .text.arm_init_domains
                0x0000000080801712       0x16 arch/arm/mach-omap2/built-in.o
                0x0000000080801712                arm_init_domains
 .text.fb_set_reboot_flag
                0x0000000080801728       0x24 arch/arm/mach-omap2/built-in.o
                0x0000000080801728                fb_set_reboot_flag
 .text.enable_gpmc_cs_config
                0x000000008080174c       0x6c arch/arm/mach-omap2/built-in.o
                0x000000008080174c                enable_gpmc_cs_config
 .text.set_gpmc_cs0
                0x00000000808017b8       0x4c arch/arm/mach-omap2/built-in.o
                0x00000000808017b8                set_gpmc_cs0
 .text.gpmc_init
                0x0000000080801804       0x50 arch/arm/mach-omap2/built-in.o
                0x0000000080801804                gpmc_init
 .text.board_ti_is
                0x0000000080801854       0x30 board/ti/common/built-in.o
                0x0000000080801854                board_ti_is
 .text.board_ti_get_rev
                0x0000000080801884        0x8 board/ti/common/built-in.o
                0x0000000080801884                board_ti_get_rev
 .text.set_board_info_env
                0x000000008080188c       0x3c board/ti/common/built-in.o
                0x000000008080188c                set_board_info_env
 .text.do_go_exec
                0x00000000808018c8        0x8 cmd/built-in.o
                0x00000000808018c8                do_go_exec
 .text.do_go    0x00000000808018d0       0x4c cmd/built-in.o
 .text.do_bootm
                0x000000008080191c       0xa0 cmd/built-in.o
                0x000000008080191c                do_bootm
 .text.do_bootd
                0x00000000808019bc       0x18 cmd/built-in.o
                0x00000000808019bc                do_bootd
 .text.image_info
                0x00000000808019d4       0xd8 cmd/built-in.o
 .text.do_iminfo
                0x0000000080801aac       0x40 cmd/built-in.o
 .text.bootm_maybe_autostart
                0x0000000080801aec       0x4c cmd/built-in.o
                0x0000000080801aec                bootm_maybe_autostart
 .text.do_help  0x0000000080801b38       0x2c cmd/built-in.o
 .text.do_version
                0x0000000080801b64       0x30 cmd/built-in.o
 .text.blk_common_cmd
                0x0000000080801b94      0x1f0 cmd/built-in.o
                0x0000000080801b94                blk_common_cmd
 .text.source   0x0000000080801d84      0x118 cmd/built-in.o
                0x0000000080801d84                source
 .text.do_source
                0x0000000080801e9c       0x50 cmd/built-in.o
 .text.print_num
                0x0000000080801eec       0x10 cmd/built-in.o
 .text.do_bdinfo
                0x0000000080801efc       0xc4 cmd/built-in.o
 .text.efi_init_obj_list
                0x0000000080801fc0       0x28 cmd/built-in.o
 .text.do_bootefi_exec
                0x0000000080801fe8      0x27c cmd/built-in.o
 .text.do_bootefi
                0x0000000080802264       0xc8 cmd/built-in.o
 .text.efi_set_bootdev
                0x000000008080232c       0xb0 cmd/built-in.o
                0x000000008080232c                efi_set_bootdev
 .text.do_bootz
                0x00000000808023dc       0xa0 cmd/built-in.o
                0x00000000808023dc                do_bootz
 .text.do_coninfo
                0x000000008080247c       0x84 cmd/built-in.o
 .text.do_echo  0x0000000080802500       0x74 cmd/built-in.o
 .text.parse_numeric_param
                0x0000000080802574       0x1c cmd/built-in.o
 .text.parse_i2c_bus_addr
                0x0000000080802590       0x54 cmd/built-in.o
 .text.eeprom_write_enable
                0x00000000808025e4        0x4 cmd/built-in.o
                0x00000000808025e4                eeprom_write_enable
 .text.eeprom_read
                0x00000000808025e8       0x4c cmd/built-in.o
                0x00000000808025e8                eeprom_read
 .text.eeprom_write
                0x0000000080802634       0x6c cmd/built-in.o
                0x0000000080802634                eeprom_write
 .text.do_eeprom
                0x00000000808026a0      0x104 cmd/built-in.o
                0x00000000808026a0                do_eeprom
 .text.load_elf_image_shdr
                0x00000000808027a4       0x4a cmd/built-in.o
 *fill*         0x00000000808027ee        0x2 
 .text.valid_elf_image
                0x00000000808027f0       0x30 cmd/built-in.o
                0x00000000808027f0                valid_elf_image
 .text.do_bootelf
                0x0000000080802820      0x114 cmd/built-in.o
                0x0000000080802820                do_bootelf
 .text.do_bootvx
                0x0000000080802934      0x248 cmd/built-in.o
                0x0000000080802934                do_bootvx
 .text.do_exit  0x0000000080802b7c       0x20 cmd/built-in.o
 .text.do_ext4_size
                0x0000000080802b9c        0xe cmd/built-in.o
                0x0000000080802b9c                do_ext4_size
 .text.do_ext4_load
                0x0000000080802baa        0xe cmd/built-in.o
                0x0000000080802baa                do_ext4_load
 .text.do_ext4_ls
                0x0000000080802bb8        0xe cmd/built-in.o
                0x0000000080802bb8                do_ext4_ls
 .text.do_ext4_write
                0x0000000080802bc6        0xe cmd/built-in.o
                0x0000000080802bc6                do_ext4_write
 .text.do_ext2load
                0x0000000080802bd4        0xe cmd/built-in.o
                0x0000000080802bd4                do_ext2load
 .text.do_ext2ls
                0x0000000080802be2        0xe cmd/built-in.o
 .text.do_fat_size
                0x0000000080802bf0        0xe cmd/built-in.o
                0x0000000080802bf0                do_fat_size
 .text.do_fat_fsload
                0x0000000080802bfe        0xe cmd/built-in.o
                0x0000000080802bfe                do_fat_fsload
 .text.do_fat_ls
                0x0000000080802c0c        0xe cmd/built-in.o
 *fill*         0x0000000080802c1a        0x2 
 .text.do_fat_fsinfo
                0x0000000080802c1c       0x54 cmd/built-in.o
 .text.do_fat_fswrite
                0x0000000080802c70       0xbc cmd/built-in.o
 .text.fdt_valid
                0x0000000080802d2c       0x74 cmd/built-in.o
 .text.is_printable_string
                0x0000000080802da0       0x48 cmd/built-in.o
 .text.print_data
                0x0000000080802de8      0x104 cmd/built-in.o
 .text.set_working_fdt_addr
                0x0000000080802eec       0x14 cmd/built-in.o
                0x0000000080802eec                set_working_fdt_addr
 .text.do_fdt   0x0000000080802f00      0xa5c cmd/built-in.o
 .text.do_size_wrapper
                0x000000008080395c        0xe cmd/built-in.o
 *fill*         0x000000008080396a        0x2 
 .text.do_load_wrapper
                0x000000008080396c       0x40 cmd/built-in.o
 .text.do_save_wrapper
                0x00000000808039ac        0xe cmd/built-in.o
 .text.do_ls_wrapper
                0x00000000808039ba        0xe cmd/built-in.o
 .text.do_fstype_wrapper
                0x00000000808039c8        0x4 cmd/built-in.o
 .text.gpio_get_description
                0x00000000808039cc       0x78 cmd/built-in.o
 .text.do_gpio  0x0000000080803a44      0x224 cmd/built-in.o
 .text.do_i2c   0x0000000080803c68       0x3c cmd/built-in.o
 .text.i2c_get_cur_bus
                0x0000000080803ca4       0x24 cmd/built-in.o
 .text.do_i2c_bus_speed
                0x0000000080803cc8       0x64 cmd/built-in.o
 .text.do_i2c_reset
                0x0000000080803d2c       0x24 cmd/built-in.o
 .text.i2c_get_cur_bus_chip
                0x0000000080803d50       0x1e cmd/built-in.o
 *fill*         0x0000000080803d6e        0x2 
 .text.do_i2c_olen
                0x0000000080803d70       0x74 cmd/built-in.o
 .text.do_i2c_flags
                0x0000000080803de4       0x78 cmd/built-in.o
 .text.do_i2c_probe
                0x0000000080803e5c       0x74 cmd/built-in.o
 .text.do_i2c_bus_num
                0x0000000080803ed0       0x70 cmd/built-in.o
 .text.show_bus
                0x0000000080803f40       0x64 cmd/built-in.o
 .text.do_i2c_show_bus
                0x0000000080803fa4       0x6c cmd/built-in.o
 .text.get_alen.constprop.4
                0x0000000080804010       0x1e cmd/built-in.o
 *fill*         0x000000008080402e        0x2 
 .text.do_i2c_crc
                0x0000000080804030       0xe4 cmd/built-in.o
 .text.mod_i2c_mem.isra.1
                0x0000000080804114      0x15c cmd/built-in.o
 .text.do_i2c_nm
                0x0000000080804270        0x6 cmd/built-in.o
 .text.do_i2c_mm
                0x0000000080804276        0x6 cmd/built-in.o
 .text.do_i2c_md
                0x000000008080427c      0x15c cmd/built-in.o
 .text.do_i2c_read
                0x00000000808043d8       0x94 cmd/built-in.o
 .text.do_i2c_mw
                0x000000008080446c       0xc0 cmd/built-in.o
 .text.do_i2c_write
                0x000000008080452c      0x108 cmd/built-in.o
 .text.do_i2c_loop
                0x0000000080804634       0xbc cmd/built-in.o
 .text.evalexp  0x00000000808046f0       0x4a cmd/built-in.o
 .text.evalstr  0x000000008080473a       0x3c cmd/built-in.o
 *fill*         0x0000000080804776        0x2 
 .text.binary_test
                0x0000000080804778      0x128 cmd/built-in.o
 .text.do_itest
                0x00000000808048a0       0x4c cmd/built-in.o
 .text.bin_data_init
                0x00000000808048ec       0x1c cmd/built-in.o
 .text.k_data_save
                0x0000000080804908       0x34 cmd/built-in.o
 .text.k_data_restore
                0x000000008080493c       0x34 cmd/built-in.o
 .text.getcxmodem
                0x0000000080804970       0x16 cmd/built-in.o
 *fill*         0x0000000080804986        0x2 
 .text.load_serial_ymodem
                0x0000000080804988       0x90 cmd/built-in.o
 .text.bin_data_char
                0x0000000080804a18       0x1c cmd/built-in.o
 .text.chk1.constprop.1
                0x0000000080804a34       0x20 cmd/built-in.o
 .text.s1_sendpacket.constprop.2
                0x0000000080804a54       0x34 cmd/built-in.o
 .text.load_serial
                0x0000000080804a88      0x12c cmd/built-in.o
 .text.do_load_serial
                0x0000000080804bb4       0x90 cmd/built-in.o
 .text.do_load_serial_bin
                0x0000000080804c44      0x52c cmd/built-in.o
 .text.do_mem_mw
                0x0000000080805170       0x80 cmd/built-in.o
 .text.do_mem_loop
                0x00000000808051f0       0x82 cmd/built-in.o
 *fill*         0x0000000080805272        0x2 
 .text.do_mem_md
                0x0000000080805274       0xa0 cmd/built-in.o
 .text.do_mem_base
                0x0000000080805314       0x28 cmd/built-in.o
 .text.do_mem_cp
                0x000000008080533c       0x74 cmd/built-in.o
 .text.do_mem_cmp
                0x00000000808053b0       0xf8 cmd/built-in.o
 .text.do_mem_crc
                0x00000000808054a8       0x2c cmd/built-in.o
 .text.mod_mem.isra.0
                0x00000000808054d4       0xf0 cmd/built-in.o
 .text.do_mem_mm
                0x00000000808055c4        0x6 cmd/built-in.o
 .text.do_mem_nm
                0x00000000808055ca        0x6 cmd/built-in.o
 .text.extract_range
                0x00000000808055d0       0x7a cmd/built-in.o
 *fill*         0x000000008080564a        0x2 
 .text.do_mii   0x000000008080564c      0x608 cmd/built-in.o
 .text.do_mdio  0x0000000080805c54      0x300 cmd/built-in.o
 .text.do_sleep
                0x0000000080805f54       0x88 cmd/built-in.o
 .text.do_mmcops
                0x0000000080805fdc       0x78 cmd/built-in.o
 .text.init_mmc_device
                0x0000000080806054       0x34 cmd/built-in.o
 .text.do_mmc_rescan
                0x0000000080806088       0x18 cmd/built-in.o
 .text.do_mmc_hwpartition
                0x00000000808060a0      0x390 cmd/built-in.o
 .text.do_mmc_list
                0x0000000080806430        0xc cmd/built-in.o
 .text.do_mmc_dev
                0x000000008080643c       0xc8 cmd/built-in.o
 .text.do_mmc_read
                0x0000000080806504       0x98 cmd/built-in.o
 .text.do_mmc_part
                0x000000008080659c       0x38 cmd/built-in.o
 .text.do_mmc_erase
                0x00000000808065d4       0xa0 cmd/built-in.o
 .text.do_mmc_write
                0x0000000080806674       0xb0 cmd/built-in.o
 .text.do_mmcinfo
                0x0000000080806724      0x290 cmd/built-in.o
 .text.do_mmc_setdsr
                0x00000000808069b4       0x74 cmd/built-in.o
 .text.part_delall
                0x0000000080806a28       0x26 cmd/built-in.o
 .text.memsize_parse
                0x0000000080806a4e       0x48 cmd/built-in.o
 *fill*         0x0000000080806a96        0x2 
 .text.mtd_part_info
                0x0000000080806a98       0x5c cmd/built-in.o
 .text.env_get_mtdparts
                0x0000000080806af4       0x30 cmd/built-in.o
 .text.memsize_format
                0x0000000080806b24       0x6c cmd/built-in.o
 .text.index_partitions
                0x0000000080806b90       0x6c cmd/built-in.o
 .text.current_save
                0x0000000080806bfc       0x78 cmd/built-in.o
 .text.part_sort_add
                0x0000000080806c74       0xc0 cmd/built-in.o
 .text.device_del
                0x0000000080806d34       0x50 cmd/built-in.o
 .text.generate_mtdparts_save.constprop.7
                0x0000000080806d84      0x1c4 cmd/built-in.o
 .text.device_delall.constprop.9
                0x0000000080806f48       0x3c cmd/built-in.o
 .text.mtd_devices_init
                0x0000000080806f84       0x20 cmd/built-in.o
 .text.get_mtd_info.constprop.10
                0x0000000080806fa4       0x58 cmd/built-in.o
 .text.part_validate
                0x0000000080806ffc      0x24c cmd/built-in.o
 .text.device_find
                0x0000000080807248       0x2c cmd/built-in.o
                0x0000000080807248                device_find
 .text.device_parse
                0x0000000080807274      0x308 cmd/built-in.o
 .text.mtd_id_parse
                0x000000008080757c       0xa0 cmd/built-in.o
                0x000000008080757c                mtd_id_parse
 .text.find_dev_and_part
                0x000000008080761c      0x118 cmd/built-in.o
                0x000000008080761c                find_dev_and_part
 .text.mtdparts_init
                0x0000000080807734      0x444 cmd/built-in.o
                0x0000000080807734                mtdparts_init
 .text.do_chpart
                0x0000000080807b78       0x88 cmd/built-in.o
 .text.do_mtdparts
                0x0000000080807c00      0x3f0 cmd/built-in.o
 .text.set_dev  0x0000000080807ff0       0x3c cmd/built-in.o
 .text.nand_print_and_set_info
                0x000000008080802c       0xb4 cmd/built-in.o
 .text.do_nand  0x00000000808080e0      0x8d4 cmd/built-in.o
 .text.nand_load_image
                0x00000000808089b4      0x164 cmd/built-in.o
 .text.do_nandboot
                0x0000000080808b18      0x158 cmd/built-in.o
 .text.netboot_common
                0x0000000080808c70      0x1c4 cmd/built-in.o
 .text.do_bootp
                0x0000000080808e34        0x8 cmd/built-in.o
 .text.do_dhcp  0x0000000080808e3c        0x8 cmd/built-in.o
 .text.do_nfs   0x0000000080808e44        0x8 cmd/built-in.o
 .text.do_tftpb
                0x0000000080808e4c       0x26 cmd/built-in.o
                0x0000000080808e4c                do_tftpb
 *fill*         0x0000000080808e72        0x2 
 .text.do_ping  0x0000000080808e74       0x48 cmd/built-in.o
 .text.do_part_list
                0x0000000080808ebc       0xf0 cmd/built-in.o
 .text.do_part_start
                0x0000000080808fac       0x84 cmd/built-in.o
 .text.do_part_size
                0x0000000080809030       0x84 cmd/built-in.o
 .text.do_part  0x00000000808090b4       0xb0 cmd/built-in.o
 .text.eol_or_eof
                0x0000000080809164       0x12 cmd/built-in.o
 *fill*         0x0000000080809176        0x2 
 .text.do_pxe   0x0000000080809178       0x48 cmd/built-in.o
 .text.label_print
                0x00000000808091c0       0x14 cmd/built-in.o
 .text.do_get_tftp
                0x00000000808091d4       0x2c cmd/built-in.o
 .text.from_env
                0x0000000080809200       0x1c cmd/built-in.o
 .text.get_string
                0x000000008080921c       0x80 cmd/built-in.o
 .text.label_destroy
                0x000000008080929c       0x3e cmd/built-in.o
 .text.destroy_pxe_menu
                0x00000000808092da       0x36 cmd/built-in.o
 .text.get_token
                0x0000000080809310       0xa4 cmd/built-in.o
 .text.parse_sliteral
                0x00000000808093b4       0x34 cmd/built-in.o
 .text.parse_integer
                0x00000000808093e8       0x44 cmd/built-in.o
 .text.do_get_any
                0x000000008080942c       0x2c cmd/built-in.o
 .text.do_get_fat
                0x0000000080809458       0x28 cmd/built-in.o
 .text.do_get_ext2
                0x0000000080809480       0x28 cmd/built-in.o
 .text.format_mac_pxe.constprop.6
                0x00000000808094a8       0x54 cmd/built-in.o
 .text.get_relfile
                0x00000000808094fc       0xcc cmd/built-in.o
 .text.get_pxe_file
                0x00000000808095c8       0x3c cmd/built-in.o
 .text.handle_include
                0x0000000080809604       0x68 cmd/built-in.o
 .text.parse_pxefile_top
                0x000000008080966c      0x2fc cmd/built-in.o
 .text.parse_pxefile
                0x0000000080809968       0x42 cmd/built-in.o
 *fill*         0x00000000808099aa        0x2 
 .text.get_pxelinux_path
                0x00000000808099ac       0x50 cmd/built-in.o
 .text.do_pxe_get
                0x00000000808099fc       0xec cmd/built-in.o
 .text.get_relfile_envaddr
                0x0000000080809ae8       0x34 cmd/built-in.o
 .text.label_boot
                0x0000000080809b1c      0x3cc cmd/built-in.o
 .text.handle_pxe_menu
                0x0000000080809ee8       0xd4 cmd/built-in.o
 .text.do_pxe_boot
                0x0000000080809fbc       0x94 cmd/built-in.o
 .text.do_sysboot
                0x000000008080a050      0x13c cmd/built-in.o
 .text.bytes_per_second
                0x000000008080a18c       0x34 cmd/built-in.o
 .text.do_spi_flash
                0x000000008080a1c0      0x55c cmd/built-in.o
 .text.do_spi   0x000000008080a71c      0x1b0 cmd/built-in.o
                0x000000008080a71c                do_spi
 .text.do_time  0x000000008080a8cc       0x98 cmd/built-in.o
 .text.do_false
                0x000000008080a964        0x4 cmd/built-in.o
 .text.do_true  0x000000008080a968        0x4 cmd/built-in.o
 .text.do_test  0x000000008080a96c      0x208 cmd/built-in.o
 .text.usb_get_class_desc
                0x000000008080ab74       0x74 cmd/built-in.o
 .text.usb_display_class_sub
                0x000000008080abe8       0xf4 cmd/built-in.o
 .text.usb_display_desc
                0x000000008080acdc       0xf4 cmd/built-in.o
 .text.usb_show_tree_graph
                0x000000008080add0      0x148 cmd/built-in.o
 .text.usb_show_subtree
                0x000000008080af18       0x1c cmd/built-in.o
 .text.usb_for_each_root_dev
                0x000000008080af34       0x3c cmd/built-in.o
 .text.usb_display_string
                0x000000008080af70       0x2c cmd/built-in.o
 .text.usb_display_config
                0x000000008080af9c      0x1b4 cmd/built-in.o
 .text.usb_show_info
                0x000000008080b150       0x36 cmd/built-in.o
 .text.usb_find_device
                0x000000008080b186       0x64 cmd/built-in.o
 *fill*         0x000000008080b1ea        0x2 
 .text.do_usbboot
                0x000000008080b1ec        0xc cmd/built-in.o
 .text.do_usb_start
                0x000000008080b1f8       0x20 cmd/built-in.o
 .text.usb_show_tree
                0x000000008080b218        0xc cmd/built-in.o
                0x000000008080b218                usb_show_tree
 .text.do_usb   0x000000008080b224      0x298 cmd/built-in.o
 .text.common_diskboot
                0x000000008080b4bc      0x1c8 cmd/built-in.o
                0x000000008080b4bc                common_diskboot
 .text.do_fastboot
                0x000000008080b684       0x84 cmd/built-in.o
 .text.do_imgextract
                0x000000008080b708      0x28c cmd/built-in.o
 .text.do_spl   0x000000008080b994      0x144 cmd/built-in.o
 .text.do_dfu   0x000000008080bad8       0x54 cmd/built-in.o
 .text.extract_val
                0x000000008080bb2c       0x5c cmd/built-in.o
 .text.extract_env
                0x000000008080bb88       0xa0 cmd/built-in.o
 .text.set_gpt_info.isra.1.constprop.2
                0x000000008080bc28      0x33c cmd/built-in.o
 .text.do_gpt   0x000000008080bf64      0x218 cmd/built-in.o
 .text.do_env_delete
                0x000000008080c17c       0x68 cmd/built-in.o
 .text.do_env_exists
                0x000000008080c1e4       0x40 cmd/built-in.o
 .text.do_env_save
                0x000000008080c224       0x20 cmd/built-in.o
 .text.do_env   0x000000008080c244       0x3c cmd/built-in.o
 .text.env_print
                0x000000008080c280       0x78 cmd/built-in.o
 .text.do_env_print
                0x000000008080c2f8       0x7c cmd/built-in.o
 .text.do_env_import
                0x000000008080c374      0x178 cmd/built-in.o
 .text.do_env_default
                0x000000008080c4ec       0x50 cmd/built-in.o
 .text._do_env_set.isra.0
                0x000000008080c53c      0x128 cmd/built-in.o
 .text.do_env_set
                0x000000008080c664       0x14 cmd/built-in.o
 .text.do_env_ask
                0x000000008080c678       0xfc cmd/built-in.o
                0x000000008080c678                do_env_ask
 .text.get_env_id
                0x000000008080c774        0xc cmd/built-in.o
                0x000000008080c774                get_env_id
 .text.env_set  0x000000008080c780       0x3c cmd/built-in.o
                0x000000008080c780                env_set
 .text.env_set_ulong
                0x000000008080c7bc       0x16 cmd/built-in.o
                0x000000008080c7bc                env_set_ulong
 *fill*         0x000000008080c7d2        0x2 
 .text.env_set_hex
                0x000000008080c7d4       0x20 cmd/built-in.o
                0x000000008080c7d4                env_set_hex
 .text.do_env_export
                0x000000008080c7f4      0x150 cmd/built-in.o
 .text.envmatch
                0x000000008080c944       0x3a cmd/built-in.o
                0x000000008080c944                envmatch
 *fill*         0x000000008080c97e        0x2 
 .text.env_get_f
                0x000000008080c980       0x88 cmd/built-in.o
                0x000000008080c980                env_get_f
 .text.env_get  0x000000008080ca08       0x54 cmd/built-in.o
                0x000000008080ca08                env_get
 .text.env_get_hex
                0x000000008080ca5c       0x22 cmd/built-in.o
                0x000000008080ca5c                env_get_hex
 .text.env_get_ulong
                0x000000008080ca7e       0x1c cmd/built-in.o
                0x000000008080ca7e                env_get_ulong
 *fill*         0x000000008080ca9a        0x2 
 .text.do_env_edit.part.2
                0x000000008080ca9c       0x70 cmd/built-in.o
 .text.do_env_edit
                0x000000008080cb0c       0x1c cmd/built-in.o
 .text.board_init_f_alloc_reserve
                0x000000008080cb28        0xa common/built-in.o
                0x000000008080cb28                board_init_f_alloc_reserve
 .text.board_init_f_init_reserve
                0x000000008080cb32       0x14 common/built-in.o
                0x000000008080cb32                board_init_f_init_reserve
 .text.show_boot_progress
                0x000000008080cb46        0x4 common/built-in.o
                0x000000008080cb46                show_boot_progress
 *fill*         0x000000008080cb4a        0x2 
 .text.main_loop
                0x000000008080cb4c       0x48 common/built-in.o
                0x000000008080cb4c                main_loop
 .text.mdelay   0x000000008080cb94       0x14 common/built-in.o
 .text.dummy    0x000000008080cba8        0x2 common/built-in.o
 .text.get_version
                0x000000008080cbaa        0x4 common/built-in.o
                0x000000008080cbaa                get_version
 *fill*         0x000000008080cbae        0x2 
 .text.jumptable_init
                0x000000008080cbb0      0x198 common/built-in.o
                0x000000008080cbb0                jumptable_init
 .text.hash_finish_crc32
                0x000000008080cd48       0x1c common/built-in.o
 .text.hash_update_crc32
                0x000000008080cd64       0x14 common/built-in.o
 .text.hash_init_crc32
                0x000000008080cd78       0x14 common/built-in.o
 .text.hash_finish_sha256
                0x000000008080cd8c       0x22 common/built-in.o
 .text.hash_update_sha256
                0x000000008080cdae       0x10 common/built-in.o
 .text.hash_init_sha256
                0x000000008080cdbe       0x16 common/built-in.o
 .text.hash_finish_sha1
                0x000000008080cdd4       0x22 common/built-in.o
 .text.hash_update_sha1
                0x000000008080cdf6       0x10 common/built-in.o
 .text.hash_init_sha1
                0x000000008080ce06       0x16 common/built-in.o
 .text.hash_lookup_algo
                0x000000008080ce1c       0x3c common/built-in.o
                0x000000008080ce1c                hash_lookup_algo
 .text.hash_command
                0x000000008080ce58      0x124 common/built-in.o
                0x000000008080ce58                hash_command
 .text.b_reset  0x000000008080cf7c        0xe common/built-in.o
 .text.static_get
                0x000000008080cf8a       0x12 common/built-in.o
 .text.file_peek
                0x000000008080cf9c        0x6 common/built-in.o
 *fill*         0x000000008080cfa2        0x2 
 .text.mapset   0x000000008080cfa4       0x14 common/built-in.o
 .text.syntax_err
                0x000000008080cfb8        0xc common/built-in.o
 .text.free_pipe_list
                0x000000008080cfc4       0x98 common/built-in.o
 .text.xmalloc  0x000000008080d05c       0x18 common/built-in.o
 .text.new_pipe
                0x000000008080d074       0x16 common/built-in.o
 *fill*         0x000000008080d08a        0x2 
 .text.xrealloc
                0x000000008080d08c       0x18 common/built-in.o
 .text.done_command
                0x000000008080d0a4       0x42 common/built-in.o
 .text.done_pipe
                0x000000008080d0e6       0x2a common/built-in.o
 .text.done_word
                0x000000008080d110      0x1d0 common/built-in.o
 .text.do_showvar
                0x000000008080d2e0       0x98 common/built-in.o
 .text.is_assignment
                0x000000008080d378       0x2c common/built-in.o
 .text.file_get
                0x000000008080d3a4      0x140 common/built-in.o
 .text.b_addchr
                0x000000008080d4e4       0x42 common/built-in.o
 *fill*         0x000000008080d526        0x2 
 .text.b_addqchr
                0x000000008080d528       0x30 common/built-in.o
 .text.static_peek
                0x000000008080d558        0x6 common/built-in.o
 *fill*         0x000000008080d55e        0x2 
 .text.get_local_var
                0x000000008080d560       0x58 common/built-in.o
                0x000000008080d560                get_local_var
 .text.set_local_var
                0x000000008080d5b8      0x10c common/built-in.o
                0x000000008080d5b8                set_local_var
 .text.insert_var_value_sub
                0x000000008080d6c4      0x1c4 common/built-in.o
 .text.parse_string_outer
                0x000000008080d888       0x90 common/built-in.o
                0x000000008080d888                parse_string_outer
 .text.run_list_real
                0x000000008080d918      0x4d4 common/built-in.o
 .text.parse_stream_outer
                0x000000008080ddec      0x434 common/built-in.o
 .text.parse_file_outer
                0x000000008080e220       0x2c common/built-in.o
                0x000000008080e220                parse_file_outer
 .text.u_boot_hush_start
                0x000000008080e24c       0x30 common/built-in.o
                0x000000008080e24c                u_boot_hush_start
 .text.bootdelay_process
                0x000000008080e27c       0xc8 common/built-in.o
                0x000000008080e27c                bootdelay_process
 .text.autoboot_command
                0x000000008080e344       0xa4 common/built-in.o
                0x000000008080e344                autoboot_command
 .text.setup_mon_len
                0x000000008080e3e8       0x18 common/built-in.o
 .text.reserve_round_4k
                0x000000008080e400       0x14 common/built-in.o
 .text.reserve_mmu
                0x000000008080e414       0x2e common/built-in.o
                0x000000008080e414                reserve_mmu
 .text.reserve_uboot
                0x000000008080e442       0x2a common/built-in.o
 .text.reserve_malloc
                0x000000008080e46c       0x14 common/built-in.o
 .text.setup_machine
                0x000000008080e480        0xe common/built-in.o
 .text.reserve_global_data
                0x000000008080e48e       0x16 common/built-in.o
 .text.reserve_fdt
                0x000000008080e4a4       0x3a common/built-in.o
 .text.initf_console_record
                0x000000008080e4de        0x4 common/built-in.o
 .text.init_func_watchdog_reset
                0x000000008080e4e2        0xa common/built-in.o
                0x000000008080e4e2                init_func_watchdog_reset
 .text.setup_reloc
                0x000000008080e4ec       0x26 common/built-in.o
 .text.reloc_fdt
                0x000000008080e512       0x2c common/built-in.o
 .text.reserve_board
                0x000000008080e53e       0x28 common/built-in.o
 *fill*         0x000000008080e566        0x2 
 .text.announce_dram_init
                0x000000008080e568       0x10 common/built-in.o
 .text.init_baud_rate
                0x000000008080e578       0x1c common/built-in.o
 .text.initf_dm
                0x000000008080e594        0x6 common/built-in.o
 .text.initf_bootstage
                0x000000008080e59a        0xc common/built-in.o
 .text.reserve_arch
                0x000000008080e5a6        0x4 common/built-in.o
                0x000000008080e5a6                reserve_arch
 .text.display_text_info
                0x000000008080e5aa        0x4 common/built-in.o
 .text.arch_cpu_init
                0x000000008080e5ae        0x4 common/built-in.o
                0x000000008080e5ae                arch_cpu_init
 .text.mach_cpu_init
                0x000000008080e5b2        0x4 common/built-in.o
                0x000000008080e5b2                mach_cpu_init
 .text.reserve_video
                0x000000008080e5b6        0x4 common/built-in.o
 .text.reserve_trace
                0x000000008080e5ba        0x4 common/built-in.o
 .text.reserve_bootstage
                0x000000008080e5be        0x4 common/built-in.o
 .text.display_new_sp
                0x000000008080e5c2        0x4 common/built-in.o
 .text.reloc_bootstage
                0x000000008080e5c6        0x4 common/built-in.o
 .text.init_func_watchdog_init
                0x000000008080e5ca        0xa common/built-in.o
 .text.coloured_LED_init
                0x000000008080e5d4        0x2 common/built-in.o
                0x000000008080e5d4                coloured_LED_init
 .text.red_led_on
                0x000000008080e5d6        0x2 common/built-in.o
                0x000000008080e5d6                red_led_on
 .text.board_add_ram_info
                0x000000008080e5d8        0x2 common/built-in.o
                0x000000008080e5d8                board_add_ram_info
 *fill*         0x000000008080e5da        0x2 
 .text.show_dram_config
                0x000000008080e5dc       0x28 common/built-in.o
 .text.board_get_usable_ram_top
                0x000000008080e604       0x10 common/built-in.o
                0x000000008080e604                board_get_usable_ram_top
 .text.setup_dest_addr
                0x000000008080e614       0x30 common/built-in.o
 .text.reserve_stacks
                0x000000008080e644       0x1a common/built-in.o
 *fill*         0x000000008080e65e        0x2 
 .text.board_init_f
                0x000000008080e660       0x20 common/built-in.o
                0x000000008080e660                board_init_f
 .text.bootstage_relocate
                0x000000008080e680        0x4 common/built-in.o
 .text.initr_reloc
                0x000000008080e684       0x14 common/built-in.o
 .text.power_init_board
                0x000000008080e698        0x4 common/built-in.o
                0x000000008080e698                power_init_board
 .text.initr_announce
                0x000000008080e69c        0x4 common/built-in.o
 .text.run_main_loop
                0x000000008080e6a0        0x8 common/built-in.o
 .text.initr_net
                0x000000008080e6a8       0x14 common/built-in.o
 .text.initr_ethaddr
                0x000000008080e6bc       0x18 common/built-in.o
 .text.initr_enable_interrupts
                0x000000008080e6d4        0xa common/built-in.o
 .text.initr_jumptable
                0x000000008080e6de        0xa common/built-in.o
 .text.initr_env
                0x000000008080e6e8       0x48 common/built-in.o
 .text.initr_mmc
                0x000000008080e730       0x18 common/built-in.o
 .text.initr_nand
                0x000000008080e748       0x24 common/built-in.o
 .text.initr_serial
                0x000000008080e76c        0xa common/built-in.o
 .text.initr_dm
                0x000000008080e776       0x16 common/built-in.o
 .text.initr_bootstage
                0x000000008080e78c        0xc common/built-in.o
 .text.initr_malloc
                0x000000008080e798       0x1c common/built-in.o
 .text.initr_reloc_global_data
                0x000000008080e7b4       0x28 common/built-in.o
 .text.initr_caches
                0x000000008080e7dc        0xa common/built-in.o
 .text.initr_console_record
                0x000000008080e7e6        0x4 common/built-in.o
 .text.initr_trace
                0x000000008080e7ea        0x4 common/built-in.o
 .text.initr_barrier
                0x000000008080e7ee        0x4 common/built-in.o
 .text.cpu_secondary_init_r
                0x000000008080e7f2        0x2 common/built-in.o
                0x000000008080e7f2                cpu_secondary_init_r
 .text.initr_secondary_cpu
                0x000000008080e7f4        0xa common/built-in.o
 *fill*         0x000000008080e7fe        0x2 
 .text.board_init_r
                0x000000008080e800       0x10 common/built-in.o
                0x000000008080e800                board_init_r
 .text.checkboard
                0x000000008080e810        0x4 common/built-in.o
                0x000000008080e810                checkboard
 .text.show_board_info
                0x000000008080e814       0x2c common/built-in.o
                0x000000008080e814                show_board_info
 .text.bootm_find_images
                0x000000008080e840       0x88 common/built-in.o
                0x000000008080e840                bootm_find_images
 .text.bootm_decomp_image
                0x000000008080e8c8      0x100 common/built-in.o
                0x000000008080e8c8                bootm_decomp_image
 .text.bootm_disable_interrupts
                0x000000008080e9c8       0x10 common/built-in.o
                0x000000008080e9c8                bootm_disable_interrupts
 .text.do_bootm_states
                0x000000008080e9d8      0x67c common/built-in.o
                0x000000008080e9d8                do_bootm_states
 .text.copy_args
                0x000000008080f054       0x38 common/built-in.o
 .text.do_bootm_rtems
                0x000000008080f08c       0x30 common/built-in.o
 .text.do_bootm_plan9
                0x000000008080f0bc       0x70 common/built-in.o
 .text.do_bootm_standalone
                0x000000008080f12c       0x40 common/built-in.o
 .text.do_bootm_qnxelf
                0x000000008080f16c       0x50 common/built-in.o
 .text.do_bootm_netbsd
                0x000000008080f1bc       0xac common/built-in.o
 .text.do_bootvx_fdt
                0x000000008080f268       0xcc common/built-in.o
                0x000000008080f268                do_bootvx_fdt
 .text.do_bootm_vxworks
                0x000000008080f334       0x1a common/built-in.o
 .text.arch_preboot_os
                0x000000008080f34e        0x2 common/built-in.o
                0x000000008080f34e                arch_preboot_os
 .text.boot_selected_os
                0x000000008080f350       0x3a common/built-in.o
                0x000000008080f350                boot_selected_os
 *fill*         0x000000008080f38a        0x2 
 .text.bootm_os_get_boot_func
                0x000000008080f38c        0xc common/built-in.o
                0x000000008080f38c                bootm_os_get_boot_func
 .text.of_bus_default_map
                0x000000008080f398       0xa4 common/built-in.o
 .text.fdt_support_default_count_cells
                0x000000008080f43c       0x34 common/built-in.o
                0x000000008080f43c                fdt_support_default_count_cells
 .text.of_bus_default_translate
                0x000000008080f470       0x78 common/built-in.o
 .text.fdt_find_and_setprop
                0x000000008080f4e8       0x46 common/built-in.o
                0x000000008080f4e8                fdt_find_and_setprop
 *fill*         0x000000008080f52e        0x2 
 .text.fdt_find_or_add_subnode
                0x000000008080f530       0x40 common/built-in.o
                0x000000008080f530                fdt_find_or_add_subnode
 .text.fdt_root
                0x000000008080f570       0x60 common/built-in.o
                0x000000008080f570                fdt_root
 .text.fdt_initrd
                0x000000008080f5d0      0x128 common/built-in.o
                0x000000008080f5d0                fdt_initrd
 .text.fdt_chosen
                0x000000008080f6f8       0x6c common/built-in.o
                0x000000008080f6f8                fdt_chosen
 .text.do_fixup_by_path
                0x000000008080f764       0x34 common/built-in.o
                0x000000008080f764                do_fixup_by_path
 .text.fdt_fixup_memory_banks
                0x000000008080f798      0x128 common/built-in.o
                0x000000008080f798                fdt_fixup_memory_banks
 .text.fdt_fixup_memory
                0x000000008080f8c0       0x16 common/built-in.o
                0x000000008080f8c0                fdt_fixup_memory
 *fill*         0x000000008080f8d6        0x2 
 .text.fdt_fixup_ethernet
                0x000000008080f8d8      0x10c common/built-in.o
                0x000000008080f8d8                fdt_fixup_ethernet
 .text.fdt_shrink_to_minimum
                0x000000008080f9e4       0x88 common/built-in.o
                0x000000008080f9e4                fdt_shrink_to_minimum
 .text.fdt_translate_address
                0x000000008080fa6c      0x18c common/built-in.o
                0x000000008080fa6c                fdt_translate_address
 .text.fdt_overlay_apply_verbose
                0x000000008080fbf8       0x4c common/built-in.o
                0x000000008080fbf8                fdt_overlay_apply_verbose
 .text.miiphy_get_dev_by_name
                0x000000008080fc44       0x34 common/built-in.o
                0x000000008080fc44                miiphy_get_dev_by_name
 .text.miiphy_init
                0x000000008080fc78       0x18 common/built-in.o
                0x000000008080fc78                miiphy_init
 .text.mdio_alloc
                0x000000008080fc90       0x1c common/built-in.o
                0x000000008080fc90                mdio_alloc
 .text.mdio_register
                0x000000008080fcac       0x50 common/built-in.o
                0x000000008080fcac                mdio_register
 .text.mdio_list_devices
                0x000000008080fcfc       0x78 common/built-in.o
                0x000000008080fcfc                mdio_list_devices
 .text.miiphy_set_current_dev
                0x000000008080fd74       0x28 common/built-in.o
                0x000000008080fd74                miiphy_set_current_dev
 .text.miiphy_get_active_dev
                0x000000008080fd9c       0x30 common/built-in.o
 .text.mdio_get_current_dev
                0x000000008080fdcc        0xc common/built-in.o
                0x000000008080fdcc                mdio_get_current_dev
 .text.mdio_phydev_for_ethname
                0x000000008080fdd8       0x54 common/built-in.o
                0x000000008080fdd8                mdio_phydev_for_ethname
 .text.miiphy_get_current_dev
                0x000000008080fe2c       0x10 common/built-in.o
                0x000000008080fe2c                miiphy_get_current_dev
 .text.miiphy_read
                0x000000008080fe3c       0x28 common/built-in.o
                0x000000008080fe3c                miiphy_read
 .text.miiphy_write
                0x000000008080fe64       0x24 common/built-in.o
                0x000000008080fe64                miiphy_write
 .text.miiphy_listdev
                0x000000008080fe88       0x54 common/built-in.o
                0x000000008080fe88                miiphy_listdev
 .text.miiphy_info
                0x000000008080fedc       0x5c common/built-in.o
                0x000000008080fedc                miiphy_info
 .text.miiphy_is_1000base_x
                0x000000008080ff38       0x30 common/built-in.o
                0x000000008080ff38                miiphy_is_1000base_x
 .text.miiphy_speed
                0x000000008080ff68       0xb8 common/built-in.o
                0x000000008080ff68                miiphy_speed
 .text.miiphy_duplex
                0x0000000080810020       0xd0 common/built-in.o
                0x0000000080810020                miiphy_duplex
 .text.usb_set_maxpacket_ep
                0x00000000808100f0       0x56 common/built-in.o
 .text.usb_control_msg
                0x0000000080810146       0x6e common/built-in.o
                0x0000000080810146                usb_control_msg
 .text.usb_get_descriptor
                0x00000000808101b4       0x36 common/built-in.o
 *fill*         0x00000000808101ea        0x2 
 .text.get_descriptor_len
                0x00000000808101ec       0x60 common/built-in.o
 .text.usb_setup_descriptor
                0x000000008081024c       0x84 common/built-in.o
 .text.usb_get_string
                0x00000000808102d0       0x50 common/built-in.o
 .text.usb_string_sub
                0x0000000080810320       0x94 common/built-in.o
 .text.usb_bulk_msg
                0x00000000808103b4       0x48 common/built-in.o
                0x00000000808103b4                usb_bulk_msg
 .text.usb_maxpacket
                0x00000000808103fc       0x1a common/built-in.o
                0x00000000808103fc                usb_maxpacket
 .text.usb_clear_halt
                0x0000000080810416       0x5c common/built-in.o
                0x0000000080810416                usb_clear_halt
 *fill*         0x0000000080810472        0x2 
 .text.usb_get_configuration_len
                0x0000000080810474       0x50 common/built-in.o
                0x0000000080810474                usb_get_configuration_len
 .text.usb_get_configuration_no
                0x00000000808104c4       0x1c common/built-in.o
                0x00000000808104c4                usb_get_configuration_no
 .text.usb_set_interface
                0x00000000808104e0       0x78 common/built-in.o
                0x00000000808104e0                usb_set_interface
 .text.usb_string
                0x0000000080810558       0x9c common/built-in.o
                0x0000000080810558                usb_string
 .text.usb_select_config
                0x00000000808105f4      0x318 common/built-in.o
                0x00000000808105f4                usb_select_config
 .text.usb_setup_device
                0x000000008081090c       0xa8 common/built-in.o
                0x000000008081090c                usb_setup_device
 .text.board_usb_init
                0x00000000808109b4        0x4 common/built-in.o
                0x00000000808109b4                board_usb_init
 .text.board_usb_cleanup
                0x00000000808109b8        0x4 common/built-in.o
                0x00000000808109b8                board_usb_cleanup
 .text.usb_device_has_child_on_port
                0x00000000808109bc        0x4 common/built-in.o
                0x00000000808109bc                usb_device_has_child_on_port
 .text.usb_find_usb2_hub_address_port
                0x00000000808109c0       0x4c common/built-in.o
                0x00000000808109c0                usb_find_usb2_hub_address_port
 .text.usb_set_port_feature
                0x0000000080810a0c       0x2e common/built-in.o
 .text.usb_clear_port_feature
                0x0000000080810a3a       0x2e common/built-in.o
 .text.usb_get_hub_descriptor
                0x0000000080810a68       0x42 common/built-in.o
 .text.usb_hub_reset_devices
                0x0000000080810aaa        0x2 common/built-in.o
                0x0000000080810aaa                usb_hub_reset_devices
 .text.usb_hub_is_root_hub
                0x0000000080810aac       0x10 common/built-in.o
                0x0000000080810aac                usb_hub_is_root_hub
 .text.usb_get_port_status
                0x0000000080810abc       0x70 common/built-in.o
                0x0000000080810abc                usb_get_port_status
 .text.usb_hub_port_connect_change
                0x0000000080810b2c       0xf8 common/built-in.o
                0x0000000080810b2c                usb_hub_port_connect_change
 .text.usb_hub_configure
                0x0000000080810c24      0x3f0 common/built-in.o
 .text.usb_hub_scan
                0x0000000080811014        0xe common/built-in.o
                0x0000000080811014                usb_hub_scan
 .text.usb_hub_post_probe
                0x0000000080811022        0x4 common/built-in.o
 .text.usb_stor_irq
                0x0000000080811026       0x10 common/built-in.o
 .text.usb_stor_BBB_reset
                0x0000000080811036       0xac common/built-in.o
 *fill*         0x00000000808110e2        0x2 
 .text.usb_stor_CB_reset
                0x00000000808110e4       0x90 common/built-in.o
 .text.usb_stor_BBB_clear_endpt_stall.isra.0
                0x0000000080811174       0x2c common/built-in.o
 .text.usb_stor_BBB_transport
                0x00000000808111a0      0x1b4 common/built-in.o
 .text.usb_stor_CB_comdat
                0x0000000080811354      0x150 common/built-in.o
 .text.usb_stor_CBI_get_status.isra.2
                0x00000000808114a4       0x88 common/built-in.o
 .text.usb_stor_CB_transport
                0x000000008081152c      0x168 common/built-in.o
 .text.usb_request_sense.constprop.11
                0x0000000080811694       0x4c common/built-in.o
 .text.usb_stor_read
                0x00000000808116e0       0xfc common/built-in.o
 .text.usb_stor_write
                0x00000000808117dc       0xfc common/built-in.o
 .text.usb_stor_info
                0x00000000808118d8       0x4c common/built-in.o
                0x00000000808118d8                usb_stor_info
 .text.usb_stor_reset
                0x0000000080811924        0xc common/built-in.o
                0x0000000080811924                usb_stor_reset
 .text.usb_stor_scan
                0x0000000080811930       0x30 common/built-in.o
                0x0000000080811930                usb_stor_scan
 .text.usb_storage_probe
                0x0000000080811960      0x188 common/built-in.o
                0x0000000080811960                usb_storage_probe
 .text.usb_stor_get_info
                0x0000000080811ae8      0x234 common/built-in.o
                0x0000000080811ae8                usb_stor_get_info
 .text.usb_mass_storage_probe
                0x0000000080811d1c      0x120 common/built-in.o
 .text.menu_display_statusline
                0x0000000080811e3c        0x2 common/built-in.o
                0x0000000080811e3c                menu_display_statusline
 .text.menu_default_set
                0x0000000080811e3e       0x52 common/built-in.o
                0x0000000080811e3e                menu_default_set
 .text.menu_get_choice
                0x0000000080811e90      0x128 common/built-in.o
                0x0000000080811e90                menu_get_choice
 .text.menu_item_add
                0x0000000080811fb8       0x84 common/built-in.o
                0x0000000080811fb8                menu_item_add
 .text.menu_create
                0x000000008081203c       0x52 common/built-in.o
                0x000000008081203c                menu_create
 .text.menu_destroy
                0x000000008081208e       0x44 common/built-in.o
                0x000000008081208e                menu_destroy
 *fill*         0x00000000808120d2        0x2 
 .text.delete_char.part.0
                0x00000000808120d4       0x88 common/built-in.o
 .text.cread_add_char
                0x000000008081215c       0x80 common/built-in.o
 .text.cli_readline_into_buffer
                0x00000000808121dc      0x668 common/built-in.o
                0x00000000808121dc                cli_readline_into_buffer
 .text.cli_readline
                0x0000000080812844       0x10 common/built-in.o
                0x0000000080812844                cli_readline
 .text.cli_simple_process_macros
                0x0000000080812854      0x124 common/built-in.o
                0x0000000080812854                cli_simple_process_macros
 .text.console_setfile
                0x0000000080812978       0x74 common/built-in.o
 .text.putc     0x00000000808129ec       0x24 common/built-in.o
                0x00000000808129ec                putc
 .text.puts     0x0000000080812a10       0x24 common/built-in.o
                0x0000000080812a10                puts
 .text.fgetc    0x0000000080812a34       0x18 common/built-in.o
                0x0000000080812a34                fgetc
 .text.getc     0x0000000080812a4c       0x1a common/built-in.o
                0x0000000080812a4c                getc
 *fill*         0x0000000080812a66        0x2 
 .text.ftstc    0x0000000080812a68       0x18 common/built-in.o
                0x0000000080812a68                ftstc
 .text.tstc     0x0000000080812a80       0x1a common/built-in.o
                0x0000000080812a80                tstc
 *fill*         0x0000000080812a9a        0x2 
 .text.fputs    0x0000000080812a9c       0x14 common/built-in.o
                0x0000000080812a9c                fputs
 .text.ctrlc    0x0000000080812ab0       0x38 common/built-in.o
                0x0000000080812ab0                ctrlc
 .text.confirm_yesno
                0x0000000080812ae8       0x80 common/built-in.o
                0x0000000080812ae8                confirm_yesno
 .text.disable_ctrlc
                0x0000000080812b68       0x10 common/built-in.o
                0x0000000080812b68                disable_ctrlc
 .text.had_ctrlc
                0x0000000080812b78        0xc common/built-in.o
                0x0000000080812b78                had_ctrlc
 .text.clear_ctrlc
                0x0000000080812b84        0xc common/built-in.o
                0x0000000080812b84                clear_ctrlc
 .text.search_device
                0x0000000080812b90       0x16 common/built-in.o
                0x0000000080812b90                search_device
 .text.console_assign
                0x0000000080812ba6       0x2a common/built-in.o
                0x0000000080812ba6                console_assign
 .text.on_console
                0x0000000080812bd0       0x6c common/built-in.o
 .text.console_init_f
                0x0000000080812c3c        0xa common/built-in.o
                0x0000000080812c3c                console_init_f
 *fill*         0x0000000080812c46        0x2 
 .text.console_init_r
                0x0000000080812c48       0x8c common/built-in.o
                0x0000000080812c48                console_init_r
 .text.sbrk     0x0000000080812cd4       0x40 common/built-in.o
                0x0000000080812cd4                sbrk
 .text.mem_malloc_init
                0x0000000080812d14       0x28 common/built-in.o
                0x0000000080812d14                mem_malloc_init
 .text.malloc_trim
                0x0000000080812d3c       0x84 common/built-in.o
                0x0000000080812d3c                malloc_trim
 .text.free     0x0000000080812dc0      0x164 common/built-in.o
                0x0000000080812dc0                free
 .text.malloc   0x0000000080812f24      0x400 common/built-in.o
                0x0000000080812f24                malloc
 .text.calloc   0x0000000080813324       0xb8 common/built-in.o
                0x0000000080813324                calloc
 .text.realloc  0x00000000808133dc      0x2f0 common/built-in.o
                0x00000000808133dc                realloc
 .text.memalign
                0x00000000808136cc      0x108 common/built-in.o
                0x00000000808136cc                memalign
 .text.initf_malloc
                0x00000000808137d4       0x14 common/built-in.o
                0x00000000808137d4                initf_malloc
 .text.malloc_simple
                0x00000000808137e8       0x28 common/built-in.o
                0x00000000808137e8                malloc_simple
 .text.on_loadaddr
                0x0000000080813810       0x20 common/built-in.o
 .text.image_check_hcrc
                0x0000000080813830       0x2a common/built-in.o
                0x0000000080813830                image_check_hcrc
 .text.image_check_dcrc
                0x000000008081385a       0x22 common/built-in.o
                0x000000008081385a                image_check_dcrc
 .text.image_multi_count
                0x000000008081387c       0x12 common/built-in.o
                0x000000008081387c                image_multi_count
 .text.image_multi_getimg
                0x000000008081388e       0x4c common/built-in.o
                0x000000008081388e                image_multi_getimg
 *fill*         0x00000000808138da        0x2 
 .text.env_get_bootm_low
                0x00000000808138dc       0x20 common/built-in.o
                0x00000000808138dc                env_get_bootm_low
 .text.env_get_bootm_size
                0x00000000808138fc       0x44 common/built-in.o
                0x00000000808138fc                env_get_bootm_size
 .text.env_get_bootm_mapsize
                0x0000000080813940       0x20 common/built-in.o
                0x0000000080813940                env_get_bootm_mapsize
 .text.memmove_wd
                0x0000000080813960       0x4c common/built-in.o
                0x0000000080813960                memmove_wd
 .text.genimg_print_size
                0x00000000808139ac       0x24 common/built-in.o
                0x00000000808139ac                genimg_print_size
 .text.genimg_print_time
                0x00000000808139d0       0x2c common/built-in.o
                0x00000000808139d0                genimg_print_time
 .text.get_table_entry
                0x00000000808139fc       0x12 common/built-in.o
                0x00000000808139fc                get_table_entry
 .text.get_table_entry_name
                0x0000000080813a0e       0x12 common/built-in.o
                0x0000000080813a0e                get_table_entry_name
 .text.genimg_get_os_name
                0x0000000080813a20       0x14 common/built-in.o
                0x0000000080813a20                genimg_get_os_name
 .text.genimg_get_arch_name
                0x0000000080813a34       0x14 common/built-in.o
                0x0000000080813a34                genimg_get_arch_name
 .text.genimg_get_type_name
                0x0000000080813a48       0x14 common/built-in.o
                0x0000000080813a48                genimg_get_type_name
 .text.genimg_get_comp_name
                0x0000000080813a5c       0x14 common/built-in.o
                0x0000000080813a5c                genimg_get_comp_name
 .text.image_print_contents
                0x0000000080813a70      0x128 common/built-in.o
                0x0000000080813a70                image_print_contents
 .text.get_table_entry_id
                0x0000000080813b98       0x26 common/built-in.o
                0x0000000080813b98                get_table_entry_id
 *fill*         0x0000000080813bbe        0x2 
 .text.genimg_get_os_id
                0x0000000080813bc0       0x14 common/built-in.o
                0x0000000080813bc0                genimg_get_os_id
 .text.genimg_get_arch_id
                0x0000000080813bd4       0x14 common/built-in.o
                0x0000000080813bd4                genimg_get_arch_id
 .text.genimg_get_type_id
                0x0000000080813be8       0x14 common/built-in.o
                0x0000000080813be8                genimg_get_type_id
 .text.genimg_get_comp_id
                0x0000000080813bfc       0x14 common/built-in.o
                0x0000000080813bfc                genimg_get_comp_id
 .text.genimg_get_kernel_addr_fit
                0x0000000080813c10       0x44 common/built-in.o
                0x0000000080813c10                genimg_get_kernel_addr_fit
 .text.genimg_get_kernel_addr
                0x0000000080813c54       0x18 common/built-in.o
                0x0000000080813c54                genimg_get_kernel_addr
 .text.genimg_get_format
                0x0000000080813c6c       0x30 common/built-in.o
                0x0000000080813c6c                genimg_get_format
 .text.genimg_has_config
                0x0000000080813c9c        0xa common/built-in.o
                0x0000000080813c9c                genimg_has_config
 *fill*         0x0000000080813ca6        0x2 
 .text.boot_get_ramdisk
                0x0000000080813ca8      0x270 common/built-in.o
                0x0000000080813ca8                boot_get_ramdisk
 .text.boot_ramdisk_high
                0x0000000080813f18       0xc8 common/built-in.o
                0x0000000080813f18                boot_ramdisk_high
 .text.boot_get_setup
                0x0000000080813fe0        0x4 common/built-in.o
                0x0000000080813fe0                boot_get_setup
 .text.boot_get_loadable
                0x0000000080813fe4       0xe8 common/built-in.o
                0x0000000080813fe4                boot_get_loadable
 .text.image_setup_linux
                0x00000000808140cc       0x3e common/built-in.o
                0x00000000808140cc                image_setup_linux
 *fill*         0x000000008081410a        0x2 
 .text.android_image_get_kernel
                0x000000008081410c      0x15c common/built-in.o
                0x000000008081410c                android_image_get_kernel
 .text.android_image_check_header
                0x0000000080814268       0x10 common/built-in.o
                0x0000000080814268                android_image_check_header
 .text.android_image_get_end
                0x0000000080814278       0x78 common/built-in.o
                0x0000000080814278                android_image_get_end
 .text.android_image_get_kload
                0x00000000808142f0       0x44 common/built-in.o
                0x00000000808142f0                android_image_get_kload
 .text.android_image_get_ramdisk
                0x0000000080814334       0xa4 common/built-in.o
                0x0000000080814334                android_image_get_ramdisk
 .text.android_print_contents
                0x00000000808143d8      0x1a4 common/built-in.o
                0x00000000808143d8                android_print_contents
 .text.fdt_error
                0x000000008081457c       0x24 common/built-in.o
 .text.boot_fdt_add_mem_rsv_regions
                0x00000000808145a0       0x5c common/built-in.o
                0x00000000808145a0                boot_fdt_add_mem_rsv_regions
 .text.boot_relocate_fdt
                0x00000000808145fc      0x108 common/built-in.o
                0x00000000808145fc                boot_relocate_fdt
 .text.boot_get_fdt
                0x0000000080814704      0x254 common/built-in.o
                0x0000000080814704                boot_get_fdt
 .text.ft_verify_fdt
                0x0000000080814958        0x4 common/built-in.o
                0x0000000080814958                ft_verify_fdt
 .text.image_setup_libfdt
                0x000000008081495c       0xb0 common/built-in.o
                0x000000008081495c                image_setup_libfdt
 .text.fit_image_get_address
                0x0000000080814a0c       0x40 common/built-in.o
 .text.fit_parse_conf
                0x0000000080814a4c       0x3e common/built-in.o
                0x0000000080814a4c                fit_parse_conf
 .text.fit_parse_subimage
                0x0000000080814a8a       0x3e common/built-in.o
                0x0000000080814a8a                fit_parse_subimage
 .text.fit_get_desc
                0x0000000080814ac8       0x20 common/built-in.o
                0x0000000080814ac8                fit_get_desc
 .text.fit_get_timestamp
                0x0000000080814ae8       0x30 common/built-in.o
                0x0000000080814ae8                fit_get_timestamp
 .text.fit_image_get_node
                0x0000000080814b18       0x24 common/built-in.o
                0x0000000080814b18                fit_image_get_node
 .text.fit_image_get_os
                0x0000000080814b3c       0x28 common/built-in.o
                0x0000000080814b3c                fit_image_get_os
 .text.fit_image_get_arch
                0x0000000080814b64       0x28 common/built-in.o
                0x0000000080814b64                fit_image_get_arch
 .text.fit_image_get_type
                0x0000000080814b8c       0x28 common/built-in.o
                0x0000000080814b8c                fit_image_get_type
 .text.fit_image_get_comp
                0x0000000080814bb4       0x28 common/built-in.o
                0x0000000080814bb4                fit_image_get_comp
 .text.fit_image_get_load
                0x0000000080814bdc        0xc common/built-in.o
                0x0000000080814bdc                fit_image_get_load
 .text.fit_image_get_entry
                0x0000000080814be8        0xc common/built-in.o
                0x0000000080814be8                fit_image_get_entry
 .text.fit_image_get_data
                0x0000000080814bf4       0x28 common/built-in.o
                0x0000000080814bf4                fit_image_get_data
 .text.fit_image_hash_get_algo
                0x0000000080814c1c       0x20 common/built-in.o
                0x0000000080814c1c                fit_image_hash_get_algo
 .text.fit_image_hash_get_value
                0x0000000080814c3c       0x28 common/built-in.o
                0x0000000080814c3c                fit_image_hash_get_value
 .text.fit_image_print_data
                0x0000000080814c64      0x104 common/built-in.o
 .text.fit_image_print
                0x0000000080814d68      0x280 common/built-in.o
                0x0000000080814d68                fit_image_print
 .text.fit_get_end
                0x0000000080814fe8        0x8 common/built-in.o
                0x0000000080814fe8                fit_get_end
 .text.calculate_hash
                0x0000000080814ff0       0xa8 common/built-in.o
                0x0000000080814ff0                calculate_hash
 .text.fit_image_verify
                0x0000000080815098      0x154 common/built-in.o
                0x0000000080815098                fit_image_verify
 .text.fit_all_image_verify
                0x00000000808151ec       0xa8 common/built-in.o
                0x00000000808151ec                fit_all_image_verify
 .text.fit_image_check_os
                0x0000000080815294       0x20 common/built-in.o
                0x0000000080815294                fit_image_check_os
 .text.fit_image_check_arch
                0x00000000808152b4       0x2c common/built-in.o
                0x00000000808152b4                fit_image_check_arch
 .text.fit_image_check_type
                0x00000000808152e0       0x20 common/built-in.o
                0x00000000808152e0                fit_image_check_type
 .text.fit_image_check_comp
                0x0000000080815300       0x20 common/built-in.o
                0x0000000080815300                fit_image_check_comp
 .text.fit_check_format
                0x0000000080815320       0x40 common/built-in.o
                0x0000000080815320                fit_check_format
 .text.fit_conf_get_node
                0x0000000080815360       0x7c common/built-in.o
                0x0000000080815360                fit_conf_get_node
 .text.fit_conf_get_prop_node_index
                0x00000000808153dc       0x20 common/built-in.o
                0x00000000808153dc                fit_conf_get_prop_node_index
 .text.fit_conf_get_prop_node
                0x00000000808153fc        0x6 common/built-in.o
                0x00000000808153fc                fit_conf_get_prop_node
 *fill*         0x0000000080815402        0x2 
 .text.fit_conf_print
                0x0000000080815404      0x138 common/built-in.o
                0x0000000080815404                fit_conf_print
 .text.fit_print_contents
                0x000000008081553c      0x178 common/built-in.o
                0x000000008081553c                fit_print_contents
 .text.fit_get_node_from_config
                0x00000000808156b4       0x2a common/built-in.o
                0x00000000808156b4                fit_get_node_from_config
 *fill*         0x00000000808156de        0x2 
 .text.fit_image_load
                0x00000000808156e0      0x3cc common/built-in.o
                0x00000000808156e0                fit_image_load
 .text.boot_get_setup_fit
                0x0000000080815aac       0x40 common/built-in.o
                0x0000000080815aac                boot_get_setup_fit
 .text.boot_get_fdt_fit
                0x0000000080815aec      0x1c8 common/built-in.o
                0x0000000080815aec                boot_get_fdt_fit
 .text.get_ram_size
                0x0000000080815cb4       0x8a common/built-in.o
                0x0000000080815cb4                get_ram_size
 .text.get_effective_memsize
                0x0000000080815d3e        0x6 common/built-in.o
                0x0000000080815d3e                get_effective_memsize
 .text.stdio_serial_tstc
                0x0000000080815d44        0x4 common/built-in.o
 .text.stdio_serial_getc
                0x0000000080815d48        0x4 common/built-in.o
 .text.stdio_serial_puts
                0x0000000080815d4c        0x6 common/built-in.o
 .text.stdio_serial_putc
                0x0000000080815d52        0x6 common/built-in.o
 .text.stdio_get_list
                0x0000000080815d58        0x8 common/built-in.o
                0x0000000080815d58                stdio_get_list
 .text.stdio_get_by_name
                0x0000000080815d60       0x30 common/built-in.o
                0x0000000080815d60                stdio_get_by_name
 .text.stdio_clone
                0x0000000080815d90       0x22 common/built-in.o
                0x0000000080815d90                stdio_clone
 *fill*         0x0000000080815db2        0x2 
 .text.stdio_register_dev
                0x0000000080815db4       0x30 common/built-in.o
                0x0000000080815db4                stdio_register_dev
 .text.stdio_register
                0x0000000080815de4        0x6 common/built-in.o
                0x0000000080815de4                stdio_register
 *fill*         0x0000000080815dea        0x2 
 .text.stdio_init_tables
                0x0000000080815dec       0x14 common/built-in.o
                0x0000000080815dec                stdio_init_tables
 .text.stdio_add_devices
                0x0000000080815e00       0x50 common/built-in.o
                0x0000000080815e00                stdio_add_devices
 .text.run_command
                0x0000000080815e50        0xe common/built-in.o
                0x0000000080815e50                run_command
 .text.run_command_list
                0x0000000080815e5e       0x48 common/built-in.o
                0x0000000080815e5e                run_command_list
 *fill*         0x0000000080815ea6        0x2 
 .text.do_run   0x0000000080815ea8       0x50 common/built-in.o
                0x0000000080815ea8                do_run
 .text.cli_process_fdt
                0x0000000080815ef8       0x30 common/built-in.o
                0x0000000080815ef8                cli_process_fdt
 .text.cli_secure_boot_cmd
                0x0000000080815f28       0x4c common/built-in.o
                0x0000000080815f28                cli_secure_boot_cmd
 .text.cli_loop
                0x0000000080815f74        0x8 common/built-in.o
                0x0000000080815f74                cli_loop
 .text.cli_init
                0x0000000080815f7c        0x4 common/built-in.o
                0x0000000080815f7c                cli_init
 .text.run_usb_dnl_gadget
                0x0000000080815f80       0xc4 common/built-in.o
                0x0000000080815f80                run_usb_dnl_gadget
 .text.find_cmd_tbl
                0x0000000080816044       0x5e common/built-in.o
                0x0000000080816044                find_cmd_tbl
 *fill*         0x00000000808160a2        0x2 
 .text.find_cmd
                0x00000000808160a4       0x1c common/built-in.o
                0x00000000808160a4                find_cmd
 .text.cmd_usage
                0x00000000808160c0       0x3c common/built-in.o
                0x00000000808160c0                cmd_usage
 .text._do_help
                0x00000000808160fc      0x108 common/built-in.o
                0x00000000808160fc                _do_help
 .text.var_complete
                0x0000000080816204       0x48 common/built-in.o
                0x0000000080816204                var_complete
 .text.cmd_auto_complete
                0x000000008081624c      0x2fc common/built-in.o
                0x000000008081624c                cmd_auto_complete
 .text.cmd_get_data_size
                0x0000000080816548       0x34 common/built-in.o
                0x0000000080816548                cmd_get_data_size
 .text.cmd_process
                0x000000008081657c       0x94 common/built-in.o
                0x000000008081657c                cmd_process
 .text.cmd_process_error
                0x0000000080816610       0x18 common/built-in.o
                0x0000000080816610                cmd_process_error
 .text.hex1_bin
                0x0000000080816628       0x2a common/built-in.o
 .text.hex2_bin
                0x0000000080816652       0x24 common/built-in.o
 .text.srec_decode
                0x0000000080816676      0x180 common/built-in.o
                0x0000000080816676                srec_decode
 .text.CYGACC_COMM_IF_GETC_TIMEOUT.isra.0
                0x00000000808167f6       0x2e common/built-in.o
 .text.xyzModem_flush
                0x0000000080816824       0x14 common/built-in.o
 .text.xyzModem_get_hdr
                0x0000000080816838      0x174 common/built-in.o
 .text.xyzModem_stream_open
                0x00000000808169ac      0x170 common/built-in.o
                0x00000000808169ac                xyzModem_stream_open
 .text.xyzModem_stream_read
                0x0000000080816b1c      0x1b4 common/built-in.o
                0x0000000080816b1c                xyzModem_stream_read
 .text.xyzModem_stream_close
                0x0000000080816cd0       0x40 common/built-in.o
                0x0000000080816cd0                xyzModem_stream_close
 .text.xyzModem_stream_terminate
                0x0000000080816d10       0x68 common/built-in.o
                0x0000000080816d10                xyzModem_stream_terminate
 .text.xyzModem_error
                0x0000000080816d78       0x18 common/built-in.o
                0x0000000080816d78                xyzModem_error
 .text.blk_get_dev
                0x0000000080816d90       0x1c disk/built-in.o
                0x0000000080816d90                blk_get_dev
 .text.dev_print
                0x0000000080816dac      0x170 disk/built-in.o
                0x0000000080816dac                dev_print
 .text.part_init
                0x0000000080816f1c       0x2c disk/built-in.o
                0x0000000080816f1c                part_init
 .text.part_print
                0x0000000080816f48       0xe8 disk/built-in.o
                0x0000000080816f48                part_print
 .text.part_get_info
                0x0000000080817030       0x44 disk/built-in.o
                0x0000000080817030                part_get_info
 .text.part_get_info_whole_disk
                0x0000000080817074       0x38 disk/built-in.o
                0x0000000080817074                part_get_info_whole_disk
 .text.blk_get_device_by_str
                0x00000000808170ac       0xcc disk/built-in.o
                0x00000000808170ac                blk_get_device_by_str
 .text.blk_get_device_part_str
                0x0000000080817178      0x244 disk/built-in.o
                0x0000000080817178                blk_get_device_part_str
 .text.part_set_generic_name
                0x00000000808173bc       0x34 disk/built-in.o
                0x00000000808173bc                part_set_generic_name
 .text.test_block_type
                0x00000000808173f0       0x50 disk/built-in.o
 .text.print_partition_extended
                0x0000000080817440      0x1b8 disk/built-in.o
 .text.part_print_dos
                0x00000000808175f8       0x20 disk/built-in.o
                0x00000000808175f8                part_print_dos
 .text.part_test_dos
                0x0000000080817618       0x4e disk/built-in.o
 *fill*         0x0000000080817666        0x2 
 .text.part_get_info_extended
                0x0000000080817668      0x1ec disk/built-in.o
 .text.part_get_info_dos
                0x0000000080817854       0x16 disk/built-in.o
                0x0000000080817854                part_get_info_dos
 .text.iso_dread
                0x000000008081786a       0x22 disk/built-in.o
                0x000000008081786a                iso_dread
 .text.part_get_info_iso_verb
                0x000000008081788c      0x254 disk/built-in.o
                0x000000008081788c                part_get_info_iso_verb
 .text.part_test_iso
                0x0000000080817ae0       0x14 disk/built-in.o
 .text.part_print_iso
                0x0000000080817af4       0x60 disk/built-in.o
 .text.part_get_info_iso
                0x0000000080817b54        0x6 disk/built-in.o
 *fill*         0x0000000080817b5a        0x2 
 .text.print_efiname
                0x0000000080817b5c       0x38 disk/built-in.o
 .text.part_test_efi
                0x0000000080817b94       0x76 disk/built-in.o
 *fill*         0x0000000080817c0a        0x2 
 .text.set_protective_mbr
                0x0000000080817c0c       0x98 disk/built-in.o
 .text.validate_gpt_entries
                0x0000000080817ca4       0x80 disk/built-in.o
 *fill*         0x0000000080817d24        0x4 
 .text.validate_gpt_header
                0x0000000080817d28      0x1a0 disk/built-in.o
 .text.is_gpt_valid
                0x0000000080817ec8      0x1b0 disk/built-in.o
 .text.is_pte_valid
                0x0000000080818078       0x38 disk/built-in.o
 .text.part_print_efi
                0x00000000808180b0      0x1f8 disk/built-in.o
                0x00000000808180b0                part_print_efi
 .text.part_get_info_efi
                0x00000000808182a8      0x174 disk/built-in.o
                0x00000000808182a8                part_get_info_efi
 .text.get_disk_guid
                0x000000008081841c       0xa4 disk/built-in.o
                0x000000008081841c                get_disk_guid
 .text.write_gpt_table
                0x00000000808184c0      0x2d4 disk/built-in.o
                0x00000000808184c0                write_gpt_table
 .text.gpt_fill_pte
                0x0000000080818794      0x290 disk/built-in.o
                0x0000000080818794                gpt_fill_pte
 .text.gpt_fill_header
                0x0000000080818a24      0x1a8 disk/built-in.o
                0x0000000080818a24                gpt_fill_header
 .text.gpt_restore
                0x0000000080818bcc       0xc8 disk/built-in.o
                0x0000000080818bcc                gpt_restore
 .text.gpt_verify_headers
                0x0000000080818c94       0x54 disk/built-in.o
                0x0000000080818c94                gpt_verify_headers
 .text.gpt_verify_partitions
                0x0000000080818ce8      0x198 disk/built-in.o
                0x0000000080818ce8                gpt_verify_partitions
 .text.device_bind_common.isra.0
                0x0000000080818e80      0x1fc drivers/built-in.o
 .text.alloc_priv
                0x000000008081907c       0x38 drivers/built-in.o
 .text.device_bind_with_driver_data
                0x00000000808190b4       0x16 drivers/built-in.o
                0x00000000808190b4                device_bind_with_driver_data
 .text.device_bind
                0x00000000808190ca       0x16 drivers/built-in.o
                0x00000000808190ca                device_bind
 .text.device_bind_by_name
                0x00000000808190e0       0x44 drivers/built-in.o
                0x00000000808190e0                device_bind_by_name
 .text.device_probe
                0x0000000080819124      0x140 drivers/built-in.o
                0x0000000080819124                device_probe
 .text.dev_get_platdata
                0x0000000080819264       0x20 drivers/built-in.o
                0x0000000080819264                dev_get_platdata
 .text.dev_get_parent_platdata
                0x0000000080819284       0x20 drivers/built-in.o
                0x0000000080819284                dev_get_parent_platdata
 .text.dev_get_uclass_platdata
                0x00000000808192a4       0x20 drivers/built-in.o
                0x00000000808192a4                dev_get_uclass_platdata
 .text.dev_get_priv
                0x00000000808192c4       0x20 drivers/built-in.o
                0x00000000808192c4                dev_get_priv
 .text.dev_get_uclass_priv
                0x00000000808192e4       0x20 drivers/built-in.o
                0x00000000808192e4                dev_get_uclass_priv
 .text.dev_get_parent_priv
                0x0000000080819304       0x20 drivers/built-in.o
                0x0000000080819304                dev_get_parent_priv
 .text.device_find_first_child
                0x0000000080819324       0x14 drivers/built-in.o
                0x0000000080819324                device_find_first_child
 .text.device_find_next_child
                0x0000000080819338       0x16 drivers/built-in.o
                0x0000000080819338                device_find_next_child
 .text.dev_get_parent
                0x000000008081934e        0x4 drivers/built-in.o
                0x000000008081934e                dev_get_parent
 .text.dev_get_driver_data
                0x0000000080819352        0x4 drivers/built-in.o
                0x0000000080819352                dev_get_driver_data
 .text.device_get_uclass_id
                0x0000000080819356        0x8 drivers/built-in.o
                0x0000000080819356                device_get_uclass_id
 .text.device_has_active_children
                0x000000008081935e       0x24 drivers/built-in.o
                0x000000008081935e                device_has_active_children
 .text.device_is_last_sibling
                0x0000000080819382       0x14 drivers/built-in.o
                0x0000000080819382                device_is_last_sibling
 .text.device_is_compatible
                0x0000000080819396       0x18 drivers/built-in.o
                0x0000000080819396                device_is_compatible
 .text.of_machine_is_compatible
                0x00000000808193ae       0x18 drivers/built-in.o
                0x00000000808193ae                of_machine_is_compatible
 *fill*         0x00000000808193c6        0x2 
 .text.devfdt_get_addr_index
                0x00000000808193c8       0x70 drivers/built-in.o
                0x00000000808193c8                devfdt_get_addr_index
 .text.devfdt_get_addr
                0x0000000080819438        0x6 drivers/built-in.o
                0x0000000080819438                devfdt_get_addr
 *fill*         0x000000008081943e        0x2 
 .text.lists_driver_lookup_name
                0x0000000080819440       0x2c drivers/built-in.o
                0x0000000080819440                lists_driver_lookup_name
 .text.lists_uclass_lookup
                0x000000008081946c       0x20 drivers/built-in.o
                0x000000008081946c                lists_uclass_lookup
 .text.lists_bind_drivers
                0x000000008081948c       0x58 drivers/built-in.o
                0x000000008081948c                lists_bind_drivers
 .text.device_bind_driver_to_node
                0x00000000808194e4       0x2c drivers/built-in.o
                0x00000000808194e4                device_bind_driver_to_node
 .text.device_bind_driver
                0x0000000080819510       0x12 drivers/built-in.o
                0x0000000080819510                device_bind_driver
 *fill*         0x0000000080819522        0x2 
 .text.lists_bind_fdt
                0x0000000080819524       0xdc drivers/built-in.o
                0x0000000080819524                lists_bind_fdt
 .text.dm_scan_fdt_node
                0x0000000080819600       0x68 drivers/built-in.o
 .text.dm_root  0x0000000080819668       0x1c drivers/built-in.o
                0x0000000080819668                dm_root
 .text.dm_get_translation_offset
                0x0000000080819684        0xe drivers/built-in.o
                0x0000000080819684                dm_get_translation_offset
 *fill*         0x0000000080819692        0x2 
 .text.dm_init  0x0000000080819694       0x48 drivers/built-in.o
                0x0000000080819694                dm_init
 .text.dm_remove_devices_flags
                0x00000000808196dc       0x12 drivers/built-in.o
                0x00000000808196dc                dm_remove_devices_flags
 *fill*         0x00000000808196ee        0x2 
 .text.dm_scan_platdata
                0x00000000808196f0       0x20 drivers/built-in.o
                0x00000000808196f0                dm_scan_platdata
 .text.dm_scan_fdt_dev
                0x0000000080819710       0x1c drivers/built-in.o
                0x0000000080819710                dm_scan_fdt_dev
 .text.dm_scan_fdt
                0x000000008081972c       0x14 drivers/built-in.o
                0x000000008081972c                dm_scan_fdt
 .text.dm_extended_scan_fdt
                0x0000000080819740       0x34 drivers/built-in.o
                0x0000000080819740                dm_extended_scan_fdt
 .text.dm_scan_other
                0x0000000080819774        0x4 drivers/built-in.o
                0x0000000080819774                dm_scan_other
 .text.dm_init_and_scan
                0x0000000080819778       0x2c drivers/built-in.o
                0x0000000080819778                dm_init_and_scan
 .text.uclass_find
                0x00000000808197a4       0x2e drivers/built-in.o
                0x00000000808197a4                uclass_find
 .text.uclass_get
                0x00000000808197d2       0xa8 drivers/built-in.o
                0x00000000808197d2                uclass_get
 .text.uclass_find_device
                0x000000008081987a       0x42 drivers/built-in.o
                0x000000008081987a                uclass_find_device
 .text.uclass_find_first_device
                0x00000000808198bc       0x22 drivers/built-in.o
                0x00000000808198bc                uclass_find_first_device
 .text.uclass_find_next_device
                0x00000000808198de       0x18 drivers/built-in.o
                0x00000000808198de                uclass_find_next_device
 .text.uclass_find_device_by_seq
                0x00000000808198f6       0x54 drivers/built-in.o
                0x00000000808198f6                uclass_find_device_by_seq
 .text.uclass_find_device_by_of_offset
                0x000000008081994a       0x42 drivers/built-in.o
                0x000000008081994a                uclass_find_device_by_of_offset
 .text.uclass_find_device_by_ofnode
                0x000000008081998c       0x42 drivers/built-in.o
                0x000000008081998c                uclass_find_device_by_ofnode
 .text.uclass_get_device_tail
                0x00000000808199ce       0x16 drivers/built-in.o
                0x00000000808199ce                uclass_get_device_tail
 .text.uclass_get_device
                0x00000000808199e4       0x1c drivers/built-in.o
                0x00000000808199e4                uclass_get_device
 .text.uclass_get_device_by_seq
                0x0000000080819a00       0x32 drivers/built-in.o
                0x0000000080819a00                uclass_get_device_by_seq
 .text.uclass_get_device_by_of_offset
                0x0000000080819a32       0x1c drivers/built-in.o
                0x0000000080819a32                uclass_get_device_by_of_offset
 .text.uclass_get_device_by_ofnode
                0x0000000080819a4e       0x1c drivers/built-in.o
                0x0000000080819a4e                uclass_get_device_by_ofnode
 .text.uclass_first_device
                0x0000000080819a6a       0x1e drivers/built-in.o
                0x0000000080819a6a                uclass_first_device
 .text.uclass_first_device_err
                0x0000000080819a88       0x16 drivers/built-in.o
                0x0000000080819a88                uclass_first_device_err
 .text.uclass_next_device
                0x0000000080819a9e       0x24 drivers/built-in.o
                0x0000000080819a9e                uclass_next_device
 .text.uclass_bind_device
                0x0000000080819ac2       0x3a drivers/built-in.o
                0x0000000080819ac2                uclass_bind_device
 .text.uclass_unbind_device
                0x0000000080819afc       0x24 drivers/built-in.o
                0x0000000080819afc                uclass_unbind_device
 .text.uclass_resolve_seq
                0x0000000080819b20       0x68 drivers/built-in.o
                0x0000000080819b20                uclass_resolve_seq
 .text.uclass_pre_probe_device
                0x0000000080819b88       0x2e drivers/built-in.o
                0x0000000080819b88                uclass_pre_probe_device
 .text.uclass_post_probe_device
                0x0000000080819bb6        0xe drivers/built-in.o
                0x0000000080819bb6                uclass_post_probe_device
 .text.uclass_pre_remove_device
                0x0000000080819bc4        0xe drivers/built-in.o
                0x0000000080819bc4                uclass_pre_remove_device
 .text.dm_warn  0x0000000080819bd2       0x1a drivers/built-in.o
                0x0000000080819bd2                dm_warn
 .text.dm_fdt_pre_reloc
                0x0000000080819bec       0x44 drivers/built-in.o
                0x0000000080819bec                dm_fdt_pre_reloc
 .text.device_unbind
                0x0000000080819c30       0xba drivers/built-in.o
                0x0000000080819c30                device_unbind
 .text.device_free
                0x0000000080819cea       0x44 drivers/built-in.o
                0x0000000080819cea                device_free
 *fill*         0x0000000080819d2e        0x2 
 .text.device_remove
                0x0000000080819d30       0xe4 drivers/built-in.o
                0x0000000080819d30                device_remove
 .text.simple_bus_post_bind
                0x0000000080819e14       0x34 drivers/built-in.o
 .text.show_devices
                0x0000000080819e48       0xa8 drivers/built-in.o
 .text.dm_dump_all
                0x0000000080819ef0       0x30 drivers/built-in.o
                0x0000000080819ef0                dm_dump_all
 .text.dm_dump_uclass
                0x0000000080819f20       0x98 drivers/built-in.o
                0x0000000080819f20                dm_dump_uclass
 .text.ofnode_read_u32
                0x0000000080819fb8       0x2e drivers/built-in.o
                0x0000000080819fb8                ofnode_read_u32
 .text.ofnode_read_u32_default
                0x0000000080819fe6       0x16 drivers/built-in.o
                0x0000000080819fe6                ofnode_read_u32_default
 .text.ofnode_read_string
                0x0000000080819ffc       0x34 drivers/built-in.o
                0x0000000080819ffc                ofnode_read_string
 .text.ofnode_read_u32_array
                0x000000008081a030       0x18 drivers/built-in.o
                0x000000008081a030                ofnode_read_u32_array
 .text.ofnode_get_name
                0x000000008081a048        0xe drivers/built-in.o
                0x000000008081a048                ofnode_get_name
 .text.ofnode_parse_phandle_with_args
                0x000000008081a056       0x3e drivers/built-in.o
                0x000000008081a056                ofnode_parse_phandle_with_args
 .text.ofnode_path
                0x000000008081a094       0x10 drivers/built-in.o
                0x000000008081a094                ofnode_path
 .text.ofnode_get_chosen_prop
                0x000000008081a0a4       0x18 drivers/built-in.o
                0x000000008081a0a4                ofnode_get_chosen_prop
 .text.ofnode_get_chosen_node
                0x000000008081a0bc       0x14 drivers/built-in.o
                0x000000008081a0bc                ofnode_get_chosen_node
 .text.ofnode_get_property
                0x000000008081a0d0       0x14 drivers/built-in.o
                0x000000008081a0d0                ofnode_get_property
 .text.timer_post_probe
                0x000000008081a0e4       0x14 drivers/built-in.o
 .text.timer_pre_probe
                0x000000008081a0f8       0x20 drivers/built-in.o
 .text.timer_get_count
                0x000000008081a118       0x10 drivers/built-in.o
                0x000000008081a118                timer_get_count
 .text.timer_get_rate
                0x000000008081a128        0x6 drivers/built-in.o
                0x000000008081a128                timer_get_rate
 *fill*         0x000000008081a12e        0x2 
 .text.dm_timer_init
                0x000000008081a130       0x74 drivers/built-in.o
                0x000000008081a130                dm_timer_init
 .text.omap_timer_get_count
                0x000000008081a1a4       0x18 drivers/built-in.o
 .text.omap_timer_ofdata_to_platdata
                0x000000008081a1bc       0x16 drivers/built-in.o
 *fill*         0x000000008081a1d2        0x2 
 .text.omap_timer_probe
                0x000000008081a1d4       0x30 drivers/built-in.o
 .text.get_desc
                0x000000008081a204       0x3a drivers/built-in.o
 *fill*         0x000000008081a23e        0x2 
 .text.blk_driver_lookup_type
                0x000000008081a240       0x20 drivers/built-in.o
                0x000000008081a240                blk_driver_lookup_type
 .text.blk_get_if_type_name
                0x000000008081a260        0xc drivers/built-in.o
                0x000000008081a260                blk_get_if_type_name
 .text.blk_list_part
                0x000000008081a26c       0x52 drivers/built-in.o
                0x000000008081a26c                blk_list_part
 .text.blk_print_part_devnum
                0x000000008081a2be       0x34 drivers/built-in.o
                0x000000008081a2be                blk_print_part_devnum
 *fill*         0x000000008081a2f2        0x2 
 .text.blk_list_devices
                0x000000008081a2f4       0x44 drivers/built-in.o
                0x000000008081a2f4                blk_list_devices
 .text.blk_print_device_num
                0x000000008081a338       0x38 drivers/built-in.o
                0x000000008081a338                blk_print_device_num
 .text.blk_show_device
                0x000000008081a370       0x5c drivers/built-in.o
                0x000000008081a370                blk_show_device
 .text.blk_get_devnum_by_type
                0x000000008081a3cc       0x20 drivers/built-in.o
                0x000000008081a3cc                blk_get_devnum_by_type
 .text.blk_dselect_hwpart
                0x000000008081a3ec       0x26 drivers/built-in.o
                0x000000008081a3ec                blk_dselect_hwpart
 *fill*         0x000000008081a412        0x2 
 .text.blk_get_devnum_by_typename
                0x000000008081a414       0x3c drivers/built-in.o
                0x000000008081a414                blk_get_devnum_by_typename
 .text.blk_read_devnum
                0x000000008081a450       0x2e drivers/built-in.o
                0x000000008081a450                blk_read_devnum
 .text.blk_write_devnum
                0x000000008081a47e       0x2e drivers/built-in.o
                0x000000008081a47e                blk_write_devnum
 .text.blk_select_hwpart_devnum
                0x000000008081a4ac       0x2a drivers/built-in.o
                0x000000008081a4ac                blk_select_hwpart_devnum
 *fill*         0x000000008081a4d6        0x2 
 .text.bootcount_store
                0x000000008081a4d8       0x50 drivers/built-in.o
                0x000000008081a4ec                bootcount_store
 .text.bootcount_load
                0x000000008081a528       0x40 drivers/built-in.o
                0x000000008081a548                bootcount_load
 .text.mod_exp_sw
                0x000000008081a568        0xc drivers/built-in.o
                0x000000008081a568                mod_exp_sw
 .text.mmc_send_ext_csd
                0x000000008081a574       0x2e drivers/built-in.o
 *fill*         0x000000008081a5a2        0x2 
 .text.mmc_send_op_cond_iter
                0x000000008081a5a4       0x44 drivers/built-in.o
 .text.mmc_go_idle
                0x000000008081a5e8       0x32 drivers/built-in.o
 .text.mmc_set_capacity
                0x000000008081a61a       0x6e drivers/built-in.o
 .text.mmc_send_status
                0x000000008081a688       0x84 drivers/built-in.o
                0x000000008081a688                mmc_send_status
 .text.mmc_set_blocklen
                0x000000008081a70c       0x26 drivers/built-in.o
                0x000000008081a70c                mmc_set_blocklen
 *fill*         0x000000008081a732        0x2 
 .text.mmc_bread
                0x000000008081a734       0xdc drivers/built-in.o
                0x000000008081a734                mmc_bread
 .text.mmc_switch
                0x000000008081a810       0x3e drivers/built-in.o
                0x000000008081a810                mmc_switch
 .text.mmc_switch_part
                0x000000008081a84e       0x40 drivers/built-in.o
                0x000000008081a84e                mmc_switch_part
 *fill*         0x000000008081a88e        0x2 
 .text.mmc_hwpart_config
                0x000000008081a890      0x2d8 drivers/built-in.o
                0x000000008081a890                mmc_hwpart_config
 .text.mmc_set_clock
                0x000000008081ab68       0x1c drivers/built-in.o
                0x000000008081ab68                mmc_set_clock
 .text.mmc_startup
                0x000000008081ab84      0x970 drivers/built-in.o
 .text.mmc_start_init
                0x000000008081b4f4      0x16c drivers/built-in.o
                0x000000008081b4f4                mmc_start_init
 .text.mmc_init
                0x000000008081b660       0xc8 drivers/built-in.o
                0x000000008081b660                mmc_init
 .text.mmc_set_dsr
                0x000000008081b728        0x6 drivers/built-in.o
                0x000000008081b728                mmc_set_dsr
 *fill*         0x000000008081b72e        0x2 
 .text.mmc_initialize
                0x000000008081b730       0x84 drivers/built-in.o
                0x000000008081b730                mmc_initialize
 .text.dm_mmc_set_ios
                0x000000008081b7b4       0x10 drivers/built-in.o
                0x000000008081b7b4                dm_mmc_set_ios
 .text.mmc_set_ios
                0x000000008081b7c4        0x8 drivers/built-in.o
                0x000000008081b7c4                mmc_set_ios
 .text.dm_mmc_get_wp
                0x000000008081b7cc       0x10 drivers/built-in.o
                0x000000008081b7cc                dm_mmc_get_wp
 .text.mmc_getwp
                0x000000008081b7dc        0x8 drivers/built-in.o
                0x000000008081b7dc                mmc_getwp
 .text.dm_mmc_get_cd
                0x000000008081b7e4       0x10 drivers/built-in.o
                0x000000008081b7e4                dm_mmc_get_cd
 .text.mmc_getcd
                0x000000008081b7f4        0x8 drivers/built-in.o
                0x000000008081b7f4                mmc_getcd
 .text.mmc_get_mmc_dev
                0x000000008081b7fc       0x16 drivers/built-in.o
                0x000000008081b7fc                mmc_get_mmc_dev
 .text.dm_mmc_send_cmd
                0x000000008081b812       0x26 drivers/built-in.o
                0x000000008081b812                dm_mmc_send_cmd
 .text.mmc_send_cmd
                0x000000008081b838        0x8 drivers/built-in.o
                0x000000008081b838                mmc_send_cmd
 .text.find_mmc_device
                0x000000008081b840       0x30 drivers/built-in.o
                0x000000008081b840                find_mmc_device
 .text.mmc_select_hwpartp
                0x000000008081b870       0x36 drivers/built-in.o
 .text.mmc_get_dev
                0x000000008081b8a6       0x1e drivers/built-in.o
 .text.mmc_get_next_devnum
                0x000000008081b8c4       0x10 drivers/built-in.o
                0x000000008081b8c4                mmc_get_next_devnum
 .text.mmc_get_blk_desc
                0x000000008081b8d4        0x4 drivers/built-in.o
                0x000000008081b8d4                mmc_get_blk_desc
 .text.get_mmc_num
                0x000000008081b8d8        0xc drivers/built-in.o
                0x000000008081b8d8                get_mmc_num
 .text.mmc_do_preinit
                0x000000008081b8e4       0x20 drivers/built-in.o
                0x000000008081b8e4                mmc_do_preinit
 .text.mmc_list_init
                0x000000008081b904       0x18 drivers/built-in.o
                0x000000008081b904                mmc_list_init
 .text.mmc_list_add
                0x000000008081b91c       0x14 drivers/built-in.o
                0x000000008081b91c                mmc_list_add
 .text.print_mmc_devices
                0x000000008081b930       0x84 drivers/built-in.o
                0x000000008081b930                print_mmc_devices
 .text.mmc_create
                0x000000008081b9b4       0x78 drivers/built-in.o
                0x000000008081b9b4                mmc_create
 .text.mmc_berase
                0x000000008081ba2c      0x114 drivers/built-in.o
                0x000000008081ba2c                mmc_berase
 .text.mmc_bwrite
                0x000000008081bb40      0x104 drivers/built-in.o
                0x000000008081bb40                mmc_bwrite
 .text.mmc_reset_controller_fsm
                0x000000008081bc44       0x7c drivers/built-in.o
 .text.omap_hsmmc_getwp
                0x000000008081bcc0       0x12 drivers/built-in.o
 .text.omap_hsmmc_getcd
                0x000000008081bcd2       0x22 drivers/built-in.o
 .text.omap_hsmmc_set_ios
                0x000000008081bcf4      0x124 drivers/built-in.o
 .text.omap_hsmmc_send_cmd
                0x000000008081be18      0x33c drivers/built-in.o
 .text.omap_hsmmc_ofdata_to_platdata
                0x000000008081c154       0xc0 drivers/built-in.o
 .text.mmc_init_stream
                0x000000008081c214       0xa4 drivers/built-in.o
                0x000000008081c214                mmc_init_stream
 .text.omap_hsmmc_probe
                0x000000008081c2b8      0x1e0 drivers/built-in.o
 .text.dfu_write_buffer_drain
                0x000000008081c498       0x70 drivers/built-in.o
 .text.dfu_usb_get_reset
                0x000000008081c508        0x4 drivers/built-in.o
                0x000000008081c508                dfu_usb_get_reset
 .text.dfu_free_buf
                0x000000008081c50c       0x14 drivers/built-in.o
                0x000000008081c50c                dfu_free_buf
 .text.dfu_get_buf_size
                0x000000008081c520        0xc drivers/built-in.o
                0x000000008081c520                dfu_get_buf_size
 .text.dfu_get_buf
                0x000000008081c52c       0x68 drivers/built-in.o
                0x000000008081c52c                dfu_get_buf
 .text.dfu_transaction_cleanup
                0x000000008081c594       0x3e drivers/built-in.o
                0x000000008081c594                dfu_transaction_cleanup
 *fill*         0x000000008081c5d2        0x2 
 .text.dfu_transaction_initiate
                0x000000008081c5d4       0x50 drivers/built-in.o
                0x000000008081c5d4                dfu_transaction_initiate
 .text.dfu_flush
                0x000000008081c624       0x38 drivers/built-in.o
                0x000000008081c624                dfu_flush
 .text.dfu_write
                0x000000008081c65c       0xb0 drivers/built-in.o
                0x000000008081c65c                dfu_write
 .text.dfu_read
                0x000000008081c70c      0x14c drivers/built-in.o
                0x000000008081c70c                dfu_read
 .text.dfu_free_entities
                0x000000008081c858       0x58 drivers/built-in.o
                0x000000008081c858                dfu_free_entities
 .text.dfu_config_entities
                0x000000008081c8b0      0x188 drivers/built-in.o
                0x000000008081c8b0                dfu_config_entities
 .text.dfu_init_env_entities
                0x000000008081ca38       0x4c drivers/built-in.o
                0x000000008081ca38                dfu_init_env_entities
 .text.dfu_get_dev_type
                0x000000008081ca84       0x28 drivers/built-in.o
                0x000000008081ca84                dfu_get_dev_type
 .text.dfu_get_layout
                0x000000008081caac       0x28 drivers/built-in.o
                0x000000008081caac                dfu_get_layout
 .text.dfu_show_entities
                0x000000008081cad4       0x4c drivers/built-in.o
                0x000000008081cad4                dfu_show_entities
 .text.dfu_get_alt_number
                0x000000008081cb20        0xc drivers/built-in.o
                0x000000008081cb20                dfu_get_alt_number
 .text.dfu_get_entity
                0x000000008081cb2c       0x28 drivers/built-in.o
                0x000000008081cb2c                dfu_get_entity
 .text.mmc_block_op
                0x000000008081cb54      0x128 drivers/built-in.o
 .text.mmc_file_op
                0x000000008081cc7c      0x134 drivers/built-in.o
 .text.dfu_free_entity_mmc
                0x000000008081cdb0       0x18 drivers/built-in.o
                0x000000008081cdb0                dfu_free_entity_mmc
 .text.dfu_write_medium_mmc
                0x000000008081cdc8       0x9c drivers/built-in.o
                0x000000008081cdc8                dfu_write_medium_mmc
 .text.dfu_flush_medium_mmc
                0x000000008081ce64       0x30 drivers/built-in.o
                0x000000008081ce64                dfu_flush_medium_mmc
 .text.dfu_get_medium_size_mmc
                0x000000008081ce94       0x74 drivers/built-in.o
                0x000000008081ce94                dfu_get_medium_size_mmc
 .text.dfu_read_medium_mmc
                0x000000008081cf08       0x9c drivers/built-in.o
                0x000000008081cf08                dfu_read_medium_mmc
 .text.dfu_fill_entity_mmc
                0x000000008081cfa4      0x1c4 drivers/built-in.o
                0x000000008081cfa4                dfu_fill_entity_mmc
 .text.dfu_get_medium_size_nand
                0x000000008081d168        0xc drivers/built-in.o
                0x000000008081d168                dfu_get_medium_size_nand
 .text.dfu_polltimeout_nand
                0x000000008081d174        0x4 drivers/built-in.o
                0x000000008081d174                dfu_polltimeout_nand
 .text.nand_block_op
                0x000000008081d178      0x120 drivers/built-in.o
 .text.dfu_write_medium_nand
                0x000000008081d298       0x30 drivers/built-in.o
 .text.dfu_read_medium_nand
                0x000000008081d2c8       0x30 drivers/built-in.o
 .text.dfu_flush_medium_nand
                0x000000008081d2f8       0xc4 drivers/built-in.o
 .text.dfu_fill_entity_nand
                0x000000008081d3bc      0x150 drivers/built-in.o
                0x000000008081d3bc                dfu_fill_entity_nand
 .text.dfu_get_medium_size_ram
                0x000000008081d50c        0xa drivers/built-in.o
                0x000000008081d50c                dfu_get_medium_size_ram
 *fill*         0x000000008081d516        0x2 
 .text.dfu_write_medium_ram
                0x000000008081d518       0x50 drivers/built-in.o
 .text.dfu_read_medium_ram
                0x000000008081d568       0x50 drivers/built-in.o
 .text.dfu_fill_entity_ram
                0x000000008081d5b8       0xa4 drivers/built-in.o
                0x000000008081d5b8                dfu_fill_entity_ram
 .text.rtc_calc_weekday
                0x000000008081d65c       0x94 drivers/built-in.o
                0x000000008081d65c                rtc_calc_weekday
 .text.rtc_to_tm
                0x000000008081d6f0       0xa4 drivers/built-in.o
                0x000000008081d6f0                rtc_to_tm
 .text.hw_watchdog_reset
                0x000000008081d794       0x30 drivers/built-in.o
                0x000000008081d794                hw_watchdog_reset
 .text.hw_watchdog_disable
                0x000000008081d7c4       0x30 drivers/built-in.o
                0x000000008081d7c4                hw_watchdog_disable
 .text.hw_watchdog_init
                0x000000008081d7f4       0x74 drivers/built-in.o
                0x000000008081d7f4                hw_watchdog_init
 .text.get_function
                0x000000008081d868       0x5e drivers/gpio/built-in.o
 .text.gpio_to_device
                0x000000008081d8c6       0x48 drivers/gpio/built-in.o
 *fill*         0x000000008081d90e        0x2 
 .text.check_reserved
                0x000000008081d910       0x4c drivers/gpio/built-in.o
 .text.gpio_renumber
                0x000000008081d95c       0x46 drivers/gpio/built-in.o
 .text.gpio_pre_remove
                0x000000008081d9a2       0x32 drivers/gpio/built-in.o
 .text.gpio_post_probe
                0x000000008081d9d4       0x24 drivers/gpio/built-in.o
 .text.dm_gpio_lookup_name
                0x000000008081d9f8       0xa0 drivers/gpio/built-in.o
                0x000000008081d9f8                dm_gpio_lookup_name
 .text.gpio_lookup_name
                0x000000008081da98       0x3c drivers/gpio/built-in.o
                0x000000008081da98                gpio_lookup_name
 .text.gpio_xlate_offs_flags
                0x000000008081dad4       0x24 drivers/gpio/built-in.o
                0x000000008081dad4                gpio_xlate_offs_flags
 .text.dm_gpio_request
                0x000000008081daf8       0x5e drivers/gpio/built-in.o
                0x000000008081daf8                dm_gpio_request
 .text.dm_gpio_requestf
                0x000000008081db56       0x2a drivers/gpio/built-in.o
 .text.gpio_request
                0x000000008081db80       0x18 drivers/gpio/built-in.o
                0x000000008081db80                gpio_request
 .text._dm_gpio_free
                0x000000008081db98       0x42 drivers/gpio/built-in.o
                0x000000008081db98                _dm_gpio_free
 .text.gpio_free
                0x000000008081dbda       0x18 drivers/gpio/built-in.o
                0x000000008081dbda                gpio_free
 *fill*         0x000000008081dbf2        0x2 
 .text.gpio_direction_input
                0x000000008081dbf4       0x2c drivers/gpio/built-in.o
                0x000000008081dbf4                gpio_direction_input
 .text.gpio_direction_output
                0x000000008081dc20       0x2c drivers/gpio/built-in.o
                0x000000008081dc20                gpio_direction_output
 .text.dm_gpio_get_value
                0x000000008081dc4c       0x2c drivers/gpio/built-in.o
                0x000000008081dc4c                dm_gpio_get_value
 .text.dm_gpio_set_value
                0x000000008081dc78       0x34 drivers/gpio/built-in.o
                0x000000008081dc78                dm_gpio_set_value
 .text.dm_gpio_set_dir_flags
                0x000000008081dcac       0x60 drivers/gpio/built-in.o
                0x000000008081dcac                dm_gpio_set_dir_flags
 .text.gpio_request_tail
                0x000000008081dd0c       0x88 drivers/gpio/built-in.o
 .text.gpio_get_value
                0x000000008081dd94       0x16 drivers/gpio/built-in.o
                0x000000008081dd94                gpio_get_value
 .text.gpio_set_value
                0x000000008081ddaa       0x18 drivers/gpio/built-in.o
                0x000000008081ddaa                gpio_set_value
 .text.gpio_get_bank_info
                0x000000008081ddc2       0x10 drivers/gpio/built-in.o
                0x000000008081ddc2                gpio_get_bank_info
 .text.gpio_get_function
                0x000000008081ddd2        0x8 drivers/gpio/built-in.o
                0x000000008081ddd2                gpio_get_function
 .text.gpio_get_raw_function
                0x000000008081ddda        0x8 drivers/gpio/built-in.o
                0x000000008081ddda                gpio_get_raw_function
 *fill*         0x000000008081dde2        0x2 
 .text.gpio_get_status
                0x000000008081dde4       0xb4 drivers/gpio/built-in.o
                0x000000008081dde4                gpio_get_status
 .text.gpio_request_by_name
                0x000000008081de98       0x44 drivers/gpio/built-in.o
                0x000000008081de98                gpio_request_by_name
 .text.gpio_get_list_count
                0x000000008081dedc       0x28 drivers/gpio/built-in.o
                0x000000008081dedc                gpio_get_list_count
 .text.dm_gpio_free
                0x000000008081df04        0xa drivers/gpio/built-in.o
                0x000000008081df04                dm_gpio_free
 .text.gpio_free_list
                0x000000008081df0e       0x28 drivers/gpio/built-in.o
                0x000000008081df0e                gpio_free_list
 .text.gpio_free_list_nodev
                0x000000008081df36        0xa drivers/gpio/built-in.o
                0x000000008081df36                gpio_free_list_nodev
 .text.gpio_request_list_by_name_nodev
                0x000000008081df40       0x68 drivers/gpio/built-in.o
                0x000000008081df40                gpio_request_list_by_name_nodev
 .text.gpio_request_list_by_name
                0x000000008081dfa8       0x10 drivers/gpio/built-in.o
                0x000000008081dfa8                gpio_request_list_by_name
 .text.omap_gpio_get_value
                0x000000008081dfb8       0x2c drivers/gpio/built-in.o
 .text.omap_gpio_direction_output
                0x000000008081dfe4       0x30 drivers/gpio/built-in.o
 .text.omap_gpio_probe
                0x000000008081e014       0x28 drivers/gpio/built-in.o
 .text.omap_gpio_bind
                0x000000008081e03c       0x46 drivers/gpio/built-in.o
 .text.omap_gpio_direction_input
                0x000000008081e082       0x1e drivers/gpio/built-in.o
 .text.omap_gpio_get_function
                0x000000008081e0a0       0x1e drivers/gpio/built-in.o
 .text.omap_gpio_set_value
                0x000000008081e0be       0x22 drivers/gpio/built-in.o
 .text.i2c_setup_offset
                0x000000008081e0e0       0x3c drivers/i2c/built-in.o
 .text.dm_i2c_read
                0x000000008081e11c       0xe8 drivers/i2c/built-in.o
                0x000000008081e11c                dm_i2c_read
 .text.dm_i2c_write
                0x000000008081e204      0x138 drivers/i2c/built-in.o
                0x000000008081e204                dm_i2c_write
 .text.i2c_get_chip
                0x000000008081e33c       0x9c drivers/i2c/built-in.o
                0x000000008081e33c                i2c_get_chip
 .text.i2c_get_chip_for_busnum
                0x000000008081e3d8       0x24 drivers/i2c/built-in.o
                0x000000008081e3d8                i2c_get_chip_for_busnum
 .text.dm_i2c_probe
                0x000000008081e3fc       0x62 drivers/i2c/built-in.o
                0x000000008081e3fc                dm_i2c_probe
 .text.dm_i2c_set_bus_speed
                0x000000008081e45e       0x26 drivers/i2c/built-in.o
                0x000000008081e45e                dm_i2c_set_bus_speed
 .text.i2c_post_probe
                0x000000008081e484       0x2c drivers/i2c/built-in.o
 .text.dm_i2c_get_bus_speed
                0x000000008081e4b0       0x1c drivers/i2c/built-in.o
                0x000000008081e4b0                dm_i2c_get_bus_speed
 .text.i2c_set_chip_flags
                0x000000008081e4cc       0x28 drivers/i2c/built-in.o
                0x000000008081e4cc                i2c_set_chip_flags
 .text.i2c_get_chip_flags
                0x000000008081e4f4       0x10 drivers/i2c/built-in.o
                0x000000008081e4f4                i2c_get_chip_flags
 .text.i2c_set_chip_offset_len
                0x000000008081e504       0x16 drivers/i2c/built-in.o
                0x000000008081e504                i2c_set_chip_offset_len
 .text.i2c_get_chip_offset_len
                0x000000008081e51a        0xa drivers/i2c/built-in.o
                0x000000008081e51a                i2c_get_chip_offset_len
 .text.i2c_deblock
                0x000000008081e524       0x10 drivers/i2c/built-in.o
                0x000000008081e524                i2c_deblock
 .text.i2c_chip_ofdata_to_platdata
                0x000000008081e534       0x38 drivers/i2c/built-in.o
                0x000000008081e534                i2c_chip_ofdata_to_platdata
 .text.i2c_child_post_bind
                0x000000008081e56c       0x1e drivers/i2c/built-in.o
 *fill*         0x000000008081e58a        0x2 
 .text.i2c_compat_get_device
                0x000000008081e58c       0x40 drivers/i2c/built-in.o
 .text.i2c_probe
                0x000000008081e5cc       0x30 drivers/i2c/built-in.o
                0x000000008081e5cc                i2c_probe
 .text.i2c_read
                0x000000008081e5fc       0x20 drivers/i2c/built-in.o
                0x000000008081e5fc                i2c_read
 .text.i2c_write
                0x000000008081e61c       0x20 drivers/i2c/built-in.o
                0x000000008081e61c                i2c_write
 .text.__omap24_i2c_setspeed
                0x000000008081e63c      0x104 drivers/i2c/built-in.o
 .text.omap_i2c_set_bus_speed
                0x000000008081e740       0x1a drivers/i2c/built-in.o
 *fill*         0x000000008081e75a        0x2 
 .text.wait_for_bb
                0x000000008081e75c       0x58 drivers/i2c/built-in.o
 .text.wait_for_event
                0x000000008081e7b4       0x50 drivers/i2c/built-in.o
 .text.flush_fifo
                0x000000008081e804       0x2a drivers/i2c/built-in.o
 *fill*         0x000000008081e82e        0x2 
 .text.omap_i2c_probe_chip
                0x000000008081e830       0xa8 drivers/i2c/built-in.o
 .text.omap_i2c_ofdata_to_platdata
                0x000000008081e8d8       0x20 drivers/i2c/built-in.o
 .text.omap_i2c_xfer
                0x000000008081e8f8      0x204 drivers/i2c/built-in.o
 .text.omap_i2c_probe
                0x000000008081eafc      0x184 drivers/i2c/built-in.o
 .text.idr_get_next
                0x000000008081ec80       0x24 drivers/mtd/built-in.o
                0x000000008081ec80                idr_get_next
 .text.__mtd_next_device
                0x000000008081eca4       0x18 drivers/mtd/built-in.o
                0x000000008081eca4                __mtd_next_device
 .text.__get_mtd_device
                0x000000008081ecbc       0x20 drivers/mtd/built-in.o
                0x000000008081ecbc                __get_mtd_device
 .text.get_mtd_device_nm
                0x000000008081ecdc       0x34 drivers/mtd/built-in.o
                0x000000008081ecdc                get_mtd_device_nm
 .text.__put_mtd_device
                0x000000008081ed10       0x44 drivers/mtd/built-in.o
                0x000000008081ed10                __put_mtd_device
 .text.put_mtd_device
                0x000000008081ed54        0x4 drivers/mtd/built-in.o
                0x000000008081ed54                put_mtd_device
 .text.mtd_erase
                0x000000008081ed58       0x6c drivers/mtd/built-in.o
                0x000000008081ed58                mtd_erase
 .text.mtd_read
                0x000000008081edc4       0x6e drivers/mtd/built-in.o
                0x000000008081edc4                mtd_read
 .text.mtd_write
                0x000000008081ee32       0x62 drivers/mtd/built-in.o
                0x000000008081ee32                mtd_write
 .text.mtd_read_oob
                0x000000008081ee94       0x36 drivers/mtd/built-in.o
                0x000000008081ee94                mtd_read_oob
 .text.mtd_unlock
                0x000000008081eeca       0x50 drivers/mtd/built-in.o
                0x000000008081eeca                mtd_unlock
 *fill*         0x000000008081ef1a        0x2 
 .text.add_mtd_device
                0x000000008081ef1c      0x130 drivers/mtd/built-in.o
                0x000000008081ef1c                add_mtd_device
 .text.mtd_block_isbad
                0x000000008081f04c       0x2c drivers/mtd/built-in.o
                0x000000008081f04c                mtd_block_isbad
 .text.mtd_block_markbad
                0x000000008081f078       0x42 drivers/mtd/built-in.o
                0x000000008081f078                mtd_block_markbad
 *fill*         0x000000008081f0ba        0x2 
 .text.mtd_arg_off
                0x000000008081f0bc       0xa8 drivers/mtd/built-in.o
                0x000000008081f0bc                mtd_arg_off
 .text.mtd_arg_off_size
                0x000000008081f164       0xc0 drivers/mtd/built-in.o
                0x000000008081f164                mtd_arg_off_size
 .text.get_nand_dev_by_index
                0x000000008081f224       0x1c drivers/mtd/nand/built-in.o
                0x000000008081f224                get_nand_dev_by_index
 .text.nand_register
                0x000000008081f240       0x60 drivers/mtd/nand/built-in.o
                0x000000008081f240                nand_register
 .text.nand_size
                0x000000008081f2a0        0xc drivers/mtd/nand/built-in.o
                0x000000008081f2a0                nand_size
 .text.nand_init
                0x000000008081f2ac       0x40 drivers/mtd/nand/built-in.o
                0x000000008081f2ac                nand_init
 .text.verify_bbt_descr
                0x000000008081f2ec       0xe0 drivers/mtd/nand/built-in.o
 .text.create_bbt
                0x000000008081f3cc      0x15c drivers/mtd/nand/built-in.o
 .text.scan_read
                0x000000008081f528       0x9e drivers/mtd/nand/built-in.o
 .text.read_bbt
                0x000000008081f5c6      0x166 drivers/mtd/nand/built-in.o
 .text.write_bbt
                0x000000008081f72c      0x410 drivers/mtd/nand/built-in.o
 .text.nand_update_bbt
                0x000000008081fb3c       0xbc drivers/mtd/nand/built-in.o
 .text.mark_bbt_region
                0x000000008081fbf8      0x11c drivers/mtd/nand/built-in.o
 .text.search_bbt
                0x000000008081fd14      0x10e drivers/mtd/nand/built-in.o
 .text.read_abs_bbt
                0x000000008081fe22       0x8c drivers/mtd/nand/built-in.o
 *fill*         0x000000008081feae        0x2 
 .text.nand_default_bbt
                0x000000008081feb0      0x3bc drivers/mtd/nand/built-in.o
                0x000000008081feb0                nand_default_bbt
 .text.nand_isreserved_bbt
                0x000000008082026c       0x2e drivers/mtd/nand/built-in.o
                0x000000008082026c                nand_isreserved_bbt
 .text.nand_isbad_bbt
                0x000000008082029a       0x3a drivers/mtd/nand/built-in.o
                0x000000008082029a                nand_isbad_bbt
 .text.nand_markbad_bbt
                0x00000000808202d4       0x46 drivers/mtd/nand/built-in.o
                0x00000000808202d4                nand_markbad_bbt
 .text.check_skip_len
                0x000000008082031a       0x7c drivers/mtd/nand/built-in.o
 *fill*         0x0000000080820396        0x2 
 .text.nand_erase_opts
                0x0000000080820398      0x234 drivers/mtd/nand/built-in.o
                0x0000000080820398                nand_erase_opts
 .text.nand_verify_page_oob
                0x00000000808205cc       0x7c drivers/mtd/nand/built-in.o
                0x00000000808205cc                nand_verify_page_oob
 .text.nand_verify
                0x0000000080820648       0xa4 drivers/mtd/nand/built-in.o
                0x0000000080820648                nand_verify
 .text.nand_write_skip_bad
                0x00000000808206ec      0x1e0 drivers/mtd/nand/built-in.o
                0x00000000808206ec                nand_write_skip_bad
 .text.nand_read_skip_bad
                0x00000000808208cc      0x184 drivers/mtd/nand/built-in.o
                0x00000000808208cc                nand_read_skip_bad
 .text.nand_calculate_ecc
                0x0000000080820a50       0xc0 drivers/mtd/nand/built-in.o
                0x0000000080820a50                nand_calculate_ecc
 .text.nand_correct_data
                0x0000000080820b10       0xbe drivers/mtd/nand/built-in.o
                0x0000000080820b10                nand_correct_data
 .text.nand_release_device
                0x0000000080820bce        0xa drivers/mtd/nand/built-in.o
 .text.nand_read_byte
                0x0000000080820bd8        0xe drivers/mtd/nand/built-in.o
                0x0000000080820bd8                nand_read_byte
 .text.nand_read_byte16
                0x0000000080820be6       0x10 drivers/mtd/nand/built-in.o
 .text.nand_read_word
                0x0000000080820bf6        0xe drivers/mtd/nand/built-in.o
 .text.nand_write_byte
                0x0000000080820c04       0x16 drivers/mtd/nand/built-in.o
 .text.nand_write_byte16
                0x0000000080820c1a       0x16 drivers/mtd/nand/built-in.o
 .text.nand_write_buf
                0x0000000080820c30       0x1c drivers/mtd/nand/built-in.o
                0x0000000080820c30                nand_write_buf
 .text.nand_read_buf
                0x0000000080820c4c       0x1e drivers/mtd/nand/built-in.o
                0x0000000080820c4c                nand_read_buf
 .text.nand_write_buf16
                0x0000000080820c6a       0x1e drivers/mtd/nand/built-in.o
                0x0000000080820c6a                nand_write_buf16
 .text.nand_read_buf16
                0x0000000080820c88       0x20 drivers/mtd/nand/built-in.o
                0x0000000080820c88                nand_read_buf16
 .text.nand_read_page_raw_syndrome
                0x0000000080820ca8       0x8a drivers/mtd/nand/built-in.o
 .text.nand_read_page_swecc
                0x0000000080820d32       0xc8 drivers/mtd/nand/built-in.o
 .text.nand_read_oob_std
                0x0000000080820dfa       0x24 drivers/mtd/nand/built-in.o
 .text.nand_read_oob_syndrome
                0x0000000080820e1e       0xa8 drivers/mtd/nand/built-in.o
 .text.nand_write_oob_std
                0x0000000080820ec6       0x4e drivers/mtd/nand/built-in.o
 .text.nand_write_oob_syndrome
                0x0000000080820f14      0x104 drivers/mtd/nand/built-in.o
 .text.nand_write_page_raw_syndrome
                0x0000000080821018       0x8a drivers/mtd/nand/built-in.o
 .text.nand_write_page_swecc
                0x00000000808210a2       0x7e drivers/mtd/nand/built-in.o
 .text.nand_write_page_hwecc
                0x0000000080821120       0x86 drivers/mtd/nand/built-in.o
 .text.nand_write_page_syndrome
                0x00000000808211a6       0xa0 drivers/mtd/nand/built-in.o
 .text.single_erase
                0x0000000080821246       0x30 drivers/mtd/nand/built-in.o
 .text.nand_sync
                0x0000000080821276        0xa drivers/mtd/nand/built-in.o
 .text.nand_set_defaults
                0x0000000080821280      0x138 drivers/mtd/nand/built-in.o
 .text.nand_setup_read_retry_micron
                0x00000000808213b8       0x1a drivers/mtd/nand/built-in.o
 .text.nand_write_subpage_hwecc
                0x00000000808213d2      0x100 drivers/mtd/nand/built-in.o
 .text.nand_check_erased_buf
                0x00000000808214d2       0xcc drivers/mtd/nand/built-in.o
 .text.nand_block_bad
                0x000000008082159e       0xea drivers/mtd/nand/built-in.o
 .text.nand_write_page
                0x0000000080821688       0xd2 drivers/mtd/nand/built-in.o
 *fill*         0x000000008082175a        0x2 
 .text.nand_wait
                0x000000008082175c       0x78 drivers/mtd/nand/built-in.o
 .text.unlikely.sanitize_string
                0x00000000808217d4       0x28 drivers/mtd/nand/built-in.o
 .text.nand_block_isreserved
                0x00000000808217fc        0xe drivers/mtd/nand/built-in.o
 .text.nand_check_wp
                0x000000008082180a       0x2e drivers/mtd/nand/built-in.o
 .text.nand_read_page_raw
                0x0000000080821838       0x26 drivers/mtd/nand/built-in.o
 .text.nand_write_page_raw
                0x000000008082185e       0x26 drivers/mtd/nand/built-in.o
 .text.nand_onfi_set_features
                0x0000000080821884       0x52 drivers/mtd/nand/built-in.o
 .text.nand_onfi_get_features
                0x00000000808218d6       0x3e drivers/mtd/nand/built-in.o
 .text.nand_block_checkbad
                0x0000000080821914       0x50 drivers/mtd/nand/built-in.o
 .text.nand_block_isbad
                0x0000000080821964       0x4c drivers/mtd/nand/built-in.o
 .text.nand_fill_oob
                0x00000000808219b0       0xbc drivers/mtd/nand/built-in.o
 .text.nand_do_write_ops
                0x0000000080821a6c      0x248 drivers/mtd/nand/built-in.o
 .text.nand_write
                0x0000000080821cb4       0x48 drivers/mtd/nand/built-in.o
 .text.nand_do_write_oob
                0x0000000080821cfc      0x128 drivers/mtd/nand/built-in.o
 .text.nand_default_block_markbad
                0x0000000080821e24       0x98 drivers/mtd/nand/built-in.o
 .text.nand_write_oob
                0x0000000080821ebc       0x70 drivers/mtd/nand/built-in.o
 .text.nand_select_chip
                0x0000000080821f2c       0x38 drivers/mtd/nand/built-in.o
 .text.nand_transfer_oob
                0x0000000080821f64       0xb0 drivers/mtd/nand/built-in.o
 .text.onfi_crc16.constprop.15
                0x0000000080822014       0x3c drivers/mtd/nand/built-in.o
 .text.panic_nand_write
                0x0000000080822050       0x6e drivers/mtd/nand/built-in.o
 .text.nand_wait_status_ready.constprop.17
                0x00000000808220be       0x2a drivers/mtd/nand/built-in.o
 .text.nand_wait_ready
                0x00000000808220e8       0x34 drivers/mtd/nand/built-in.o
                0x00000000808220e8                nand_wait_ready
 .text.nand_command
                0x000000008082211c      0x13c drivers/mtd/nand/built-in.o
 .text.nand_command_lp
                0x0000000080822258      0x194 drivers/mtd/nand/built-in.o
 .text.nand_do_read_ops
                0x00000000808223ec      0x2d2 drivers/mtd/nand/built-in.o
 *fill*         0x00000000808226be        0x2 
 .text.nand_read_oob
                0x00000000808226c0      0x1e0 drivers/mtd/nand/built-in.o
 .text.nand_read
                0x00000000808228a0       0x48 drivers/mtd/nand/built-in.o
 .text.nand_check_erased_ecc_chunk
                0x00000000808228e8       0x76 drivers/mtd/nand/built-in.o
                0x00000000808228e8                nand_check_erased_ecc_chunk
 .text.nand_read_page_syndrome
                0x000000008082295e      0x114 drivers/mtd/nand/built-in.o
 .text.nand_read_subpage
                0x0000000080822a72      0x1ec drivers/mtd/nand/built-in.o
 .text.nand_read_page_hwecc
                0x0000000080822c5e      0x114 drivers/mtd/nand/built-in.o
 .text.nand_read_page_hwecc_oob_first
                0x0000000080822d72      0x108 drivers/mtd/nand/built-in.o
 .text.nand_erase_nand
                0x0000000080822e7a      0x1b4 drivers/mtd/nand/built-in.o
                0x0000000080822e7a                nand_erase_nand
 .text.nand_block_markbad
                0x000000008082302e       0x8e drivers/mtd/nand/built-in.o
 .text.nand_erase
                0x00000000808230bc        0x6 drivers/mtd/nand/built-in.o
 *fill*         0x00000000808230c2        0x2 
 .text.nand_scan_ident
                0x00000000808230c4      0xd38 drivers/mtd/nand/built-in.o
                0x00000000808230c4                nand_scan_ident
 .text.nand_scan_tail
                0x0000000080823dfc      0x45c drivers/mtd/nand/built-in.o
                0x0000000080823dfc                nand_scan_tail
 .text.nand_scan
                0x0000000080824258       0x18 drivers/mtd/nand/built-in.o
                0x0000000080824258                nand_scan
 .text.omap_nand_hwcontrol
                0x0000000080824270       0x54 drivers/mtd/nand/built-in.o
 .text.omap_dev_ready
                0x00000000808242c4       0x1c drivers/mtd/nand/built-in.o
 .text.omap_enable_hwecc
                0x00000000808242e0       0x98 drivers/mtd/nand/built-in.o
 .text.omap_calculate_ecc
                0x0000000080824378      0x104 drivers/mtd/nand/built-in.o
 .text.omap_reverse_list
                0x000000008082447c       0x1e drivers/mtd/nand/built-in.o
 .text.omap_read_page_bch
                0x000000008082449a      0x132 drivers/mtd/nand/built-in.o
 .text.omap_correct_data_bch
                0x00000000808245cc      0x124 drivers/mtd/nand/built-in.o
 .text.omap_nand_read_prefetch
                0x00000000808246f0      0x104 drivers/mtd/nand/built-in.o
 .text.board_nand_init
                0x00000000808247f4      0x16c drivers/mtd/nand/built-in.o
                0x00000000808247f4                board_nand_init
 .text.elm_check_error
                0x0000000080824960      0x174 drivers/mtd/nand/built-in.o
                0x0000000080824960                elm_check_error
 .text.elm_config
                0x0000000080824ad4       0x48 drivers/mtd/nand/built-in.o
                0x0000000080824ad4                elm_config
 .text.elm_reset
                0x0000000080824b1c       0x28 drivers/mtd/nand/built-in.o
                0x0000000080824b1c                elm_reset
 .text.elm_init
                0x0000000080824b44       0x14 drivers/mtd/nand/built-in.o
                0x0000000080824b44                elm_init
 .text.spi_flash_probe
                0x0000000080824b58       0x4a drivers/mtd/spi/built-in.o
                0x0000000080824b58                spi_flash_probe
 .text.spi_flash_free
                0x0000000080824ba2       0x14 drivers/mtd/spi/built-in.o
                0x0000000080824ba2                spi_flash_free
 .text.spi_flash_read_common
                0x0000000080824bb6       0x38 drivers/mtd/spi/built-in.o
                0x0000000080824bb6                spi_flash_read_common
 .text.read_sr  0x0000000080824bee       0x1e drivers/mtd/spi/built-in.o
 .text.spi_flash_write_common
                0x0000000080824c0c       0xcc drivers/mtd/spi/built-in.o
                0x0000000080824c0c                spi_flash_write_common
 .text.spi_flash_cmd_erase_ops
                0x0000000080824cd8       0x90 drivers/mtd/spi/built-in.o
                0x0000000080824cd8                spi_flash_cmd_erase_ops
 .text.spi_flash_cmd_write_ops
                0x0000000080824d68       0x98 drivers/mtd/spi/built-in.o
                0x0000000080824d68                spi_flash_cmd_write_ops
 .text.spi_flash_copy_mmap
                0x0000000080824e00        0x4 drivers/mtd/spi/built-in.o
                0x0000000080824e00                spi_flash_copy_mmap
 .text.spi_flash_cmd_read_ops
                0x0000000080824e04       0xc6 drivers/mtd/spi/built-in.o
                0x0000000080824e04                spi_flash_cmd_read_ops
 *fill*         0x0000000080824eca        0x2 
 .text.spi_flash_scan
                0x0000000080824ecc      0x2cc drivers/mtd/spi/built-in.o
                0x0000000080824ecc                spi_flash_scan
 .text.spi_flash_read_write
                0x0000000080825198       0x40 drivers/mtd/spi/built-in.o
 .text.spi_flash_cmd_read
                0x00000000808251d8       0x12 drivers/mtd/spi/built-in.o
                0x00000000808251d8                spi_flash_cmd_read
 .text.spi_flash_cmd
                0x00000000808251ea       0x18 drivers/mtd/spi/built-in.o
                0x00000000808251ea                spi_flash_cmd
 .text.spi_flash_cmd_write
                0x0000000080825202       0x12 drivers/mtd/spi/built-in.o
                0x0000000080825202                spi_flash_cmd_write
 .text.cpsw_gmii_sel_am3352
                0x0000000080825214       0x78 drivers/net/built-in.o
 .text.cpsw_eth_stop
                0x000000008082528c       0x30 drivers/net/built-in.o
 .text.cpsw_eth_ofdata_to_platdata
                0x00000000808252bc      0x390 drivers/net/built-in.o
 .text.cpsw_ale_read.isra.0
                0x000000008082564c       0x14 drivers/net/built-in.o
 .text.cpsw_ale_match_free
                0x0000000080825660       0x2e drivers/net/built-in.o
 .text.cpsw_ale_find_ageable
                0x000000008082568e       0x34 drivers/net/built-in.o
 .text.cpsw_ale_match_addr
                0x00000000808256c2       0x6a drivers/net/built-in.o
 .text.cpsw_ale_write.isra.1
                0x000000008082572c       0x16 drivers/net/built-in.o
 *fill*         0x0000000080825742        0x2 
 .text.cpsw_mdio_read
                0x0000000080825744       0x80 drivers/net/built-in.o
 .text.cpsw_mdio_write
                0x00000000808257c4       0x78 drivers/net/built-in.o
 .text.cpdma_submit
                0x000000008082583c       0x4e drivers/net/built-in.o
 .text.cpsw_eth_free_pkt
                0x000000008082588a       0x1a drivers/net/built-in.o
 .text.cpdma_process
                0x00000000808258a4       0x48 drivers/net/built-in.o
 .text.cpsw_eth_recv
                0x00000000808258ec       0x2c drivers/net/built-in.o
 .text.cpsw_eth_send
                0x0000000080825918       0x5c drivers/net/built-in.o
 .text.cpsw_ale_add_mcast.constprop.9
                0x0000000080825974       0xc8 drivers/net/built-in.o
 .text.cpsw_eth_start
                0x0000000080825a3c      0x368 drivers/net/built-in.o
 .text._cpsw_register
                0x0000000080825da4      0x110 drivers/net/built-in.o
                0x0000000080825da4                _cpsw_register
 .text.cpsw_eth_probe
                0x0000000080825eb4       0x12 drivers/net/built-in.o
 *fill*         0x0000000080825ec6        0x2 
 .text.cpsw_am33xx_cm_get_macid
                0x0000000080825ec8       0x78 drivers/net/built-in.o
 .text.davinci_emac_3517_get_macid
                0x0000000080825f40       0x78 drivers/net/built-in.o
 .text.ti_cm_get_macid
                0x0000000080825fb8       0xa0 drivers/net/built-in.o
                0x0000000080825fb8                ti_cm_get_macid
 .text.genphy_shutdown
                0x0000000080826058        0x4 drivers/net/phy/built-in.o
                0x0000000080826058                genphy_shutdown
 .text.genphy_restart_aneg
                0x000000008082605c       0x36 drivers/net/phy/built-in.o
                0x000000008082605c                genphy_restart_aneg
 .text.genphy_config_aneg
                0x0000000080826092      0x154 drivers/net/phy/built-in.o
                0x0000000080826092                genphy_config_aneg
 .text.genphy_config
                0x00000000808261e6       0x90 drivers/net/phy/built-in.o
                0x00000000808261e6                genphy_config
 *fill*         0x0000000080826276        0x2 
 .text.genphy_update_link
                0x0000000080826278       0xdc drivers/net/phy/built-in.o
                0x0000000080826278                genphy_update_link
 .text.genphy_parse_link
                0x0000000080826354      0x108 drivers/net/phy/built-in.o
                0x0000000080826354                genphy_parse_link
 .text.genphy_startup
                0x000000008082645c       0x16 drivers/net/phy/built-in.o
                0x000000008082645c                genphy_startup
 .text.phy_init
                0x0000000080826472        0xe drivers/net/phy/built-in.o
                0x0000000080826472                phy_init
 .text.phy_register
                0x0000000080826480       0x18 drivers/net/phy/built-in.o
                0x0000000080826480                phy_register
 .text.get_phy_id
                0x0000000080826498       0x40 drivers/net/phy/built-in.o
                0x0000000080826498                get_phy_id
 .text.get_phy_device_by_mask
                0x00000000808264d8      0x1c8 drivers/net/phy/built-in.o
 .text.phy_reset
                0x00000000808266a0       0x74 drivers/net/phy/built-in.o
                0x00000000808266a0                phy_reset
 .text.phy_find_by_mask
                0x0000000080826714       0x24 drivers/net/phy/built-in.o
                0x0000000080826714                phy_find_by_mask
 .text.phy_connect_dev
                0x0000000080826738       0x30 drivers/net/phy/built-in.o
                0x0000000080826738                phy_connect_dev
 .text.phy_connect
                0x0000000080826768       0x34 drivers/net/phy/built-in.o
                0x0000000080826768                phy_connect
 .text.phy_startup
                0x000000008082679c        0xc drivers/net/phy/built-in.o
                0x000000008082679c                phy_startup
 .text.board_phy_config
                0x00000000808267a8        0xc drivers/net/phy/built-in.o
                0x00000000808267a8                board_phy_config
 .text.phy_config
                0x00000000808267b4        0x4 drivers/net/phy/built-in.o
                0x00000000808267b4                phy_config
 .text.phy_get_interface_by_name
                0x00000000808267b8       0x28 drivers/net/phy/built-in.o
                0x00000000808267b8                phy_get_interface_by_name
 .text.phy_write.constprop.0
                0x00000000808267e0       0x18 drivers/net/phy/built-in.o
 .text.ar8031_config
                0x00000000808267f8       0x56 drivers/net/phy/built-in.o
 .text.ar8021_config
                0x000000008082684e       0x22 drivers/net/phy/built-in.o
 .text.ar8035_config
                0x0000000080826870       0xba drivers/net/phy/built-in.o
 *fill*         0x000000008082692a        0x2 
 .text.phy_atheros_init
                0x000000008082692c       0x24 drivers/net/phy/built-in.o
                0x000000008082692c                phy_atheros_init
 .text.smsc_startup
                0x0000000080826950       0x38 drivers/net/phy/built-in.o
 .text.phy_smsc_init
                0x0000000080826988       0x38 drivers/net/phy/built-in.o
                0x0000000080826988                phy_smsc_init
 .text._serial_putc
                0x00000000808269c0       0x22 drivers/serial/built-in.o
 .text.__serial_tstc
                0x00000000808269e2       0x10 drivers/serial/built-in.o
 .text.serial_stub_putc
                0x00000000808269f2        0x6 drivers/serial/built-in.o
 .text.serial_stub_tstc
                0x00000000808269f8        0x6 drivers/serial/built-in.o
 .text.serial_pre_remove
                0x00000000808269fe        0x4 drivers/serial/built-in.o
 .text.__serial_getc
                0x0000000080826a02       0x20 drivers/serial/built-in.o
 .text.serial_stub_getc
                0x0000000080826a22        0x6 drivers/serial/built-in.o
 .text.serial_post_probe
                0x0000000080826a28       0x74 drivers/serial/built-in.o
 .text.serial_stub_puts
                0x0000000080826a9c       0x16 drivers/serial/built-in.o
 *fill*         0x0000000080826ab2        0x2 
 .text.serial_init
                0x0000000080826ab4       0xd4 drivers/serial/built-in.o
                0x0000000080826ab4                serial_init
 .text.serial_initialize
                0x0000000080826b88        0x4 drivers/serial/built-in.o
                0x0000000080826b88                serial_initialize
 .text.serial_putc
                0x0000000080826b8c       0x12 drivers/serial/built-in.o
                0x0000000080826b8c                serial_putc
 .text.serial_puts
                0x0000000080826b9e       0x1e drivers/serial/built-in.o
                0x0000000080826b9e                serial_puts
 .text.serial_getc
                0x0000000080826bbc       0x10 drivers/serial/built-in.o
                0x0000000080826bbc                serial_getc
 .text.serial_tstc
                0x0000000080826bcc       0x10 drivers/serial/built-in.o
                0x0000000080826bcc                serial_tstc
 .text.serial_setbrg
                0x0000000080826bdc       0x1e drivers/serial/built-in.o
                0x0000000080826bdc                serial_setbrg
 *fill*         0x0000000080826bfa        0x2 
 .text.on_baudrate
                0x0000000080826bfc       0x9c drivers/serial/built-in.o
 .text.serial_stdio_init
                0x0000000080826c98        0x2 drivers/serial/built-in.o
                0x0000000080826c98                serial_stdio_init
 *fill*         0x0000000080826c9a        0x2 
 .text.ns16550_serial_ofdata_to_platdata
                0x0000000080826c9c       0x6c drivers/serial/built-in.o
                0x0000000080826c9c                ns16550_serial_ofdata_to_platdata
 .text.ns16550_writeb.isra.0
                0x0000000080826d08       0x14 drivers/serial/built-in.o
 .text.NS16550_setbrg
                0x0000000080826d1c       0x34 drivers/serial/built-in.o
 .text.ns16550_serial_setbrg
                0x0000000080826d50       0x24 drivers/serial/built-in.o
 .text.ns16550_readb.isra.1
                0x0000000080826d74       0x14 drivers/serial/built-in.o
 .text.ns16550_serial_pending
                0x0000000080826d88       0x28 drivers/serial/built-in.o
 .text.ns16550_serial_putc
                0x0000000080826db0       0x32 drivers/serial/built-in.o
 .text.ns16550_serial_getc
                0x0000000080826de2       0x26 drivers/serial/built-in.o
 .text.NS16550_init
                0x0000000080826e08       0x54 drivers/serial/built-in.o
                0x0000000080826e08                NS16550_init
 .text.ns16550_serial_probe
                0x0000000080826e5c       0x20 drivers/serial/built-in.o
                0x0000000080826e5c                ns16550_serial_probe
 .text.spi_do_alloc_slave
                0x0000000080826e7c       0x30 drivers/spi/built-in.o
                0x0000000080826e7c                spi_do_alloc_slave
 .text.omap3_spi_write_chconf
                0x0000000080826eac       0x20 drivers/spi/built-in.o
 .text.omap3_spi_set_enable
                0x0000000080826ecc       0x20 drivers/spi/built-in.o
 .text._omap3_spi_set_speed
                0x0000000080826eec       0x40 drivers/spi/built-in.o
 .text._omap3_spi_set_mode
                0x0000000080826f2c       0x52 drivers/spi/built-in.o
 .text.spi_init
                0x0000000080826f7e        0x2 drivers/spi/built-in.o
                0x0000000080826f7e                spi_init
 .text.spi_free_slave
                0x0000000080826f80        0x4 drivers/spi/built-in.o
                0x0000000080826f80                spi_free_slave
 .text.spi_claim_bus
                0x0000000080826f84       0x7c drivers/spi/built-in.o
                0x0000000080826f84                spi_claim_bus
 .text.spi_release_bus
                0x0000000080827000       0x26 drivers/spi/built-in.o
                0x0000000080827000                spi_release_bus
 *fill*         0x0000000080827026        0x2 
 .text.spi_setup_slave
                0x0000000080827028       0x9c drivers/spi/built-in.o
                0x0000000080827028                spi_setup_slave
 .text.spi_xfer
                0x00000000808270c4      0x33c drivers/spi/built-in.o
                0x00000000808270c4                spi_xfer
 .text.usb_get_dr_mode
                0x0000000080827400       0x48 drivers/usb/common/built-in.o
                0x0000000080827400                usb_get_dr_mode
 .text.usb_ep_autoconfig
                0x0000000080827448      0x11c drivers/usb/gadget/built-in.o
                0x0000000080827448                usb_ep_autoconfig
 .text.usb_ep_autoconfig_reset
                0x0000000080827564       0x28 drivers/usb/gadget/built-in.o
                0x0000000080827564                usb_ep_autoconfig_reset
 .text.usb_descriptor_fillbuf
                0x000000008082758c       0x38 drivers/usb/gadget/built-in.o
                0x000000008082758c                usb_descriptor_fillbuf
 .text.usb_gadget_config_buf
                0x00000000808275c4       0x54 drivers/usb/gadget/built-in.o
                0x00000000808275c4                usb_gadget_config_buf
 .text.usb_gadget_get_string
                0x0000000080827618       0xe6 drivers/usb/gadget/built-in.o
                0x0000000080827618                usb_gadget_get_string
 .text.count_configs
                0x00000000808276fe       0x48 drivers/usb/gadget/built-in.o
 .text.collect_langs
                0x0000000080827746       0x2a drivers/usb/gadget/built-in.o
 .text.composite_setup_complete
                0x0000000080827770        0x2 drivers/usb/gadget/built-in.o
 *fill*         0x0000000080827772        0x2 
 .text.composite_suspend
                0x0000000080827774       0x40 drivers/usb/gadget/built-in.o
 .text.composite_resume
                0x00000000808277b4       0x40 drivers/usb/gadget/built-in.o
 .text.g_dnl_unbind
                0x00000000808277f4       0x12 drivers/usb/gadget/built-in.o
 .text.lookup_string
                0x0000000080827806       0x2a drivers/usb/gadget/built-in.o
 .text.composite_unbind
                0x0000000080827830       0xb4 drivers/usb/gadget/built-in.o
 .text.composite_bind
                0x00000000808278e4       0xac drivers/usb/gadget/built-in.o
 .text.g_dnl_do_config
                0x0000000080827990       0x3c drivers/usb/gadget/built-in.o
 .text.reset_config.isra.0
                0x00000000808279cc       0x2c drivers/usb/gadget/built-in.o
 .text.composite_disconnect
                0x00000000808279f8       0x28 drivers/usb/gadget/built-in.o
 .text.composite_setup
                0x0000000080827a20      0x530 drivers/usb/gadget/built-in.o
 .text.usb_add_function
                0x0000000080827f50       0x74 drivers/usb/gadget/built-in.o
                0x0000000080827f50                usb_add_function
 .text.usb_interface_id
                0x0000000080827fc4       0x20 drivers/usb/gadget/built-in.o
                0x0000000080827fc4                usb_interface_id
 .text.usb_add_config
                0x0000000080827fe4       0x7a drivers/usb/gadget/built-in.o
                0x0000000080827fe4                usb_add_config
 .text.usb_string_id
                0x000000008082805e       0x1a drivers/usb/gadget/built-in.o
                0x000000008082805e                usb_string_id
 .text.usb_composite_register
                0x0000000080828078       0x3c drivers/usb/gadget/built-in.o
                0x0000000080828078                usb_composite_register
 .text.usb_composite_unregister
                0x00000000808280b4       0x20 drivers/usb/gadget/built-in.o
                0x00000000808280b4                usb_composite_unregister
 .text.g_dnl_set_serialnumber
                0x00000000808280d4       0x24 drivers/usb/gadget/built-in.o
                0x00000000808280d4                g_dnl_set_serialnumber
 .text.on_serialno
                0x00000000808280f8        0xc drivers/usb/gadget/built-in.o
 .text.g_dnl_bind_fixup
                0x0000000080828104        0x4 drivers/usb/gadget/built-in.o
                0x0000000080828104                g_dnl_bind_fixup
 .text.g_dnl_get_board_bcd_device_number
                0x0000000080828108        0x2 drivers/usb/gadget/built-in.o
                0x0000000080828108                g_dnl_get_board_bcd_device_number
 *fill*         0x000000008082810a        0x2 
 .text.g_dnl_bind
                0x000000008082810c       0xf4 drivers/usb/gadget/built-in.o
 .text.g_dnl_board_usb_cable_connected
                0x0000000080828200        0x6 drivers/usb/gadget/built-in.o
                0x0000000080828200                g_dnl_board_usb_cable_connected
 *fill*         0x0000000080828206        0x2 
 .text.g_dnl_detach
                0x0000000080828208        0xc drivers/usb/gadget/built-in.o
                0x0000000080828208                g_dnl_detach
 .text.g_dnl_trigger_detach
                0x0000000080828214        0xc drivers/usb/gadget/built-in.o
                0x0000000080828214                g_dnl_trigger_detach
 .text.g_dnl_clear_detach
                0x0000000080828220        0xc drivers/usb/gadget/built-in.o
                0x0000000080828220                g_dnl_clear_detach
 .text.g_dnl_register
                0x000000008082822c       0x2c drivers/usb/gadget/built-in.o
                0x000000008082822c                g_dnl_register
 .text.g_dnl_unregister
                0x0000000080828258        0xc drivers/usb/gadget/built-in.o
                0x0000000080828258                g_dnl_unregister
 .text.dfu_set_alt
                0x0000000080828264       0x10 drivers/usb/gadget/built-in.o
 .text.__dfu_get_alt
                0x0000000080828274        0x6 drivers/usb/gadget/built-in.o
 .text.dfu_disable
                0x000000008082827a        0xe drivers/usb/gadget/built-in.o
 .text.dfu_add  0x0000000080828288       0x98 drivers/usb/gadget/built-in.o
                0x0000000080828288                dfu_add
 .text.dfu_handle
                0x0000000080828320       0x80 drivers/usb/gadget/built-in.o
 .text.dnload_request_flush
                0x00000000808283a0       0x18 drivers/usb/gadget/built-in.o
 .text.dnload_request_complete
                0x00000000808283b8       0x24 drivers/usb/gadget/built-in.o
 .text.dfu_unbind
                0x00000000808283dc       0x4e drivers/usb/gadget/built-in.o
 *fill*         0x000000008082842a        0x2 
 .text.dfu_bind
                0x000000008082842c      0x160 drivers/usb/gadget/built-in.o
 .text.handle_upload.isra.9
                0x000000008082858c       0x1c drivers/usb/gadget/built-in.o
 .text.handle_getstatus
                0x00000000808285a8       0xac drivers/usb/gadget/built-in.o
 .text.state_dfu_error
                0x0000000080828654       0x36 drivers/usb/gadget/built-in.o
 *fill*         0x000000008082868a        0x2 
 .text.state_dfu_manifest_sync
                0x000000008082868c       0x40 drivers/usb/gadget/built-in.o
 .text.state_dfu_dnload_idle
                0x00000000808286cc       0x6c drivers/usb/gadget/built-in.o
 .text.state_dfu_dnbusy
                0x0000000080828738       0x16 drivers/usb/gadget/built-in.o
 .text.state_dfu_dnload_sync
                0x000000008082874e       0x26 drivers/usb/gadget/built-in.o
 .text.state_app_detach
                0x0000000080828774       0x26 drivers/usb/gadget/built-in.o
 *fill*         0x000000008082879a        0x2 
 .text.state_app_idle
                0x000000008082879c       0x3c drivers/usb/gadget/built-in.o
 .text.state_dfu_upload_idle
                0x00000000808287d8       0x62 drivers/usb/gadget/built-in.o
 *fill*         0x000000008082883a        0x2 
 .text.state_dfu_manifest
                0x000000008082883c       0x44 drivers/usb/gadget/built-in.o
 .text.state_dfu_idle
                0x0000000080828880       0x88 drivers/usb/gadget/built-in.o
 .text.rx_bytes_expected
                0x0000000080828908       0x3c drivers/usb/gadget/built-in.o
 .text.fastboot_start_ep
                0x0000000080828944       0x3c drivers/usb/gadget/built-in.o
 .text.fastboot_unbind
                0x0000000080828980       0x10 drivers/usb/gadget/built-in.o
 .text.fastboot_add
                0x0000000080828990       0x74 drivers/usb/gadget/built-in.o
 .text.fastboot_disable
                0x0000000080828a04       0x46 drivers/usb/gadget/built-in.o
 *fill*         0x0000000080828a4a        0x2 
 .text.fastboot_set_alt
                0x0000000080828a4c       0xbc drivers/usb/gadget/built-in.o
 .text.fastboot_complete
                0x0000000080828b08       0x18 drivers/usb/gadget/built-in.o
 .text.do_exit_on_complete
                0x0000000080828b20        0x4 drivers/usb/gadget/built-in.o
 .text.do_bootm_on_complete
                0x0000000080828b24       0x4c drivers/usb/gadget/built-in.o
 .text.compl_do_reset
                0x0000000080828b70        0xc drivers/usb/gadget/built-in.o
 .text.strcmp_l1
                0x0000000080828b7c       0x22 drivers/usb/gadget/built-in.o
 *fill*         0x0000000080828b9e        0x2 
 .text.fastboot_tx_write_str
                0x0000000080828ba0       0x4c drivers/usb/gadget/built-in.o
 .text.rx_handler_command
                0x0000000080828bec       0x94 drivers/usb/gadget/built-in.o
 .text.cb_oem   0x0000000080828c80       0x2c drivers/usb/gadget/built-in.o
 .text.cb_continue
                0x0000000080828cac       0x1c drivers/usb/gadget/built-in.o
 .text.cb_boot  0x0000000080828cc8       0x1c drivers/usb/gadget/built-in.o
 .text.cb_download
                0x0000000080828ce4       0x8c drivers/usb/gadget/built-in.o
 .text.rx_handler_dl_image
                0x0000000080828d70       0xc0 drivers/usb/gadget/built-in.o
 .text.cb_getvar
                0x0000000080828e30      0x144 drivers/usb/gadget/built-in.o
 .text.fastboot_bind
                0x0000000080828f74       0xac drivers/usb/gadget/built-in.o
 .text.cb_reboot
                0x0000000080829020       0x40 drivers/usb/gadget/built-in.o
 .text.rndis_response_complete
                0x0000000080829060        0x2 drivers/usb/gadget/built-in.o
 *fill*         0x0000000080829062        0x2 
 .text.tx_complete
                0x0000000080829064       0x34 drivers/usb/gadget/built-in.o
 .text.eth_resume
                0x0000000080829098        0x2 drivers/usb/gadget/built-in.o
 *fill*         0x000000008082909a        0x2 
 .text.usb_eth_recv
                0x000000008082909c       0x44 drivers/usb/gadget/built-in.o
 .text.rx_complete
                0x00000000808290e0       0x88 drivers/usb/gadget/built-in.o
 .text.usb_eth_send
                0x0000000080829168       0xe8 drivers/usb/gadget/built-in.o
 .text.rndis_command_complete
                0x0000000080829250       0x28 drivers/usb/gadget/built-in.o
 .text.eth_unbind
                0x0000000080829278       0x5a drivers/usb/gadget/built-in.o
 *fill*         0x00000000808292d2        0x2 
 .text.rndis_control_ack_complete
                0x00000000808292d4       0x4c drivers/usb/gadget/built-in.o
 .text.rndis_control_ack
                0x0000000080829320       0x68 drivers/usb/gadget/built-in.o
 .text.nibble   0x0000000080829388       0x2c drivers/usb/gadget/built-in.o
 .text.get_ether_addr
                0x00000000808293b4       0x6c drivers/usb/gadget/built-in.o
 .text.eth_bind
                0x0000000080829420      0x338 drivers/usb/gadget/built-in.o
 .text.usb_eth_probe
                0x0000000080829758       0x3c drivers/usb/gadget/built-in.o
 .text.eth_reset_config
                0x0000000080829794       0x6c drivers/usb/gadget/built-in.o
 .text.eth_disconnect
                0x0000000080829800        0x6 drivers/usb/gadget/built-in.o
 *fill*         0x0000000080829806        0x2 
 .text.set_ether_config.isra.5
                0x0000000080829808      0x128 drivers/usb/gadget/built-in.o
 .text.is_eth_addr_valid.part.7
                0x0000000080829930       0x6c drivers/usb/gadget/built-in.o
 .text.rx_submit.constprop.8
                0x000000008082999c       0x64 drivers/usb/gadget/built-in.o
 .text.usb_eth_free_pkt
                0x0000000080829a00       0x1c drivers/usb/gadget/built-in.o
 .text.eth_setup
                0x0000000080829a1c      0x2e8 drivers/usb/gadget/built-in.o
 .text.eth_setup_complete
                0x0000000080829d04        0x2 drivers/usb/gadget/built-in.o
 .text.eth_suspend
                0x0000000080829d06        0x2 drivers/usb/gadget/built-in.o
 .text.dm_usb_init
                0x0000000080829d08       0x30 drivers/usb/gadget/built-in.o
                0x0000000080829d08                dm_usb_init
 .text.usb_eth_start
                0x0000000080829d38      0x198 drivers/usb/gadget/built-in.o
 .text._usb_eth_halt
                0x0000000080829ed0       0x6c drivers/usb/gadget/built-in.o
                0x0000000080829ed0                _usb_eth_halt
 .text.usb_eth_stop
                0x0000000080829f3c        0xe drivers/usb/gadget/built-in.o
 *fill*         0x0000000080829f4a        0x2 
 .text.usb_ether_init
                0x0000000080829f4c       0x44 drivers/usb/gadget/built-in.o
                0x0000000080829f4c                usb_ether_init
 .text.rndis_add_response
                0x0000000080829f90       0x38 drivers/usb/gadget/built-in.o
 .text.rndis_signal_connect
                0x0000000080829fc8       0x50 drivers/usb/gadget/built-in.o
                0x0000000080829fc8                rndis_signal_connect
 .text.rndis_signal_disconnect
                0x000000008082a018       0x14 drivers/usb/gadget/built-in.o
                0x000000008082a018                rndis_signal_disconnect
 .text.rndis_set_host_mac
                0x000000008082a02c       0x10 drivers/usb/gadget/built-in.o
                0x000000008082a02c                rndis_set_host_mac
 .text.rndis_get_state
                0x000000008082a03c       0x14 drivers/usb/gadget/built-in.o
                0x000000008082a03c                rndis_get_state
 .text.rndis_msg_parser
                0x000000008082a050      0x450 drivers/usb/gadget/built-in.o
                0x000000008082a050                rndis_msg_parser
 .text.rndis_register
                0x000000008082a4a0       0x1c drivers/usb/gadget/built-in.o
                0x000000008082a4a0                rndis_register
 .text.rndis_deregister
                0x000000008082a4bc       0x18 drivers/usb/gadget/built-in.o
                0x000000008082a4bc                rndis_deregister
 .text.rndis_set_param_dev
                0x000000008082a4d4       0x20 drivers/usb/gadget/built-in.o
                0x000000008082a4d4                rndis_set_param_dev
 .text.rndis_set_param_vendor
                0x000000008082a4f4       0x18 drivers/usb/gadget/built-in.o
                0x000000008082a4f4                rndis_set_param_vendor
 .text.rndis_set_param_medium
                0x000000008082a50c       0x14 drivers/usb/gadget/built-in.o
                0x000000008082a50c                rndis_set_param_medium
 .text.rndis_add_hdr
                0x000000008082a520       0x4e drivers/usb/gadget/built-in.o
                0x000000008082a520                rndis_add_hdr
 *fill*         0x000000008082a56e        0x2 
 .text.rndis_free_response
                0x000000008082a570       0x40 drivers/usb/gadget/built-in.o
                0x000000008082a570                rndis_free_response
 .text.rndis_get_next_response
                0x000000008082a5b0       0x38 drivers/usb/gadget/built-in.o
                0x000000008082a5b0                rndis_get_next_response
 .text.rndis_uninit
                0x000000008082a5e8       0x30 drivers/usb/gadget/built-in.o
                0x000000008082a5e8                rndis_uninit
 .text.rndis_rm_hdr
                0x000000008082a618       0x5e drivers/usb/gadget/built-in.o
                0x000000008082a618                rndis_rm_hdr
 *fill*         0x000000008082a676        0x2 
 .text.rndis_init
                0x000000008082a678       0x1c drivers/usb/gadget/built-in.o
                0x000000008082a678                rndis_init
 .text.rndis_exit
                0x000000008082a694        0x2 drivers/usb/gadget/built-in.o
                0x000000008082a694                rndis_exit
 .text.usb_match_device
                0x000000008082a696       0x7c drivers/usb/host/built-in.o
 *fill*         0x000000008082a712        0x2 
 .text.usb_child_post_bind
                0x000000008082a714       0x54 drivers/usb/host/built-in.o
 .text.usb_match_one_id_intf.isra.0
                0x000000008082a768       0x50 drivers/usb/host/built-in.o
 .text.remove_inactive_children.isra.2
                0x000000008082a7b8       0x48 drivers/usb/host/built-in.o
 .text.usb_disable_asynch
                0x000000008082a800       0x14 drivers/usb/host/built-in.o
                0x000000008082a800                usb_disable_asynch
 .text.submit_int_msg
                0x000000008082a814       0x28 drivers/usb/host/built-in.o
                0x000000008082a814                submit_int_msg
 .text.submit_control_msg
                0x000000008082a83c       0x4e drivers/usb/host/built-in.o
                0x000000008082a83c                submit_control_msg
 .text.submit_bulk_msg
                0x000000008082a88a       0x24 drivers/usb/host/built-in.o
                0x000000008082a88a                submit_bulk_msg
 .text.usb_alloc_device
                0x000000008082a8ae       0x14 drivers/usb/host/built-in.o
                0x000000008082a8ae                usb_alloc_device
 .text.usb_reset_root_port
                0x000000008082a8c2       0x16 drivers/usb/host/built-in.o
                0x000000008082a8c2                usb_reset_root_port
 .text.usb_update_hub_device
                0x000000008082a8d8       0x16 drivers/usb/host/built-in.o
                0x000000008082a8d8                usb_update_hub_device
 .text.usb_get_max_xfer_size
                0x000000008082a8ee       0x14 drivers/usb/host/built-in.o
                0x000000008082a8ee                usb_get_max_xfer_size
 *fill*         0x000000008082a902        0x2 
 .text.usb_stop
                0x000000008082a904       0x64 drivers/usb/host/built-in.o
                0x000000008082a904                usb_stop
 .text.usb_get_bus
                0x000000008082a968       0x18 drivers/usb/host/built-in.o
                0x000000008082a968                usb_get_bus
 .text.usb_scan_device
                0x000000008082a980      0x1c8 drivers/usb/host/built-in.o
                0x000000008082a980                usb_scan_device
 .text.usb_scan_bus.isra.3
                0x000000008082ab48       0x4c drivers/usb/host/built-in.o
 .text.usb_init
                0x000000008082ab94      0x124 drivers/usb/host/built-in.o
                0x000000008082ab94                usb_init
 .text.usb_child_pre_probe
                0x000000008082acb8       0x46 drivers/usb/host/built-in.o
                0x000000008082acb8                usb_child_pre_probe
 .text.musb_gadget_enable
                0x000000008082acfe      0x198 drivers/usb/musb-new/built-in.o
 .text.musb_gadget_fifo_status
                0x000000008082ae96       0x26 drivers/usb/musb-new/built-in.o
 .text.musb_gadget_fifo_flush
                0x000000008082aebc       0x52 drivers/usb/musb-new/built-in.o
 .text.musb_gadget_get_frame
                0x000000008082af0e        0xe drivers/usb/musb-new/built-in.o
 .text.musb_gadget_wakeup
                0x000000008082af1c        0x4 drivers/usb/musb-new/built-in.o
 .text.musb_gadget_set_self_powered
                0x000000008082af20       0x16 drivers/usb/musb-new/built-in.o
 .text.musb_gadget_vbus_draw
                0x000000008082af36        0x4 drivers/usb/musb-new/built-in.o
 .text.txstate  0x000000008082af3a       0x70 drivers/usb/musb-new/built-in.o
 .text.musb_alloc_request
                0x000000008082afaa       0x22 drivers/usb/musb-new/built-in.o
                0x000000008082afaa                musb_alloc_request
 .text.musb_free_request
                0x000000008082afcc        0x6 drivers/usb/musb-new/built-in.o
                0x000000008082afcc                musb_free_request
 *fill*         0x000000008082afd2        0x2 
 .text.init_peripheral_ep
                0x000000008082afd4       0xb4 drivers/usb/musb-new/built-in.o
 .text.musb_gadget_pullup
                0x000000008082b088       0x38 drivers/usb/musb-new/built-in.o
 .text.musb_g_giveback
                0x000000008082b0c0       0x32 drivers/usb/musb-new/built-in.o
                0x000000008082b0c0                musb_g_giveback
 .text.rxstate  0x000000008082b0f2       0x9a drivers/usb/musb-new/built-in.o
 .text.musb_gadget_dequeue
                0x000000008082b18c       0x3e drivers/usb/musb-new/built-in.o
 .text.musb_gadget_disable
                0x000000008082b1ca       0x6c drivers/usb/musb-new/built-in.o
 .text.musb_g_tx
                0x000000008082b236       0xe4 drivers/usb/musb-new/built-in.o
                0x000000008082b236                musb_g_tx
 .text.musb_g_rx
                0x000000008082b31a       0x6c drivers/usb/musb-new/built-in.o
                0x000000008082b31a                musb_g_rx
 .text.musb_ep_restart
                0x000000008082b386       0x1e drivers/usb/musb-new/built-in.o
                0x000000008082b386                musb_ep_restart
 .text.musb_gadget_set_halt
                0x000000008082b3a4       0xb2 drivers/usb/musb-new/built-in.o
 .text.musb_gadget_queue
                0x000000008082b456       0x72 drivers/usb/musb-new/built-in.o
 .text.musb_gadget_setup
                0x000000008082b4c8       0x90 drivers/usb/musb-new/built-in.o
                0x000000008082b4c8                musb_gadget_setup
 .text.musb_gadget_start
                0x000000008082b558       0x2a drivers/usb/musb-new/built-in.o
                0x000000008082b558                musb_gadget_start
 .text.musb_g_ep0_disable
                0x000000008082b582        0x6 drivers/usb/musb-new/built-in.o
 .text.musb_g_ep0_dequeue
                0x000000008082b588        0x6 drivers/usb/musb-new/built-in.o
 .text.musb_g_ep0_halt
                0x000000008082b58e       0x5e drivers/usb/musb-new/built-in.o
 .text.musb_g_ep0_enable
                0x000000008082b5ec        0x6 drivers/usb/musb-new/built-in.o
 .text.ep0_txstate
                0x000000008082b5f2       0x94 drivers/usb/musb-new/built-in.o
 .text.musb_g_ep0_queue
                0x000000008082b686       0xb2 drivers/usb/musb-new/built-in.o
 .text.musb_g_ep0_irq
                0x000000008082b738      0x5f8 drivers/usb/musb-new/built-in.o
                0x000000008082b738                musb_g_ep0_irq
 .text.fifo_setup
                0x000000008082bd30      0x130 drivers/usb/musb-new/built-in.o
 .text.musb_write_fifo
                0x000000008082be60       0x70 drivers/usb/musb-new/built-in.o
                0x000000008082be60                musb_write_fifo
 .text.musb_read_fifo
                0x000000008082bed0       0x70 drivers/usb/musb-new/built-in.o
                0x000000008082bed0                musb_read_fifo
 .text.musb_load_testpacket
                0x000000008082bf40       0x24 drivers/usb/musb-new/built-in.o
                0x000000008082bf40                musb_load_testpacket
 .text.musb_start
                0x000000008082bf64       0x88 drivers/usb/musb-new/built-in.o
                0x000000008082bf64                musb_start
 .text.musb_stop
                0x000000008082bfec       0x32 drivers/usb/musb-new/built-in.o
                0x000000008082bfec                musb_stop
 .text.musb_interrupt
                0x000000008082c01e       0xca drivers/usb/musb-new/built-in.o
                0x000000008082c01e                musb_interrupt
 .text.musb_init_controller
                0x000000008082c0e8      0x444 drivers/usb/musb-new/built-in.o
                0x000000008082c0e8                musb_init_controller
 .text.musb_host_complete_urb
                0x000000008082c52c       0x16 drivers/usb/musb-new/built-in.o
 *fill*         0x000000008082c542        0x2 
 .text.construct_urb
                0x000000008082c544       0x90 drivers/usb/musb-new/built-in.o
 .text.musb_create_int_queue
                0x000000008082c5d4       0xac drivers/usb/musb-new/built-in.o
 .text.submit_urb
                0x000000008082c680       0x7c drivers/usb/musb-new/built-in.o
 .text.musb_submit_int_msg
                0x000000008082c6fc       0x46 drivers/usb/musb-new/built-in.o
 .text.musb_submit_bulk_msg
                0x000000008082c742       0x40 drivers/usb/musb-new/built-in.o
 .text.musb_submit_control_msg
                0x000000008082c782       0x78 drivers/usb/musb-new/built-in.o
 .text.musb_poll_int_queue
                0x000000008082c7fa       0x26 drivers/usb/musb-new/built-in.o
 .text._musb_reset_root_port.isra.1
                0x000000008082c820       0x6e drivers/usb/musb-new/built-in.o
 .text.musb_reset_root_port
                0x000000008082c88e        0xe drivers/usb/musb-new/built-in.o
 .text.musb_destroy_int_queue
                0x000000008082c89c       0x48 drivers/usb/musb-new/built-in.o
 .text.musb_lowlevel_init
                0x000000008082c8e4       0x74 drivers/usb/musb-new/built-in.o
                0x000000008082c8e4                musb_lowlevel_init
 .text.usb_gadget_handle_interrupts
                0x000000008082c958       0x24 drivers/usb/musb-new/built-in.o
                0x000000008082c958                usb_gadget_handle_interrupts
 .text.usb_gadget_register_driver
                0x000000008082c97c       0x78 drivers/usb/musb-new/built-in.o
                0x000000008082c97c                usb_gadget_register_driver
 .text.usb_gadget_unregister_driver
                0x000000008082c9f4       0x28 drivers/usb/musb-new/built-in.o
                0x000000008082c9f4                usb_gadget_unregister_driver
 .text.musb_h_tx_flush_fifo
                0x000000008082ca1c       0x40 drivers/usb/musb-new/built-in.o
 .text.musb_h_ep0_flush_fifo
                0x000000008082ca5c       0x3c drivers/usb/musb-new/built-in.o
 .text.musb_start_urb
                0x000000008082ca98      0x348 drivers/usb/musb-new/built-in.o
 .text.musb_advance_schedule
                0x000000008082cde0      0x13c drivers/usb/musb-new/built-in.o
 .text.musb_h_ep0_irq
                0x000000008082cf1c      0x1c4 drivers/usb/musb-new/built-in.o
                0x000000008082cf1c                musb_h_ep0_irq
 .text.musb_host_tx
                0x000000008082d0e0      0x11a drivers/usb/musb-new/built-in.o
                0x000000008082d0e0                musb_host_tx
 *fill*         0x000000008082d1fa        0x2 
 .text.musb_host_rx
                0x000000008082d1fc      0x274 drivers/usb/musb-new/built-in.o
                0x000000008082d1fc                musb_host_rx
 .text.musb_urb_enqueue
                0x000000008082d470      0x35a drivers/usb/musb-new/built-in.o
                0x000000008082d470                musb_urb_enqueue
 .text.musb_urb_dequeue
                0x000000008082d7ca       0xd4 drivers/usb/musb-new/built-in.o
                0x000000008082d7ca                musb_urb_dequeue
 .text.dsps_musb_enable
                0x000000008082d89e       0x1c drivers/usb/musb-new/built-in.o
 .text.dsps_musb_disable
                0x000000008082d8ba        0x2 drivers/usb/musb-new/built-in.o
 .text.dsps_musb_init
                0x000000008082d8bc       0x50 drivers/usb/musb-new/built-in.o
 .text.dsps_musb_exit
                0x000000008082d90c       0x14 drivers/usb/musb-new/built-in.o
 .text.dsps_interrupt
                0x000000008082d920       0x4c drivers/usb/musb-new/built-in.o
 .text.ti_musb_set_phy_power
                0x000000008082d96c       0x24 drivers/usb/musb-new/built-in.o
 .text.ti_musb_host_ofdata_to_platdata
                0x000000008082d990      0x130 drivers/usb/musb-new/built-in.o
 .text.ti_musb_host_remove
                0x000000008082dac0       0x10 drivers/usb/musb-new/built-in.o
 .text.ti_musb_host_probe
                0x000000008082dad0       0x3e drivers/usb/musb-new/built-in.o
 *fill*         0x000000008082db0e        0x2 
 .text.ti_musb_wrapper_bind
                0x000000008082db10       0x80 drivers/usb/musb-new/built-in.o
 .text.env_get_yesno
                0x000000008082db90       0x2a env/built-in.o
                0x000000008082db90                env_get_yesno
 .text.env_get_default
                0x000000008082dbba       0x2a env/built-in.o
                0x000000008082dbba                env_get_default
 .text.set_default_env
                0x000000008082dbe4       0x7c env/built-in.o
                0x000000008082dbe4                set_default_env
 .text.set_default_vars
                0x000000008082dc60       0x28 env/built-in.o
                0x000000008082dc60                set_default_vars
 .text.env_import
                0x000000008082dc88       0x84 env/built-in.o
                0x000000008082dc88                env_import
 .text.env_export
                0x000000008082dd0c       0x58 env/built-in.o
                0x000000008082dd0c                env_export
 .text.env_relocate
                0x000000008082dd64       0x28 env/built-in.o
                0x000000008082dd64                env_relocate
 .text.env_complete
                0x000000008082dd8c       0x8c env/built-in.o
                0x000000008082dd8c                env_complete
 .text.env_driver_lookup_default
                0x000000008082de18       0x20 env/built-in.o
                0x000000008082de18                env_driver_lookup_default
 .text.env_get_char
                0x000000008082de38       0x34 env/built-in.o
                0x000000008082de38                env_get_char
 .text.env_load
                0x000000008082de6c       0x18 env/built-in.o
                0x000000008082de6c                env_load
 .text.env_save
                0x000000008082de84       0x1e env/built-in.o
                0x000000008082de84                env_save
 *fill*         0x000000008082dea2        0x2 
 .text.env_init
                0x000000008082dea4       0x30 env/built-in.o
                0x000000008082dea4                env_init
 .text.regex_callback
                0x000000008082ded4       0xd8 env/built-in.o
 .text.env_attr_walk
                0x000000008082dfac       0xb4 env/built-in.o
                0x000000008082dfac                env_attr_walk
 .text.env_attr_lookup
                0x000000008082e060       0x4c env/built-in.o
                0x000000008082e060                env_attr_lookup
 .text.clear_callback
                0x000000008082e0ac        0x8 env/built-in.o
 .text.find_env_callback
                0x000000008082e0b4       0x40 env/built-in.o
 .text.on_callbacks
                0x000000008082e0f4       0x38 env/built-in.o
 .text.set_callback
                0x000000008082e12c       0x54 env/built-in.o
 .text.env_callback_init
                0x000000008082e180       0x78 env/built-in.o
                0x000000008082e180                env_callback_init
 .text.skip_num
                0x000000008082e1f8       0x44 env/built-in.o
 .text.clear_flags
                0x000000008082e23c        0x8 env/built-in.o
 .text.on_flags
                0x000000008082e244       0x38 env/built-in.o
 .text.env_flags_parse_vartype
                0x000000008082e27c       0x30 env/built-in.o
                0x000000008082e27c                env_flags_parse_vartype
 .text.env_flags_parse_varaccess
                0x000000008082e2ac       0x30 env/built-in.o
                0x000000008082e2ac                env_flags_parse_varaccess
 .text.set_flags
                0x000000008082e2dc       0x68 env/built-in.o
 .text.eth_validate_ethaddr_str
                0x000000008082e344       0x50 env/built-in.o
                0x000000008082e344                eth_validate_ethaddr_str
 .text.env_flags_init
                0x000000008082e394       0x90 env/built-in.o
                0x000000008082e394                env_flags_init
 .text.env_flags_validate
                0x000000008082e424      0x188 env/built-in.o
                0x000000008082e424                env_flags_validate
 .text.env_fat_save
                0x000000008082e5ac       0xa0 env/built-in.o
 .text.env_fat_load
                0x000000008082e64c       0x9c env/built-in.o
 .text.fs_probe_unsupported
                0x000000008082e6e8       0x14 fs/built-in.o
 .text.fs_exists_unsupported
                0x000000008082e6fc        0x4 fs/built-in.o
 .text.fs_size_unsupported
                0x000000008082e700        0x6 fs/built-in.o
 .text.fs_write_unsupported
                0x000000008082e706        0x6 fs/built-in.o
 .text.fs_close_unsupported
                0x000000008082e70c        0x2 fs/built-in.o
 .text.fs_uuid_unsupported
                0x000000008082e70e        0x6 fs/built-in.o
 .text.fs_opendir_unsupported
                0x000000008082e714        0x6 fs/built-in.o
 *fill*         0x000000008082e71a        0x2 
 .text.fs_get_info
                0x000000008082e71c       0x24 fs/built-in.o
 .text.fs_close
                0x000000008082e740       0x18 fs/built-in.o
 .text.fs_read_unsupported
                0x000000008082e758        0x6 fs/built-in.o
 .text.fs_ls_unsupported
                0x000000008082e75e        0x6 fs/built-in.o
 .text.fs_set_blk_dev
                0x000000008082e764       0x70 fs/built-in.o
                0x000000008082e764                fs_set_blk_dev
 .text.fs_set_blk_dev_with_part
                0x000000008082e7d4       0x60 fs/built-in.o
                0x000000008082e7d4                fs_set_blk_dev_with_part
 .text.fs_ls    0x000000008082e834       0x24 fs/built-in.o
                0x000000008082e834                fs_ls
 .text.fs_exists
                0x000000008082e858       0x20 fs/built-in.o
                0x000000008082e858                fs_exists
 .text.fs_size  0x000000008082e878       0x24 fs/built-in.o
                0x000000008082e878                fs_size
 .text.fs_read  0x000000008082e89c       0x60 fs/built-in.o
                0x000000008082e89c                fs_read
 .text.fs_write
                0x000000008082e8fc       0x60 fs/built-in.o
                0x000000008082e8fc                fs_write
 .text.fs_opendir
                0x000000008082e95c       0x50 fs/built-in.o
                0x000000008082e95c                fs_opendir
 .text.fs_readdir
                0x000000008082e9ac       0x3c fs/built-in.o
                0x000000008082e9ac                fs_readdir
 .text.fs_closedir
                0x000000008082e9e8       0x28 fs/built-in.o
                0x000000008082e9e8                fs_closedir
 .text.fs_ls_generic
                0x000000008082ea10       0x78 fs/built-in.o
 .text.do_size  0x000000008082ea88       0x40 fs/built-in.o
                0x000000008082ea88                do_size
 .text.do_load  0x000000008082eac8      0x180 fs/built-in.o
                0x000000008082eac8                do_load
 .text.do_ls    0x000000008082ec48       0x40 fs/built-in.o
                0x000000008082ec48                do_ls
 .text.file_exists
                0x000000008082ec88       0x1a fs/built-in.o
                0x000000008082ec88                file_exists
 *fill*         0x000000008082eca2        0x2 
 .text.do_save  0x000000008082eca4       0xf8 fs/built-in.o
                0x000000008082eca4                do_save
 .text.do_fs_type
                0x000000008082ed9c       0x4c fs/built-in.o
                0x000000008082ed9c                do_fs_type
 .text.get_fs   0x000000008082ede8        0x8 fs/built-in.o
                0x000000008082ede8                get_fs
 .text.ext4fs_free_node
                0x000000008082edf0       0x1c fs/built-in.o
                0x000000008082edf0                ext4fs_free_node
 .text.ext4fs_read_file
                0x000000008082ee0c      0x230 fs/built-in.o
                0x000000008082ee0c                ext4fs_read_file
 .text.ext4fs_ls
                0x000000008082f03c       0x58 fs/built-in.o
                0x000000008082f03c                ext4fs_ls
 .text.ext4fs_exists
                0x000000008082f094       0x14 fs/built-in.o
                0x000000008082f094                ext4fs_exists
 .text.ext4fs_size
                0x000000008082f0a8        0x4 fs/built-in.o
                0x000000008082f0a8                ext4fs_size
 .text.ext4fs_read
                0x000000008082f0ac       0x38 fs/built-in.o
                0x000000008082f0ac                ext4fs_read
 .text.ext4fs_probe
                0x000000008082f0e4       0x1e fs/built-in.o
                0x000000008082f0e4                ext4fs_probe
 *fill*         0x000000008082f102        0x2 
 .text.ext4_read_file
                0x000000008082f104       0x50 fs/built-in.o
                0x000000008082f104                ext4_read_file
 .text.ext4fs_uuid
                0x000000008082f154       0x20 fs/built-in.o
                0x000000008082f154                ext4fs_uuid
 .text.ext4fs_get_group_descriptor
                0x000000008082f174        0xa fs/built-in.o
                0x000000008082f174                ext4fs_get_group_descriptor
 .text.ext4fs_sb_get_free_blocks
                0x000000008082f17e       0x1c fs/built-in.o
                0x000000008082f17e                ext4fs_sb_get_free_blocks
 .text.ext4fs_sb_set_free_blocks
                0x000000008082f19a        0xa fs/built-in.o
                0x000000008082f19a                ext4fs_sb_set_free_blocks
 .text.ext4fs_bg_get_free_blocks
                0x000000008082f1a4       0x12 fs/built-in.o
                0x000000008082f1a4                ext4fs_bg_get_free_blocks
 .text.ext4fs_bg_get_block_id
                0x000000008082f1b6       0x1a fs/built-in.o
                0x000000008082f1b6                ext4fs_bg_get_block_id
 .text.ext4fs_bg_get_inode_id
                0x000000008082f1d0       0x1a fs/built-in.o
                0x000000008082f1d0                ext4fs_bg_get_inode_id
 .text.ext4fs_bg_get_inode_table_id
                0x000000008082f1ea       0x1a fs/built-in.o
                0x000000008082f1ea                ext4fs_bg_get_inode_table_id
 .text.ext4fs_div_roundup
                0x000000008082f204       0x14 fs/built-in.o
                0x000000008082f204                ext4fs_div_roundup
 .text.put_ext4
                0x000000008082f218      0x11c fs/built-in.o
                0x000000008082f218                put_ext4
 .text.ext4fs_set_block_bmap
                0x000000008082f334       0x6c fs/built-in.o
                0x000000008082f334                ext4fs_set_block_bmap
 .text.ext4fs_reset_block_bmap
                0x000000008082f3a0       0x64 fs/built-in.o
                0x000000008082f3a0                ext4fs_reset_block_bmap
 .text.ext4fs_set_inode_bmap
                0x000000008082f404       0x50 fs/built-in.o
                0x000000008082f404                ext4fs_set_inode_bmap
 .text.ext4fs_reset_inode_bmap
                0x000000008082f454       0x4c fs/built-in.o
                0x000000008082f454                ext4fs_reset_inode_bmap
 .text.ext4fs_checksum_update
                0x000000008082f4a0       0x5a fs/built-in.o
                0x000000008082f4a0                ext4fs_checksum_update
 *fill*         0x000000008082f4fa        0x2 
 .text.ext4fs_get_new_blk_no
                0x000000008082f4fc      0x2b0 fs/built-in.o
                0x000000008082f4fc                ext4fs_get_new_blk_no
 .text.ext4fs_get_new_inode_no
                0x000000008082f7ac      0x2a8 fs/built-in.o
                0x000000008082f7ac                ext4fs_get_new_inode_no
 .text.ext4fs_allocate_blocks
                0x000000008082fa54      0x408 fs/built-in.o
                0x000000008082fa54                ext4fs_allocate_blocks
 .text.ext4fs_read_inode
                0x000000008082fe5c       0xe0 fs/built-in.o
                0x000000008082fe5c                ext4fs_read_inode
 .text.ext4fs_iget
                0x000000008082ff3c       0x1c fs/built-in.o
                0x000000008082ff3c                ext4fs_iget
 .text.read_allocated_block
                0x000000008082ff58      0x618 fs/built-in.o
                0x000000008082ff58                read_allocated_block
 .text.ext4fs_update_parent_dentry
                0x0000000080830570      0x250 fs/built-in.o
                0x0000000080830570                ext4fs_update_parent_dentry
 .text.search_dir
                0x00000000808307c0       0xc0 fs/built-in.o
 .text.ext4fs_get_parent_inode_num
                0x0000000080830880      0x2dc fs/built-in.o
                0x0000000080830880                ext4fs_get_parent_inode_num
 .text.ext4fs_filename_unlink
                0x0000000080830b5c      0x114 fs/built-in.o
                0x0000000080830b5c                ext4fs_filename_unlink
 .text.ext4fs_reinit_global
                0x0000000080830c70       0x78 fs/built-in.o
                0x0000000080830c70                ext4fs_reinit_global
 .text.ext4fs_close
                0x0000000080830ce8       0x38 fs/built-in.o
                0x0000000080830ce8                ext4fs_close
 .text.ext4fs_iterate_dir
                0x0000000080830d20      0x1e4 fs/built-in.o
                0x0000000080830d20                ext4fs_iterate_dir
 .text.ext4fs_find_file1
                0x0000000080830f04      0x1c8 fs/built-in.o
 .text.ext4fs_find_file
                0x00000000808310cc       0x40 fs/built-in.o
                0x00000000808310cc                ext4fs_find_file
 .text.ext4fs_open
                0x000000008083110c       0x64 fs/built-in.o
                0x000000008083110c                ext4fs_open
 .text.ext4fs_mount
                0x0000000080831170       0x94 fs/built-in.o
                0x0000000080831170                ext4fs_mount
 .text.ext4fs_set_blk_dev
                0x0000000080831204       0x44 fs/built-in.o
                0x0000000080831204                ext4fs_set_blk_dev
 .text.ext4fs_devread
                0x0000000080831248       0x28 fs/built-in.o
                0x0000000080831248                ext4fs_devread
 .text.ext4_read_superblock
                0x0000000080831270       0x28 fs/built-in.o
                0x0000000080831270                ext4_read_superblock
 .text.ext4fs_update
                0x0000000080831298       0xc0 fs/built-in.o
 .text.ext4fs_get_bgdtable
                0x0000000080831358       0x74 fs/built-in.o
                0x0000000080831358                ext4fs_get_bgdtable
 .text.ext4fs_deinit
                0x00000000808313cc       0xf8 fs/built-in.o
                0x00000000808313cc                ext4fs_deinit
 .text.ext4fs_init
                0x00000000808314c4      0x1d4 fs/built-in.o
                0x00000000808314c4                ext4fs_init
 .text.ext4fs_write
                0x0000000080831698      0xbe8 fs/built-in.o
                0x0000000080831698                ext4fs_write
 .text.ext4_write_file
                0x0000000080832280       0x48 fs/built-in.o
                0x0000000080832280                ext4_write_file
 .text.ext4fs_dump_metadata
                0x00000000808322c8       0x3c fs/built-in.o
                0x00000000808322c8                ext4fs_dump_metadata
 .text.ext4fs_free_journal
                0x0000000080832304       0x84 fs/built-in.o
                0x0000000080832304                ext4fs_free_journal
 .text.ext4fs_log_gdt
                0x0000000080832388       0x84 fs/built-in.o
                0x0000000080832388                ext4fs_log_gdt
 .text.ext4fs_log_journal
                0x000000008083240c       0x9c fs/built-in.o
                0x000000008083240c                ext4fs_log_journal
 .text.ext4fs_put_metadata
                0x00000000808324a8       0x8c fs/built-in.o
                0x00000000808324a8                ext4fs_put_metadata
 .text.ext4fs_push_revoke_blk
                0x0000000080832534       0x94 fs/built-in.o
                0x0000000080832534                ext4fs_push_revoke_blk
 .text.ext4fs_free_revoke_blks
                0x00000000808325c8       0x3c fs/built-in.o
                0x00000000808325c8                ext4fs_free_revoke_blks
 .text.check_blknr_for_revoke
                0x0000000080832604       0x3c fs/built-in.o
                0x0000000080832604                check_blknr_for_revoke
 .text.recover_transaction
                0x0000000080832640       0xec fs/built-in.o
                0x0000000080832640                recover_transaction
 .text.print_jrnl_status
                0x000000008083272c       0x14 fs/built-in.o
                0x000000008083272c                print_jrnl_status
 .text.ext4fs_check_journal_state
                0x0000000080832740      0x1e8 fs/built-in.o
                0x0000000080832740                ext4fs_check_journal_state
 .text.ext4fs_init_journal
                0x0000000080832928      0x194 fs/built-in.o
                0x0000000080832928                ext4fs_init_journal
 .text.ext4fs_update_journal
                0x0000000080832abc      0x21c fs/built-in.o
                0x0000000080832abc                ext4fs_update_journal
 .text.ext2fs_crc16
                0x0000000080832cd8       0x24 fs/built-in.o
                0x0000000080832cd8                ext2fs_crc16
 .text.downcase
                0x0000000080832cfc       0x24 fs/built-in.o
 .text.disk_read
                0x0000000080832d20       0x30 fs/built-in.o
 .text.mkcksum  0x0000000080832d50       0x36 fs/built-in.o
 *fill*         0x0000000080832d86        0x2 
 .text.disk_write
                0x0000000080832d88       0x4c fs/built-in.o
 .text.flush_dirty_fat_buffer
                0x0000000080832dd4       0x60 fs/built-in.o
 .text.set_fatent_value
                0x0000000080832e34      0x148 fs/built-in.o
 .text.get_fatent
                0x0000000080832f7c      0x10c fs/built-in.o
 .text.next_dent
                0x0000000080833088       0xb0 fs/built-in.o
 .text.find_empty_cluster
                0x0000000080833138       0x18 fs/built-in.o
 .text.get_name
                0x0000000080833150       0x8c fs/built-in.o
 .text.get_cluster
                0x00000000808331dc       0xf0 fs/built-in.o
 .text.set_cluster
                0x00000000808332cc       0xf8 fs/built-in.o
 .text.read_bootsectandvi
                0x00000000808333c4       0xbc fs/built-in.o
 .text.fat_itr_root
                0x0000000080833480       0xe4 fs/built-in.o
 .text.set_name
                0x0000000080833564       0xcc fs/built-in.o
 .text.check_overflow
                0x0000000080833630       0x60 fs/built-in.o
 .text.slot2str
                0x0000000080833690       0x5c fs/built-in.o
 .text.fat_itr_next
                0x00000000808336ec       0xc6 fs/built-in.o
 .text.fat_itr_resolve
                0x00000000808337b2       0xe2 fs/built-in.o
 .text.flush_dir_table.constprop.8
                0x0000000080833894       0x8c fs/built-in.o
 .text.do_fat_write
                0x0000000080833920      0x848 fs/built-in.o
 .text.fat_set_blk_dev
                0x0000000080834168       0x8c fs/built-in.o
                0x0000000080834168                fat_set_blk_dev
 .text.file_fat_detectfs
                0x00000000808341f4       0xd4 fs/built-in.o
                0x00000000808341f4                file_fat_detectfs
 .text.fat_exists
                0x00000000808342c8       0x44 fs/built-in.o
                0x00000000808342c8                fat_exists
 .text.fat_size
                0x000000008083430c       0x78 fs/built-in.o
                0x000000008083430c                fat_size
 .text.file_fat_read_at
                0x0000000080834384      0x2e0 fs/built-in.o
                0x0000000080834384                file_fat_read_at
 .text.file_fat_read
                0x0000000080834664       0x22 fs/built-in.o
                0x0000000080834664                file_fat_read
 *fill*         0x0000000080834686        0x2 
 .text.fat_read_file
                0x0000000080834688       0x30 fs/built-in.o
                0x0000000080834688                fat_read_file
 .text.fat_opendir
                0x00000000808346b8       0x58 fs/built-in.o
                0x00000000808346b8                fat_opendir
 .text.fat_readdir
                0x0000000080834710       0x54 fs/built-in.o
                0x0000000080834710                fat_readdir
 .text.fat_closedir
                0x0000000080834764       0x16 fs/built-in.o
                0x0000000080834764                fat_closedir
 .text.fat_close
                0x000000008083477a        0x2 fs/built-in.o
                0x000000008083477a                fat_close
 .text.file_fat_write
                0x000000008083477c       0x48 fs/built-in.o
                0x000000008083477c                file_fat_write
 .text.fs_devread
                0x00000000808347c4      0x170 fs/built-in.o
                0x00000000808347c4                fs_devread
 .text.efi_load_pe
                0x0000000080834934      0x204 lib/built-in.o
                0x0000000080834934                efi_load_pe
 .text.indent_string
                0x0000000080834b38       0x20 lib/built-in.o
 .text.efi_uninstall_protocol_interface.isra.0.part.1
                0x0000000080834b58       0x60 lib/built-in.o
 .text.efi_search.isra.2.part.3
                0x0000000080834bb8       0x28 lib/built-in.o
 .text.efi_install_protocol_interface
                0x0000000080834be0       0xac lib/built-in.o
 .text.efi_locate_handle.isra.4
                0x0000000080834c8c       0x80 lib/built-in.o
 .text.__efi_entry_check
                0x0000000080834d0c       0x28 lib/built-in.o
                0x0000000080834d0c                __efi_entry_check
 .text.__efi_exit_check
                0x0000000080834d34       0x20 lib/built-in.o
                0x0000000080834d34                __efi_exit_check
 .text.efi_set_mem
                0x0000000080834d54       0x1c lib/built-in.o
 .text.efi_copy_mem
                0x0000000080834d70       0x1a lib/built-in.o
 .text.efi_calculate_crc32
                0x0000000080834d8a       0x1e lib/built-in.o
 .text.efi_uninstall_multiple_protocol_interfaces
                0x0000000080834da8       0x1c lib/built-in.o
 .text.efi_install_multiple_protocol_interfaces
                0x0000000080834dc4       0x6c lib/built-in.o
 .text.efi_locate_protocol
                0x0000000080834e30       0x74 lib/built-in.o
 .text.efi_locate_handle_buffer
                0x0000000080834ea4       0x6c lib/built-in.o
 .text.efi_protocols_per_handle
                0x0000000080834f10       0x8c lib/built-in.o
 .text.efi_open_protocol_information
                0x0000000080834f9c       0x14 lib/built-in.o
 .text.efi_open_protocol
                0x0000000080834fb0       0xa8 lib/built-in.o
 .text.efi_handle_protocol
                0x0000000080835058       0x14 lib/built-in.o
 .text.efi_disconnect_controller
                0x000000008083506c       0x14 lib/built-in.o
 .text.efi_connect_controller
                0x0000000080835080       0x14 lib/built-in.o
 .text.efi_set_watchdog_timer
                0x0000000080835094       0x14 lib/built-in.o
 .text.efi_stall
                0x00000000808350a8       0x16 lib/built-in.o
 *fill*         0x00000000808350be        0x2 
 .text.efi_get_next_monotonic_count
                0x00000000808350c0       0x28 lib/built-in.o
 .text.efi_unload_image
                0x00000000808350e8       0x3c lib/built-in.o
 .text.efi_locate_device_path
                0x0000000080835124       0x2c lib/built-in.o
 .text.efi_locate_handle_ext
                0x0000000080835150       0x1e lib/built-in.o
 *fill*         0x000000008083516e        0x2 
 .text.efi_register_protocol_notify
                0x0000000080835170       0x14 lib/built-in.o
 .text.efi_uninstall_protocol_interface_ext
                0x0000000080835184       0x24 lib/built-in.o
 .text.efi_reinstall_protocol_interface
                0x00000000808351a8       0x14 lib/built-in.o
 .text.efi_install_protocol_interface_ext
                0x00000000808351bc       0x20 lib/built-in.o
 .text.efi_close_event
                0x00000000808351dc       0x4c lib/built-in.o
 .text.efi_free_pool_ext
                0x0000000080835228       0x18 lib/built-in.o
 .text.efi_allocate_pool_ext
                0x0000000080835240       0x1c lib/built-in.o
 .text.efi_get_memory_map_ext
                0x000000008083525c       0x26 lib/built-in.o
 .text.efi_free_pages_ext
                0x0000000080835282       0x20 lib/built-in.o
 .text.efi_allocate_pages_ext
                0x00000000808352a2       0x20 lib/built-in.o
 *fill*         0x00000000808352c2        0x2 
 .text.efi_restore_tpl
                0x00000000808352c4       0x20 lib/built-in.o
 .text.efi_raise_tpl
                0x00000000808352e4       0x24 lib/built-in.o
 .text.efi_close_protocol
                0x0000000080835308       0x14 lib/built-in.o
 .text.efi_save_gd
                0x000000008083531c        0xc lib/built-in.o
                0x000000008083531c                efi_save_gd
 .text.efi_restore_gd
                0x0000000080835328       0x10 lib/built-in.o
                0x0000000080835328                efi_restore_gd
 .text.efi_exit
                0x0000000080835338       0x1c lib/built-in.o
 .text.__efi_nesting_inc
                0x0000000080835354       0x10 lib/built-in.o
                0x0000000080835354                __efi_nesting_inc
 .text.__efi_nesting_dec
                0x0000000080835364       0x10 lib/built-in.o
                0x0000000080835364                __efi_nesting_dec
 .text.efi_start_image
                0x0000000080835374       0x54 lib/built-in.o
 .text.efi_signal_event
                0x00000000808353c8       0x34 lib/built-in.o
                0x00000000808353c8                efi_signal_event
 .text.efi_exit_boot_services
                0x00000000808353fc       0x54 lib/built-in.o
 .text.efi_signal_event_ext
                0x0000000080835450       0x48 lib/built-in.o
 .text.efi_create_event
                0x0000000080835498       0x68 lib/built-in.o
                0x0000000080835498                efi_create_event
 .text.efi_create_event_ext
                0x0000000080835500       0x26 lib/built-in.o
 *fill*         0x0000000080835526        0x2 
 .text.efi_timer_check
                0x0000000080835528       0x80 lib/built-in.o
                0x0000000080835528                efi_timer_check
 .text.efi_check_event
                0x00000000808355a8       0x6c lib/built-in.o
 .text.efi_wait_for_event
                0x0000000080835614       0xa4 lib/built-in.o
 .text.efi_set_timer
                0x00000000808356b8       0xb4 lib/built-in.o
                0x00000000808356b8                efi_set_timer
 .text.efi_set_timer_ext
                0x000000008083576c       0x20 lib/built-in.o
 .text.efi_install_configuration_table
                0x000000008083578c       0x94 lib/built-in.o
                0x000000008083578c                efi_install_configuration_table
 .text.efi_install_configuration_table_ext
                0x0000000080835820       0x18 lib/built-in.o
 .text.efi_setup_loaded_image
                0x0000000080835838       0x60 lib/built-in.o
                0x0000000080835838                efi_setup_loaded_image
 .text.efi_load_image_from_path
                0x0000000080835898       0xcc lib/built-in.o
                0x0000000080835898                efi_load_image_from_path
 .text.efi_load_image
                0x0000000080835964       0x94 lib/built-in.o
 .text.efi_get_time_boottime
                0x00000000808359f8        0x8 lib/built-in.o
 .text.efi_reset_system_boottime
                0x0000000080835a00       0x1a lib/built-in.o
 .text.efi_reset_system_init
                0x0000000080835a1a        0x2 lib/built-in.o
                0x0000000080835a1a                efi_reset_system_init
 .text.efi_get_time_init
                0x0000000080835a1c        0x2 lib/built-in.o
                0x0000000080835a1c                efi_get_time_init
 *fill*         0x0000000080835a1e        0x2 
 .text.efi_runtime_relocate
                0x0000000080835a20       0xd0 lib/built-in.o
                0x0000000080835a20                efi_runtime_relocate
 .text.efi_set_virtual_address_map
                0x0000000080835af0      0x100 lib/built-in.o
 .text.efi_key_notify
                0x0000000080835bf0        0x2 lib/built-in.o
 *fill*         0x0000000080835bf2        0x2 
 .text.efi_cin_lock_std_in
                0x0000000080835bf4       0x14 lib/built-in.o
 .text.efi_cin_set_mode
                0x0000000080835c08       0x14 lib/built-in.o
 .text.efi_cin_get_mode
                0x0000000080835c1c       0x26 lib/built-in.o
 .text.efi_cout_test_string
                0x0000000080835c42        0xe lib/built-in.o
 .text.efi_cout_reset
                0x0000000080835c50       0x14 lib/built-in.o
 .text.efi_cin_reset
                0x0000000080835c64       0x14 lib/built-in.o
 .text.efi_cout_enable_cursor
                0x0000000080835c78       0x24 lib/built-in.o
 .text.efi_cout_set_cursor_position
                0x0000000080835c9c       0x2c lib/built-in.o
 .text.efi_cout_clear_screen
                0x0000000080835cc8       0x18 lib/built-in.o
 .text.efi_cout_set_attribute
                0x0000000080835ce0       0x44 lib/built-in.o
 .text.efi_cout_output_string
                0x0000000080835d24       0xb0 lib/built-in.o
 .text.efi_console_timer_notify
                0x0000000080835dd4       0x28 lib/built-in.o
 .text.efi_cout_set_mode
                0x0000000080835dfc       0x30 lib/built-in.o
 .text.efi_cin_read_key_stroke
                0x0000000080835e2c       0xc0 lib/built-in.o
 .text.efi_cout_query_mode
                0x0000000080835eec      0x160 lib/built-in.o
 .text.efi_console_register
                0x000000008083604c       0x9c lib/built-in.o
                0x000000008083604c                efi_console_register
 .text.efi_mem_cmp
                0x00000000808360e8       0x20 lib/built-in.o
 .text.efi_find_free_memory
                0x0000000080836108       0x74 lib/built-in.o
 .text.efi_add_memory_map
                0x000000008083617c      0x260 lib/built-in.o
                0x000000008083617c                efi_add_memory_map
 .text.efi_allocate_pages
                0x00000000808363dc       0x7c lib/built-in.o
                0x00000000808363dc                efi_allocate_pages
 .text.efi_alloc
                0x0000000080836458       0x38 lib/built-in.o
                0x0000000080836458                efi_alloc
 .text.efi_free_pages
                0x0000000080836490       0x28 lib/built-in.o
                0x0000000080836490                efi_free_pages
 .text.efi_allocate_pool
                0x00000000808364b8       0x34 lib/built-in.o
                0x00000000808364b8                efi_allocate_pool
 .text.efi_free_pool
                0x00000000808364ec       0x18 lib/built-in.o
                0x00000000808364ec                efi_free_pool
 .text.efi_get_memory_map
                0x0000000080836504       0x7c lib/built-in.o
                0x0000000080836504                efi_get_memory_map
 .text.efi_add_known_memory
                0x0000000080836580       0x48 lib/built-in.o
                0x0000000080836580                efi_add_known_memory
 .text.efi_memory_init
                0x00000000808365c8       0x58 lib/built-in.o
                0x00000000808365c8                efi_memory_init
 .text.efi_convert_device_node_to_text.isra.1
                0x0000000080836620      0x2ec lib/built-in.o
 .text.efi_convert_device_path_to_text
                0x000000008083690c       0x18 lib/built-in.o
 .text.efi_convert_device_node_to_text_ext
                0x0000000080836924       0x18 lib/built-in.o
 .text.dp_size  0x000000008083693c       0x34 lib/built-in.o
 .text.dp_alloc
                0x0000000080836970       0x1a lib/built-in.o
 *fill*         0x000000008083698a        0x2 
 .text.dp_fill  0x000000008083698c       0xf0 lib/built-in.o
 .text.dp_part_fill.part.1
                0x0000000080836a7c      0x11c lib/built-in.o
 .text.efi_dp_next
                0x0000000080836b98       0x22 lib/built-in.o
                0x0000000080836b98                efi_dp_next
 .text.efi_dp_match
                0x0000000080836bba       0x42 lib/built-in.o
                0x0000000080836bba                efi_dp_match
 .text.efi_dp_size
                0x0000000080836bfc       0x1a lib/built-in.o
                0x0000000080836bfc                efi_dp_size
 *fill*         0x0000000080836c16        0x2 
 .text.find_obj
                0x0000000080836c18       0x9c lib/built-in.o
 .text.efi_dp_find_obj
                0x0000000080836cb4       0x20 lib/built-in.o
                0x0000000080836cb4                efi_dp_find_obj
 .text.efi_dp_dup
                0x0000000080836cd4       0x24 lib/built-in.o
                0x0000000080836cd4                efi_dp_dup
 .text.efi_dp_from_part
                0x0000000080836cf8       0x64 lib/built-in.o
                0x0000000080836cf8                efi_dp_from_part
 .text.efi_dp_from_file
                0x0000000080836d5c       0xb0 lib/built-in.o
                0x0000000080836d5c                efi_dp_from_file
 .text.efi_dp_from_eth
                0x0000000080836e0c       0x58 lib/built-in.o
                0x0000000080836e0c                efi_dp_from_eth
 .text.efi_dp_from_mem
                0x0000000080836e64       0xa8 lib/built-in.o
                0x0000000080836e64                efi_dp_from_mem
 .text.efi_dp_split_file_path
                0x0000000080836f0c       0x42 lib/built-in.o
                0x0000000080836f0c                efi_dp_split_file_path
 .text.efi_file_flush
                0x0000000080836f4e        0xe lib/built-in.o
 .text.efi_file_setinfo
                0x0000000080836f5c       0x14 lib/built-in.o
 .text.efi_file_getpos
                0x0000000080836f70       0x1a lib/built-in.o
 .text.efi_file_delete
                0x0000000080836f8a       0x1c lib/built-in.o
 .text.set_blk_dev.isra.0
                0x0000000080836fa6        0x8 lib/built-in.o
 *fill*         0x0000000080836fae        0x2 
 .text.efi_file_getinfo
                0x0000000080836fb0       0xcc lib/built-in.o
 .text.efi_file_setpos
                0x000000008083707c       0x64 lib/built-in.o
 .text.efi_file_write
                0x00000000808370e0       0x64 lib/built-in.o
 .text.efi_file_read
                0x0000000080837144      0x120 lib/built-in.o
 .text.file_open
                0x0000000080837264      0x1c4 lib/built-in.o
 .text.efi_open_volume
                0x0000000080837428       0x26 lib/built-in.o
 *fill*         0x000000008083744e        0x2 
 .text.efi_file_open
                0x0000000080837450       0x38 lib/built-in.o
 .text.efi_file_close
                0x0000000080837488       0x1c lib/built-in.o
 .text.efi_file_from_path
                0x00000000808374a4       0xb4 lib/built-in.o
                0x00000000808374a4                efi_file_from_path
 .text.efi_simple_file_system
                0x0000000080837558       0x30 lib/built-in.o
                0x0000000080837558                efi_simple_file_system
 .text.efi_to_native
                0x0000000080837588       0x3c lib/built-in.o
 .text.prefix   0x00000000808375c4       0x22 lib/built-in.o
 .text.hex      0x00000000808375e6       0x2a lib/built-in.o
 .text.parse_attr.part.1
                0x0000000080837610       0x70 lib/built-in.o
 .text.efi_get_variable
                0x0000000080837680      0x16c lib/built-in.o
                0x0000000080837680                efi_get_variable
 .text.efi_get_next_variable
                0x00000000808377ec       0x14 lib/built-in.o
                0x00000000808377ec                efi_get_next_variable
 .text.efi_set_variable
                0x0000000080837800      0x198 lib/built-in.o
                0x0000000080837800                efi_set_variable
 .text.get_var.constprop.0
                0x0000000080837998       0x7c lib/built-in.o
 .text.efi_bootmgr_load
                0x0000000080837a14      0x118 lib/built-in.o
                0x0000000080837a14                efi_bootmgr_load
 .text.efi_disk_flush_blocks
                0x0000000080837b2c        0xe lib/built-in.o
 *fill*         0x0000000080837b3a        0x2 
 .text.efi_disk_reset
                0x0000000080837b3c       0x14 lib/built-in.o
 .text.efi_disk_add_dev.isra.0.part.1
                0x0000000080837b50       0xe4 lib/built-in.o
 .text.efi_disk_read_blocks
                0x0000000080837c34       0x4c lib/built-in.o
 .text.efi_disk_write_blocks
                0x0000000080837c80       0x4c lib/built-in.o
 .text.efi_fs_from_path
                0x0000000080837ccc       0x10 lib/built-in.o
                0x0000000080837ccc                efi_fs_from_path
 .text.efi_disk_register
                0x0000000080837cdc      0x128 lib/built-in.o
                0x0000000080837cdc                efi_disk_register
 .text.efi_net_push
                0x0000000080837e04       0x18 lib/built-in.o
 .text.efi_network_timer_notify
                0x0000000080837e1c       0x2c lib/built-in.o
 .text.efi_net_nvdata
                0x0000000080837e48       0x14 lib/built-in.o
 .text.efi_net_mcastiptomac
                0x0000000080837e5c       0x14 lib/built-in.o
 .text.efi_net_statistics
                0x0000000080837e70       0x14 lib/built-in.o
 .text.efi_net_station_address
                0x0000000080837e84       0x14 lib/built-in.o
 .text.efi_net_receive_filters
                0x0000000080837e98       0x14 lib/built-in.o
 .text.efi_net_shutdown
                0x0000000080837eac        0xe lib/built-in.o
 .text.efi_net_reset
                0x0000000080837eba        0xe lib/built-in.o
 .text.efi_net_get_status
                0x0000000080837ec8       0x3c lib/built-in.o
 .text.efi_net_initialize
                0x0000000080837f04       0x12 lib/built-in.o
 *fill*         0x0000000080837f16        0x2 
 .text.efi_net_transmit
                0x0000000080837f18       0x38 lib/built-in.o
 .text.efi_net_receive
                0x0000000080837f50       0xd0 lib/built-in.o
 .text.efi_net_stop
                0x0000000080838020        0xe lib/built-in.o
 .text.efi_net_start
                0x000000008083802e        0xe lib/built-in.o
 .text.efi_net_set_dhcp_ack
                0x000000008083803c       0x34 lib/built-in.o
                0x000000008083803c                efi_net_set_dhcp_ack
 .text.efi_net_register
                0x0000000080838070      0x1a4 lib/built-in.o
                0x0000000080838070                efi_net_register
 .text.efi_smbios_register
                0x0000000080838214       0x34 lib/built-in.o
                0x0000000080838214                efi_smbios_register
 .text.fdt_check_header
                0x0000000080838248       0x4c lib/built-in.o
                0x0000000080838248                fdt_check_header
 .text.fdt_offset_ptr
                0x0000000080838294       0x32 lib/built-in.o
                0x0000000080838294                fdt_offset_ptr
 *fill*         0x00000000808382c6        0x2 
 .text.fdt_next_tag
                0x00000000808382c8       0xa8 lib/built-in.o
                0x00000000808382c8                fdt_next_tag
 .text._fdt_check_node_offset
                0x0000000080838370       0x24 lib/built-in.o
                0x0000000080838370                _fdt_check_node_offset
 .text._fdt_check_prop_offset
                0x0000000080838394       0x24 lib/built-in.o
                0x0000000080838394                _fdt_check_prop_offset
 .text.fdt_next_node
                0x00000000808383b8       0x6e lib/built-in.o
                0x00000000808383b8                fdt_next_node
 .text.fdt_first_subnode
                0x0000000080838426       0x28 lib/built-in.o
                0x0000000080838426                fdt_first_subnode
 .text.fdt_next_subnode
                0x000000008083844e       0x2e lib/built-in.o
                0x000000008083844e                fdt_next_subnode
 .text._fdt_find_string
                0x000000008083847c       0x30 lib/built-in.o
                0x000000008083847c                _fdt_find_string
 .text.fdt_move
                0x00000000808384ac       0x2a lib/built-in.o
                0x00000000808384ac                fdt_move
 *fill*         0x00000000808384d6        0x2 
 .text.fdt_strerror
                0x00000000808384d8       0x3c lib/built-in.o
                0x00000000808384d8                fdt_strerror
 .text.fdt_address_cells
                0x0000000080838514       0x34 lib/built-in.o
                0x0000000080838514                fdt_address_cells
 .text.fdt_size_cells
                0x0000000080838548       0x34 lib/built-in.o
                0x0000000080838548                fdt_size_cells
 .text.overlay_phandle_add_offset
                0x000000008083857c       0x4e lib/built-in.o
 *fill*         0x00000000808385ca        0x2 
 .text.overlay_adjust_node_phandles
                0x00000000808385cc       0x5c lib/built-in.o
 .text.overlay_update_local_node_references
                0x0000000080838628       0xfa lib/built-in.o
 *fill*         0x0000000080838722        0x2 
 .text.overlay_get_target
                0x0000000080838724       0x7c lib/built-in.o
 .text.overlay_apply_node
                0x00000000808387a0       0xae lib/built-in.o
 *fill*         0x000000008083884e        0x2 
 .text.fdt_overlay_apply
                0x0000000080838850      0x430 lib/built-in.o
                0x0000000080838850                fdt_overlay_apply
 .text.fdt_path_next_separator
                0x0000000080838c80       0x2a lib/built-in.o
 .text._nextprop
                0x0000000080838caa       0x32 lib/built-in.o
 .text.fdt_string
                0x0000000080838cdc        0xa lib/built-in.o
                0x0000000080838cdc                fdt_string
 .text.fdt_get_mem_rsv
                0x0000000080838ce6       0x38 lib/built-in.o
                0x0000000080838ce6                fdt_get_mem_rsv
 .text.fdt_num_mem_rsv
                0x0000000080838d1e       0x22 lib/built-in.o
                0x0000000080838d1e                fdt_num_mem_rsv
 .text.fdt_subnode_offset_namelen
                0x0000000080838d40       0x7c lib/built-in.o
                0x0000000080838d40                fdt_subnode_offset_namelen
 .text.fdt_subnode_offset
                0x0000000080838dbc       0x1e lib/built-in.o
                0x0000000080838dbc                fdt_subnode_offset
 .text.fdt_get_name
                0x0000000080838dda       0x3a lib/built-in.o
                0x0000000080838dda                fdt_get_name
 .text.fdt_first_property_offset
                0x0000000080838e14       0x18 lib/built-in.o
                0x0000000080838e14                fdt_first_property_offset
 .text.fdt_next_property_offset
                0x0000000080838e2c       0x18 lib/built-in.o
                0x0000000080838e2c                fdt_next_property_offset
 .text.fdt_get_property_by_offset
                0x0000000080838e44       0x2e lib/built-in.o
                0x0000000080838e44                fdt_get_property_by_offset
 .text.fdt_get_property_namelen
                0x0000000080838e72       0x6e lib/built-in.o
                0x0000000080838e72                fdt_get_property_namelen
 .text.fdt_get_property
                0x0000000080838ee0       0x22 lib/built-in.o
                0x0000000080838ee0                fdt_get_property
 .text.fdt_getprop_namelen
                0x0000000080838f02       0x12 lib/built-in.o
                0x0000000080838f02                fdt_getprop_namelen
 .text.fdt_getprop_by_offset
                0x0000000080838f14       0x26 lib/built-in.o
                0x0000000080838f14                fdt_getprop_by_offset
 .text.fdt_getprop
                0x0000000080838f3a       0x22 lib/built-in.o
                0x0000000080838f3a                fdt_getprop
 .text.fdt_get_phandle
                0x0000000080838f5c       0x40 lib/built-in.o
                0x0000000080838f5c                fdt_get_phandle
 .text.fdt_get_max_phandle
                0x0000000080838f9c       0x42 lib/built-in.o
                0x0000000080838f9c                fdt_get_max_phandle
 *fill*         0x0000000080838fde        0x2 
 .text.fdt_get_alias_namelen
                0x0000000080838fe0       0x2c lib/built-in.o
                0x0000000080838fe0                fdt_get_alias_namelen
 .text.fdt_path_offset_namelen
                0x000000008083900c       0x8c lib/built-in.o
                0x000000008083900c                fdt_path_offset_namelen
 .text.fdt_path_offset
                0x0000000080839098       0x1a lib/built-in.o
                0x0000000080839098                fdt_path_offset
 .text.fdt_get_alias
                0x00000000808390b2       0x1a lib/built-in.o
                0x00000000808390b2                fdt_get_alias
 .text.fdt_get_path
                0x00000000808390cc       0xbe lib/built-in.o
                0x00000000808390cc                fdt_get_path
 .text.fdt_supernode_atdepth_offset
                0x000000008083918a       0x72 lib/built-in.o
                0x000000008083918a                fdt_supernode_atdepth_offset
 .text.fdt_node_depth
                0x00000000808391fc       0x1e lib/built-in.o
                0x00000000808391fc                fdt_node_depth
 .text.fdt_parent_offset
                0x000000008083921a       0x20 lib/built-in.o
                0x000000008083921a                fdt_parent_offset
 .text.fdt_node_offset_by_phandle
                0x000000008083923a       0x42 lib/built-in.o
                0x000000008083923a                fdt_node_offset_by_phandle
 .text.fdt_stringlist_contains
                0x000000008083927c       0x48 lib/built-in.o
                0x000000008083927c                fdt_stringlist_contains
 .text.fdt_stringlist_count
                0x00000000808392c4       0x38 lib/built-in.o
                0x00000000808392c4                fdt_stringlist_count
 .text.fdt_stringlist_get
                0x00000000808392fc       0x60 lib/built-in.o
                0x00000000808392fc                fdt_stringlist_get
 .text.fdt_node_check_compatible
                0x000000008083935c       0x28 lib/built-in.o
                0x000000008083935c                fdt_node_check_compatible
 .text._fdt_blocks_misordered
                0x0000000080839384       0x36 lib/built-in.o
 .text._fdt_splice
                0x00000000808393ba       0x4a lib/built-in.o
 .text._fdt_splice_mem_rsv
                0x0000000080839404       0x2c lib/built-in.o
 .text._fdt_splice_struct
                0x0000000080839430       0x26 lib/built-in.o
 .text._fdt_packblocks
                0x0000000080839456       0x5c lib/built-in.o
 .text._fdt_find_add_string
                0x00000000808394b2       0x5e lib/built-in.o
 .text._fdt_add_property
                0x0000000080839510       0x5a lib/built-in.o
 .text._fdt_rw_check_header
                0x000000008083956a       0x38 lib/built-in.o
 .text.fdt_add_mem_rsv
                0x00000000808395a2       0x58 lib/built-in.o
                0x00000000808395a2                fdt_add_mem_rsv
 .text.fdt_del_mem_rsv
                0x00000000808395fa       0x3c lib/built-in.o
                0x00000000808395fa                fdt_del_mem_rsv
 .text.fdt_setprop_placeholder
                0x0000000080839636       0x70 lib/built-in.o
                0x0000000080839636                fdt_setprop_placeholder
 .text.fdt_setprop
                0x00000000808396a6       0x26 lib/built-in.o
                0x00000000808396a6                fdt_setprop
 .text.fdt_delprop
                0x00000000808396cc       0x3e lib/built-in.o
                0x00000000808396cc                fdt_delprop
 .text.fdt_add_subnode_namelen
                0x000000008083970a       0x98 lib/built-in.o
                0x000000008083970a                fdt_add_subnode_namelen
 .text.fdt_add_subnode
                0x00000000808397a2       0x1e lib/built-in.o
                0x00000000808397a2                fdt_add_subnode
 .text.fdt_del_node
                0x00000000808397c0       0x30 lib/built-in.o
                0x00000000808397c0                fdt_del_node
 .text.fdt_open_into
                0x00000000808397f0       0xec lib/built-in.o
                0x00000000808397f0                fdt_open_into
 .text.fdt_pack
                0x00000000808398dc       0x34 lib/built-in.o
                0x00000000808398dc                fdt_pack
 .text.fdt_setprop_inplace_namelen_partial
                0x0000000080839910       0x32 lib/built-in.o
                0x0000000080839910                fdt_setprop_inplace_namelen_partial
 .text.fdt_setprop_inplace
                0x0000000080839942       0x4a lib/built-in.o
                0x0000000080839942                fdt_setprop_inplace
 .text._fdt_node_end_offset
                0x000000008083998c       0x28 lib/built-in.o
                0x000000008083998c                _fdt_node_end_offset
 .text.utf16_strlen
                0x00000000808399b4       0x10 lib/built-in.o
                0x00000000808399b4                utf16_strlen
 .text.utf16_strnlen
                0x00000000808399c4       0x14 lib/built-in.o
                0x00000000808399c4                utf16_strnlen
 .text.utf16_to_utf8
                0x00000000808399d8       0xd4 lib/built-in.o
                0x00000000808399d8                utf16_to_utf8
 .text.crc16_ccitt
                0x0000000080839aac       0x28 lib/built-in.o
                0x0000000080839aac                crc16_ccitt
 .text.fdtdec_get_int
                0x0000000080839ad4       0x1c lib/built-in.o
                0x0000000080839ad4                fdtdec_get_int
 .text.smbios_write_type127
                0x0000000080839af0       0x2c lib/built-in.o
 .text.smbios_write_type32
                0x0000000080839b1c       0x2c lib/built-in.o
 .text.smbios_string_table_len
                0x0000000080839b48       0x1c lib/built-in.o
 .text.smbios_add_string
                0x0000000080839b64       0x3a lib/built-in.o
 *fill*         0x0000000080839b9e        0x2 
 .text.smbios_write_type3
                0x0000000080839ba0       0x50 lib/built-in.o
 .text.smbios_write_type2
                0x0000000080839bf0       0x5c lib/built-in.o
 .text.smbios_write_type0
                0x0000000080839c4c       0x90 lib/built-in.o
 .text.smbios_write_type1
                0x0000000080839cdc       0x78 lib/built-in.o
 .text.smbios_write_type4
                0x0000000080839d54       0x80 lib/built-in.o
 .text.write_smbios_table
                0x0000000080839dd4       0xc0 lib/built-in.o
                0x0000000080839dd4                write_smbios_table
 .text.initcall_run_list
                0x0000000080839e94       0x40 lib/built-in.o
                0x0000000080839e94                initcall_run_list
 .text.lmb_add_region
                0x0000000080839ed4       0xf2 lib/built-in.o
 .text.lmb_init
                0x0000000080839fc6       0x16 lib/built-in.o
                0x0000000080839fc6                lmb_init
 .text.lmb_add  0x0000000080839fdc        0x4 lib/built-in.o
                0x0000000080839fdc                lmb_add
 .text.lmb_free
                0x0000000080839fe0       0x78 lib/built-in.o
                0x0000000080839fe0                lmb_free
 .text.lmb_reserve
                0x000000008083a058        0x6 lib/built-in.o
                0x000000008083a058                lmb_reserve
 .text.__lmb_alloc_base
                0x000000008083a05e       0xb4 lib/built-in.o
                0x000000008083a05e                __lmb_alloc_base
 *fill*         0x000000008083a112        0x2 
 .text.lmb_alloc_base
                0x000000008083a114       0x20 lib/built-in.o
                0x000000008083a114                lmb_alloc_base
 .text.lmb_alloc
                0x000000008083a134        0x6 lib/built-in.o
                0x000000008083a134                lmb_alloc
 .text.board_lmb_reserve
                0x000000008083a13a        0x2 lib/built-in.o
                0x000000008083a13a                board_lmb_reserve
 .text.MD5Transform
                0x000000008083a13c      0x6a0 lib/built-in.o
 .text.MD5Update
                0x000000008083a7dc       0x80 lib/built-in.o
 .text.MD5Final
                0x000000008083a85c       0x6c lib/built-in.o
 .text.md5_wd   0x000000008083a8c8       0x64 lib/built-in.o
                0x000000008083a8c8                md5_wd
 .text.string_to_ip
                0x000000008083a92c       0x4a lib/built-in.o
                0x000000008083a92c                string_to_ip
 *fill*         0x000000008083a976        0x2 
 .text.qsort    0x000000008083a978       0x90 lib/built-in.o
                0x000000008083a978                qsort
 .text.strcmp_compar
                0x000000008083aa08        0x8 lib/built-in.o
                0x000000008083aa08                strcmp_compar
 .text.merge    0x000000008083aa10       0x38 lib/built-in.o
 .text.list_sort
                0x000000008083aa48       0xf0 lib/built-in.o
                0x000000008083aa48                list_sort
 .text.subtract_modulus
                0x000000008083ab38       0x32 lib/built-in.o
 .text.montgomery_mul
                0x000000008083ab6a       0xf6 lib/built-in.o
 .text.rsa_convert_big_endian
                0x000000008083ac60       0x1c lib/built-in.o
 .text.rsa_mod_exp_sw
                0x000000008083ac7c      0x214 lib/built-in.o
                0x000000008083ac7c                rsa_mod_exp_sw
 .text.sha1_process
                0x000000008083ae90      0xef0 lib/built-in.o
 .text.sha1_update.part.0
                0x000000008083bd80       0x76 lib/built-in.o
 *fill*         0x000000008083bdf6        0x2 
 .text.sha1_starts
                0x000000008083bdf8       0x34 lib/built-in.o
                0x000000008083bdf8                sha1_starts
 .text.sha1_update
                0x000000008083be2c        0x8 lib/built-in.o
                0x000000008083be2c                sha1_update
 .text.sha1_finish
                0x000000008083be34       0xc8 lib/built-in.o
                0x000000008083be34                sha1_finish
 .text.sha1_csum_wd
                0x000000008083befc       0x40 lib/built-in.o
                0x000000008083befc                sha1_csum_wd
 .text.sha256_process
                0x000000008083bf3c     0x1c64 lib/built-in.o
 .text.sha256_update.part.0
                0x000000008083dba0       0x76 lib/built-in.o
 *fill*         0x000000008083dc16        0x2 
 .text.sha256_starts
                0x000000008083dc18       0x50 lib/built-in.o
                0x000000008083dc18                sha256_starts
 .text.sha256_update
                0x000000008083dc68        0x8 lib/built-in.o
                0x000000008083dc68                sha256_update
 .text.sha256_finish
                0x000000008083dc70      0x100 lib/built-in.o
                0x000000008083dc70                sha256_finish
 .text.sha256_csum_wd
                0x000000008083dd70       0x40 lib/built-in.o
                0x000000008083dd70                sha256_csum_wd
 .text.zcalloc  0x000000008083ddb0        0x8 lib/built-in.o
                0x000000008083ddb0                zcalloc
 .text.zcfree   0x000000008083ddb8        0x6 lib/built-in.o
                0x000000008083ddb8                zcfree
 *fill*         0x000000008083ddbe        0x2 
 .text.inflate_fast
                0x000000008083ddc0      0x3bc lib/built-in.o
                0x000000008083ddc0                inflate_fast
 .text.inflate_table
                0x000000008083e17c      0x33c lib/built-in.o
                0x000000008083e17c                inflate_table
 .text.inflateReset
                0x000000008083e4b8       0x46 lib/built-in.o
                0x000000008083e4b8                inflateReset
 *fill*         0x000000008083e4fe        0x2 
 .text.inflateInit2_
                0x000000008083e500       0x98 lib/built-in.o
                0x000000008083e500                inflateInit2_
 .text.inflateEnd
                0x000000008083e598       0x36 lib/built-in.o
                0x000000008083e598                inflateEnd
 .text.adler32  0x000000008083e5ce      0x22c lib/built-in.o
                0x000000008083e5ce                adler32
 *fill*         0x000000008083e7fa        0x2 
 .text.inflate  0x000000008083e7fc      0xd4c lib/built-in.o
                0x000000008083e7fc                inflate
 .text.gzalloc  0x000000008083f548        0xe lib/built-in.o
                0x000000008083f548                gzalloc
 .text.gzfree   0x000000008083f556        0x6 lib/built-in.o
                0x000000008083f556                gzfree
 .text.gzip_parse_header
                0x000000008083f55c       0x68 lib/built-in.o
                0x000000008083f55c                gzip_parse_header
 .text.zunzip   0x000000008083f5c4       0xac lib/built-in.o
                0x000000008083f5c4                zunzip
 .text.gunzip   0x000000008083f670       0x2c lib/built-in.o
                0x000000008083f670                gunzip
 .text.lzop_is_valid_header
                0x000000008083f69c       0x20 lib/built-in.o
                0x000000008083f69c                lzop_is_valid_header
 .text.lzo1x_decompress_safe
                0x000000008083f6bc      0x45a lib/built-in.o
                0x000000008083f6bc                lzo1x_decompress_safe
 .text.lzop_decompress
                0x000000008083fb16      0x102 lib/built-in.o
                0x000000008083fb16                lzop_decompress
 .text.get_prop_check_min_len
                0x000000008083fc18       0x26 lib/built-in.o
 *fill*         0x000000008083fc3e        0x2 
 .text.fdtdec_get_is_enabled
                0x000000008083fc40       0x28 lib/built-in.o
                0x000000008083fc40                fdtdec_get_is_enabled
 .text.fdtdec_get_alias_seq
                0x000000008083fc68       0xac lib/built-in.o
                0x000000008083fc68                fdtdec_get_alias_seq
 .text.fdtdec_get_chosen_prop
                0x000000008083fd14       0x24 lib/built-in.o
                0x000000008083fd14                fdtdec_get_chosen_prop
 .text.fdtdec_get_chosen_node
                0x000000008083fd38       0x1c lib/built-in.o
                0x000000008083fd38                fdtdec_get_chosen_node
 .text.fdtdec_prepare_fdt
                0x000000008083fd54       0x30 lib/built-in.o
                0x000000008083fd54                fdtdec_prepare_fdt
 .text.fdtdec_lookup_phandle
                0x000000008083fd84       0x20 lib/built-in.o
                0x000000008083fd84                fdtdec_lookup_phandle
 .text.fdtdec_get_int_array
                0x000000008083fda4       0x34 lib/built-in.o
                0x000000008083fda4                fdtdec_get_int_array
 .text.fdtdec_get_bool
                0x000000008083fdd8       0x14 lib/built-in.o
                0x000000008083fdd8                fdtdec_get_bool
 .text.fdtdec_parse_phandle_with_args
                0x000000008083fdec       0xca lib/built-in.o
                0x000000008083fdec                fdtdec_parse_phandle_with_args
 *fill*         0x000000008083feb6        0x2 
 .text.fdtdec_get_config_int
                0x000000008083feb8       0x28 lib/built-in.o
                0x000000008083feb8                fdtdec_get_config_int
 .text.fdtdec_get_config_string
                0x000000008083fee0       0x28 lib/built-in.o
                0x000000008083fee0                fdtdec_get_config_string
 .text.fdtdec_get_number
                0x000000008083ff08       0x24 lib/built-in.o
                0x000000008083ff08                fdtdec_get_number
 .text.fdtdec_get_addr_size_fixed
                0x000000008083ff2c       0x78 lib/built-in.o
                0x000000008083ff2c                fdtdec_get_addr_size_fixed
 .text.fdtdec_get_addr_size_auto_parent
                0x000000008083ffa4       0x46 lib/built-in.o
                0x000000008083ffa4                fdtdec_get_addr_size_auto_parent
 .text.fdtdec_get_addr_size_auto_noparent
                0x000000008083ffea       0x34 lib/built-in.o
                0x000000008083ffea                fdtdec_get_addr_size_auto_noparent
 .text.fdtdec_get_addr_size
                0x000000008084001e       0x1e lib/built-in.o
                0x000000008084001e                fdtdec_get_addr_size
 .text.fdtdec_get_addr
                0x000000008084003c        0x6 lib/built-in.o
                0x000000008084003c                fdtdec_get_addr
 *fill*         0x0000000080840042        0x2 
 .text.fdtdec_setup
                0x0000000080840044       0x28 lib/built-in.o
                0x0000000080840044                fdtdec_setup
 .text.cmpkey   0x000000008084006c        0xc lib/built-in.o
 .text._hdelete.isra.0
                0x0000000080840078       0x30 lib/built-in.o
 .text.drop_var_from_set.part.1
                0x00000000808400a8       0x30 lib/built-in.o
 .text.match_string
                0x00000000808400d8       0x7c lib/built-in.o
 .text.match_entry
                0x0000000080840154       0x78 lib/built-in.o
 .text.hcreate_r
                0x00000000808401cc       0x60 lib/built-in.o
                0x00000000808401cc                hcreate_r
 .text.hdestroy_r
                0x000000008084022c       0x48 lib/built-in.o
                0x000000008084022c                hdestroy_r
 .text.hmatch_r
                0x0000000080840274       0x5c lib/built-in.o
                0x0000000080840274                hmatch_r
 .text.hsearch_r
                0x00000000808402d0      0x29c lib/built-in.o
                0x00000000808402d0                hsearch_r
 .text.hdelete_r
                0x000000008084056c       0x84 lib/built-in.o
                0x000000008084056c                hdelete_r
 .text.hexport_r
                0x00000000808405f0      0x198 lib/built-in.o
                0x00000000808405f0                hexport_r
 .text.himport_r
                0x0000000080840788      0x250 lib/built-in.o
                0x0000000080840788                himport_r
 .text.hwalk_r  0x00000000808409d8       0x30 lib/built-in.o
                0x00000000808409d8                hwalk_r
 .text.display_options_get_banner_priv
                0x0000000080840a08       0x60 lib/built-in.o
                0x0000000080840a08                display_options_get_banner_priv
 .text.display_options_get_banner
                0x0000000080840a68        0xa lib/built-in.o
                0x0000000080840a68                display_options_get_banner
 *fill*         0x0000000080840a72        0x2 
 .text.display_options
                0x0000000080840a74       0x24 lib/built-in.o
                0x0000000080840a74                display_options
 .text.print_size
                0x0000000080840a98       0xdc lib/built-in.o
                0x0000000080840a98                print_size
 .text.print_buffer
                0x0000000080840b74      0x11c lib/built-in.o
                0x0000000080840b74                print_buffer
 .text.crc32_no_comp
                0x0000000080840c90       0x8c lib/built-in.o
                0x0000000080840c90                crc32_no_comp
 .text.crc32    0x0000000080840d1c        0xc lib/built-in.o
                0x0000000080840d1c                crc32
 .text.crc32_wd
                0x0000000080840d28       0x32 lib/built-in.o
                0x0000000080840d28                crc32_wd
 .text.crc32_wd_buf
                0x0000000080840d5a       0x22 lib/built-in.o
                0x0000000080840d5a                crc32_wd_buf
 .text.__div64_32
                0x0000000080840d7c       0x7e lib/built-in.o
                0x0000000080840d7c                __div64_32
 *fill*         0x0000000080840dfa        0x2 
 .text.hang     0x0000000080840dfc       0x18 lib/built-in.o
                0x0000000080840dfc                hang
 .text.kmalloc  0x0000000080840e14       0x20 lib/built-in.o
                0x0000000080840e14                kmalloc
 .text.skip_spaces
                0x0000000080840e34       0x18 lib/built-in.o
                0x0000000080840e34                skip_spaces
 .text.strim    0x0000000080840e4c       0x34 lib/built-in.o
                0x0000000080840e4c                strim
 .text.emit     0x0000000080840e80       0x20 lib/built-in.o
 .text.store_char_in_data
                0x0000000080840ea0       0x24 lib/built-in.o
 .text.get_escape_char
                0x0000000080840ec4       0x48 lib/built-in.o
 .text.relocate
                0x0000000080840f0c       0x2a lib/built-in.o
 *fill*         0x0000000080840f36        0x2 
 .text.match    0x0000000080840f38      0x260 lib/built-in.o
 .text.loop_greedy
                0x0000000080841198       0x56 lib/built-in.o
 .text.loop_non_greedy
                0x00000000808411ee       0x4c lib/built-in.o
 *fill*         0x000000008084123a        0x2 
 .text.quantifier
                0x000000008084123c       0x5c lib/built-in.o
 .text.fixup_branch
                0x0000000080841298       0x28 lib/built-in.o
 .text.compile  0x00000000808412c0      0x224 lib/built-in.o
 .text.slre_compile
                0x00000000808414e4       0x90 lib/built-in.o
                0x00000000808414e4                slre_compile
 .text.slre_match
                0x0000000080841574       0x56 lib/built-in.o
                0x0000000080841574                slre_match
 *fill*         0x00000000808415ca        0x2 
 .text.strncasecmp
                0x00000000808415cc       0x44 lib/built-in.o
                0x00000000808415cc                strncasecmp
 .text.strcasecmp
                0x0000000080841610        0x8 lib/built-in.o
                0x0000000080841610                strcasecmp
 .text.strcpy   0x0000000080841618       0x10 lib/built-in.o
                0x0000000080841618                strcpy
 .text.strncpy  0x0000000080841628       0x18 lib/built-in.o
                0x0000000080841628                strncpy
 .text.strcat   0x0000000080841640       0x1e lib/built-in.o
                0x0000000080841640                strcat
 .text.strncat  0x000000008084165e       0x28 lib/built-in.o
                0x000000008084165e                strncat
 .text.strcmp   0x0000000080841686       0x16 lib/built-in.o
                0x0000000080841686                strcmp
 .text.strncmp  0x000000008084169c       0x22 lib/built-in.o
                0x000000008084169c                strncmp
 .text.strchr   0x00000000808416be       0x18 lib/built-in.o
                0x00000000808416be                strchr
 .text.strlen   0x00000000808416d6       0x10 lib/built-in.o
                0x00000000808416d6                strlen
 .text.strlcpy  0x00000000808416e6       0x2e lib/built-in.o
                0x00000000808416e6                strlcpy
 .text.strrchr  0x0000000080841714       0x20 lib/built-in.o
                0x0000000080841714                strrchr
 .text.strnlen  0x0000000080841734       0x18 lib/built-in.o
                0x0000000080841734                strnlen
 .text.strdup   0x000000008084174c       0x22 lib/built-in.o
                0x000000008084174c                strdup
 .text.strspn   0x000000008084176e       0x20 lib/built-in.o
                0x000000008084176e                strspn
 .text.strpbrk  0x000000008084178e       0x24 lib/built-in.o
                0x000000008084178e                strpbrk
 *fill*         0x00000000808417b2        0x2 
 .text.strtok   0x00000000808417b4       0x44 lib/built-in.o
                0x00000000808417b4                strtok
 .text.strsep   0x00000000808417f8       0x1e lib/built-in.o
                0x00000000808417f8                strsep
 .text.memmove  0x0000000080841816       0x26 lib/built-in.o
                0x0000000080841816                memmove
 .text.memcmp   0x000000008084183c       0x1e lib/built-in.o
                0x000000008084183c                memcmp
 .text.strstr   0x000000008084185a       0x48 lib/built-in.o
                0x000000008084185a                strstr
 .text.memchr   0x00000000808418a2       0x1c lib/built-in.o
                0x00000000808418a2                memchr
 .text.get_tbclk
                0x00000000808418be       0x1c lib/built-in.o
                0x00000000808418be                get_tbclk
 .text.tick_to_time
                0x00000000808418da       0x48 lib/built-in.o
 .text.get_ticks
                0x0000000080841922       0x2a lib/built-in.o
                0x0000000080841922                get_ticks
 .text.timer_init
                0x000000008084194c        0x4 lib/built-in.o
                0x000000008084194c                timer_init
 .text.get_timer
                0x0000000080841950       0x10 lib/built-in.o
                0x0000000080841950                get_timer
 .text.timer_get_us
                0x0000000080841960       0x1c lib/built-in.o
                0x0000000080841960                timer_get_us
 .text.__udelay
                0x000000008084197c       0x9c lib/built-in.o
                0x000000008084197c                __udelay
 .text.udelay   0x0000000080841a18       0x24 lib/built-in.o
                0x0000000080841a18                udelay
 .text.uuid_str_valid
                0x0000000080841a3c       0x50 lib/built-in.o
                0x0000000080841a3c                uuid_str_valid
 .text.uuid_str_to_bin
                0x0000000080841a8c      0x12c lib/built-in.o
                0x0000000080841a8c                uuid_str_to_bin
 .text.uuid_bin_to_str
                0x0000000080841bb8       0x78 lib/built-in.o
                0x0000000080841bb8                uuid_bin_to_str
 .text.gen_rand_uuid
                0x0000000080841c30       0x4a lib/built-in.o
                0x0000000080841c30                gen_rand_uuid
 .text.gen_rand_uuid_str
                0x0000000080841c7a       0x1c lib/built-in.o
                0x0000000080841c7a                gen_rand_uuid_str
 .text.rand_r   0x0000000080841c96       0x14 lib/built-in.o
                0x0000000080841c96                rand_r
 *fill*         0x0000000080841caa        0x2 
 .text.rand     0x0000000080841cac        0xc lib/built-in.o
                0x0000000080841cac                rand
 .text.put_dec_trunc
                0x0000000080841cb8       0x96 lib/built-in.o
 *fill*         0x0000000080841d4e        0x2 
 .text.put_dec  0x0000000080841d50      0x140 lib/built-in.o
 .text.number   0x0000000080841e90      0x1e8 lib/built-in.o
 .text.string   0x0000000080842078       0x78 lib/built-in.o
 .text.vsnprintf_internal
                0x00000000808420f0      0x554 lib/built-in.o
 .text.vscnprintf
                0x0000000080842644       0x16 lib/built-in.o
                0x0000000080842644                vscnprintf
 .text.snprintf
                0x000000008084265a       0x1a lib/built-in.o
                0x000000008084265a                snprintf
 .text.vsprintf
                0x0000000080842674        0xc lib/built-in.o
                0x0000000080842674                vsprintf
 .text.sprintf  0x0000000080842680       0x1a lib/built-in.o
                0x0000000080842680                sprintf
 .text.printf   0x000000008084269a       0x32 lib/built-in.o
                0x000000008084269a                printf
 .text.vprintf  0x00000000808426cc       0x24 lib/built-in.o
                0x00000000808426cc                vprintf
 .text.simple_itoa
                0x00000000808426f0       0x38 lib/built-in.o
                0x00000000808426f0                simple_itoa
 .text.str2off  0x0000000080842728       0x24 lib/built-in.o
                0x0000000080842728                str2off
 .text.str2long
                0x000000008084274c       0x22 lib/built-in.o
                0x000000008084274c                str2long
 *fill*         0x000000008084276e        0x2 
 .text.panic_finish
                0x0000000080842770       0x20 lib/built-in.o
 .text.panic_str
                0x0000000080842790        0xa lib/built-in.o
                0x0000000080842790                panic_str
 .text.panic    0x000000008084279a       0x14 lib/built-in.o
                0x000000008084279a                panic
 *fill*         0x00000000808427ae        0x2 
 .text._parse_integer_fixup_radix
                0x00000000808427b0       0x5c lib/built-in.o
 .text.simple_strtoul
                0x000000008084280c       0x50 lib/built-in.o
                0x000000008084280c                simple_strtoul
 .text.strict_strtoul
                0x000000008084285c       0x42 lib/built-in.o
                0x000000008084285c                strict_strtoul
 .text.simple_strtol
                0x000000008084289e       0x1a lib/built-in.o
                0x000000008084289e                simple_strtol
 .text.ustrtoul
                0x00000000808428b8       0x3c lib/built-in.o
                0x00000000808428b8                ustrtoul
 .text.simple_strtoull
                0x00000000808428f4       0x70 lib/built-in.o
                0x00000000808428f4                simple_strtoull
 .text.ustrtoull
                0x0000000080842964       0x4e lib/built-in.o
                0x0000000080842964                ustrtoull
 *fill*         0x00000000808429b2        0x2 
 .text.trailing_strtoln
                0x00000000808429b4       0x48 lib/built-in.o
                0x00000000808429b4                trailing_strtoln
 .text.trailing_strtol
                0x00000000808429fc        0x6 lib/built-in.o
                0x00000000808429fc                trailing_strtol
 .text.compute_ip_checksum
                0x0000000080842a02       0x3e net/built-in.o
                0x0000000080842a02                compute_ip_checksum
 .text.ip_checksum_ok
                0x0000000080842a40       0x14 net/built-in.o
                0x0000000080842a40                ip_checksum_ok
 .text.arp_init
                0x0000000080842a54       0x38 net/built-in.o
                0x0000000080842a54                arp_init
 .text.arp_raw_request
                0x0000000080842a8c       0x94 net/built-in.o
                0x0000000080842a8c                arp_raw_request
 .text.arp_request
                0x0000000080842b20       0x54 net/built-in.o
                0x0000000080842b20                arp_request
 .text.arp_timeout_check
                0x0000000080842b74       0x58 net/built-in.o
                0x0000000080842b74                arp_timeout_check
 .text.arp_receive
                0x0000000080842bcc      0x170 net/built-in.o
                0x0000000080842bcc                arp_receive
 .text.dhcp_extended
                0x0000000080842d3c      0x194 net/built-in.o
 .text.dhcp_process_options
                0x0000000080842ed0      0x154 net/built-in.o
 .text.dhcp_packet_process_options
                0x0000000080843024       0x5c net/built-in.o
 .text.dhcp_handler
                0x0000000080843080      0x2a4 net/built-in.o
 .text.bootp_reset
                0x0000000080843324       0x2c net/built-in.o
                0x0000000080843324                bootp_reset
 .text.bootp_request
                0x0000000080843350      0x1e8 net/built-in.o
                0x0000000080843350                bootp_request
 .text.bootp_timeout_handler
                0x0000000080843538       0x58 net/built-in.o
 .text.dhcp_request
                0x0000000080843590        0x4 net/built-in.o
                0x0000000080843590                dhcp_request
 .text.eth_get_uclass_priv
                0x0000000080843594       0x14 net/built-in.o
 .text.eth_pre_remove
                0x00000000808435a8       0x1a net/built-in.o
 *fill*         0x00000000808435c2        0x2 
 .text.eth_post_probe
                0x00000000808435c4      0x100 net/built-in.o
 .text.eth_write_hwaddr
                0x00000000808436c4       0x7c net/built-in.o
 .text.on_ethaddr
                0x0000000080843740       0x4c net/built-in.o
 .text.eth_post_bind
                0x000000008084378c       0x20 net/built-in.o
 .text.eth_set_current_to_next
                0x00000000808437ac       0x22 net/built-in.o
                0x00000000808437ac                eth_set_current_to_next
 *fill*         0x00000000808437ce        0x2 
 .text.eth_get_dev
                0x00000000808437d0       0x20 net/built-in.o
                0x00000000808437d0                eth_get_dev
 .text.eth_set_dev
                0x00000000808437f0       0x24 net/built-in.o
                0x00000000808437f0                eth_set_dev
 .text.eth_pre_unbind
                0x0000000080843814       0x18 net/built-in.o
 .text.eth_get_dev_by_name
                0x000000008084382c       0x88 net/built-in.o
                0x000000008084382c                eth_get_dev_by_name
 .text.eth_get_ethaddr
                0x00000000808438b4       0x12 net/built-in.o
                0x00000000808438b4                eth_get_ethaddr
 .text.eth_halt_state_only
                0x00000000808438c6       0x16 net/built-in.o
                0x00000000808438c6                eth_halt_state_only
 .text.eth_get_dev_index
                0x00000000808438dc       0x16 net/built-in.o
                0x00000000808438dc                eth_get_dev_index
 *fill*         0x00000000808438f2        0x2 
 .text.eth_init
                0x00000000808438f4       0x94 net/built-in.o
                0x00000000808438f4                eth_init
 .text.eth_halt
                0x0000000080843988       0x20 net/built-in.o
                0x0000000080843988                eth_halt
 .text.eth_send
                0x00000000808439a8       0x2e net/built-in.o
                0x00000000808439a8                eth_send
 .text.eth_rx   0x00000000808439d6       0x66 net/built-in.o
                0x00000000808439d6                eth_rx
 .text.eth_initialize
                0x0000000080843a3c       0xac net/built-in.o
                0x0000000080843a3c                eth_initialize
 .text.eth_parse_enetaddr
                0x0000000080843ae8       0x30 net/built-in.o
                0x0000000080843ae8                eth_parse_enetaddr
 .text.eth_env_get_enetaddr
                0x0000000080843b18       0x34 net/built-in.o
                0x0000000080843b18                eth_env_get_enetaddr
 .text.eth_env_set_enetaddr
                0x0000000080843b4c       0x30 net/built-in.o
                0x0000000080843b4c                eth_env_set_enetaddr
 .text.eth_env_get_enetaddr_by_index
                0x0000000080843b7c       0x30 net/built-in.o
                0x0000000080843b7c                eth_env_get_enetaddr_by_index
 .text.eth_env_set_enetaddr_by_index
                0x0000000080843bac       0x30 net/built-in.o
                0x0000000080843bac                eth_env_set_enetaddr_by_index
 .text.eth_common_init
                0x0000000080843bdc       0x14 net/built-in.o
                0x0000000080843bdc                eth_common_init
 .text.eth_mac_skip
                0x0000000080843bf0       0x30 net/built-in.o
                0x0000000080843bf0                eth_mac_skip
 .text.eth_get_name
                0x0000000080843c20       0x18 net/built-in.o
                0x0000000080843c20                eth_get_name
 .text.eth_current_changed
                0x0000000080843c38       0x5c net/built-in.o
                0x0000000080843c38                eth_current_changed
 .text.eth_try_another
                0x0000000080843c94       0x54 net/built-in.o
                0x0000000080843c94                eth_try_another
 .text.eth_set_current
                0x0000000080843ce8       0x58 net/built-in.o
                0x0000000080843ce8                eth_set_current
 .text.net_clear_handlers
                0x0000000080843d40       0x24 net/built-in.o
 .text.start_again_timeout_handler
                0x0000000080843d64        0xc net/built-in.o
 .text.dummy_handler
                0x0000000080843d70        0x2 net/built-in.o
 *fill*         0x0000000080843d72        0x2 
 .text.on_ipaddr
                0x0000000080843d74       0x18 net/built-in.o
 .text.on_gatewayip
                0x0000000080843d8c       0x18 net/built-in.o
 .text.on_netmask
                0x0000000080843da4       0x18 net/built-in.o
 .text.on_serverip
                0x0000000080843dbc       0x18 net/built-in.o
 .text.net_init_loop
                0x0000000080843dd4       0x20 net/built-in.o
 .text.net_auto_load
                0x0000000080843df4       0x40 net/built-in.o
                0x0000000080843df4                net_auto_load
 .text.net_init
                0x0000000080843e34       0x50 net/built-in.o
                0x0000000080843e34                net_init
 .text.net_start_again
                0x0000000080843e84       0xec net/built-in.o
                0x0000000080843e84                net_start_again
 .text.net_loop
                0x0000000080843f70      0x258 net/built-in.o
                0x0000000080843f70                net_loop
 .text.net_set_udp_handler
                0x00000000808441c8       0x18 net/built-in.o
                0x00000000808441c8                net_set_udp_handler
 .text.net_get_arp_handler
                0x00000000808441e0        0xc net/built-in.o
                0x00000000808441e0                net_get_arp_handler
 .text.net_set_timeout_handler
                0x00000000808441ec       0x3c net/built-in.o
                0x00000000808441ec                net_set_timeout_handler
 .text.net_process_received_packet
                0x0000000080844228      0x204 net/built-in.o
                0x0000000080844228                net_process_received_packet
 .text.net_eth_hdr_size
                0x000000008084442c       0x2c net/built-in.o
                0x000000008084442c                net_eth_hdr_size
 .text.net_set_ether
                0x0000000080844458       0x8c net/built-in.o
                0x0000000080844458                net_set_ether
 .text.net_update_ether
                0x00000000808444e4       0x74 net/built-in.o
                0x00000000808444e4                net_update_ether
 .text.net_set_ip_header
                0x0000000080844558       0x68 net/built-in.o
                0x0000000080844558                net_set_ip_header
 .text.net_set_udp_header
                0x00000000808445c0       0x74 net/built-in.o
                0x00000000808445c0                net_set_udp_header
 .text.net_send_udp_packet
                0x0000000080844634       0xb8 net/built-in.o
                0x0000000080844634                net_send_udp_packet
 .text.copy_filename
                0x00000000808446ec       0x2c net/built-in.o
                0x00000000808446ec                copy_filename
 .text.on_bootfile
                0x0000000080844718       0x20 net/built-in.o
 .text.ip_to_string
                0x0000000080844738       0x28 net/built-in.o
                0x0000000080844738                ip_to_string
 .text.string_to_vlan
                0x0000000080844760       0x28 net/built-in.o
                0x0000000080844760                string_to_vlan
 .text.on_nvlan
                0x0000000080844788       0x18 net/built-in.o
 .text.on_vlan  0x00000000808447a0       0x18 net/built-in.o
 .text.rpc_lookup_reply
                0x00000000808447b8       0x6c net/built-in.o
 .text.nfs_mount_reply
                0x0000000080844824       0x64 net/built-in.o
 .text.nfs_umountall_reply
                0x0000000080844888       0x5c net/built-in.o
 .text.nfs_lookup_reply
                0x00000000808448e4       0xb0 net/built-in.o
 .text.nfs3_get_attributes_offset
                0x0000000080844994        0xc net/built-in.o
 .text.nfs_readlink_reply
                0x00000000808449a0       0xb8 net/built-in.o
 .text.basename
                0x0000000080844a58       0x20 net/built-in.o
 .text.rpc_req  0x0000000080844a78       0xc0 net/built-in.o
 .text.nfs_umountall_req
                0x0000000080844b38       0x54 net/built-in.o
 .text.nfs_read_reply.isra.0
                0x0000000080844b8c       0xe0 net/built-in.o
 .text.nfs_mount_req
                0x0000000080844c6c       0x88 net/built-in.o
 .text.nfs_readlink_req
                0x0000000080844cf4       0x84 net/built-in.o
 .text.nfs_lookup_req
                0x0000000080844d78      0x108 net/built-in.o
 .text.nfs_read_req
                0x0000000080844e80       0xa4 net/built-in.o
 .text.nfs_send
                0x0000000080844f24       0xd4 net/built-in.o
 .text.nfs_handler
                0x0000000080844ff8      0x17c net/built-in.o
 .text.nfs_timeout_handler
                0x0000000080845174       0x4c net/built-in.o
 .text.nfs_start
                0x00000000808451c0       0xfc net/built-in.o
                0x00000000808451c0                nfs_start
 .text.ping_timeout_handler
                0x00000000808452bc       0x14 net/built-in.o
 .text.ping_start
                0x00000000808452d0       0xdc net/built-in.o
                0x00000000808452d0                ping_start
 .text.ping_receive
                0x00000000808453ac       0xa8 net/built-in.o
                0x00000000808453ac                ping_receive
 .text.tftp_send
                0x0000000080845454      0x134 net/built-in.o
 .text.tftp_handler
                0x0000000080845588      0x274 net/built-in.o
 .text.tftp_timeout_handler
                0x00000000808457fc       0x64 net/built-in.o
 .text.tftp_start
                0x0000000080845860      0x278 net/built-in.o
                0x0000000080845860                tftp_start
 .text.do_dm_dump_devres
                0x0000000080845ad8        0x4 test/dm/built-in.o
 .text.do_dm    0x0000000080845adc       0x44 test/dm/built-in.o
 .text.do_dm_dump_uclass
                0x0000000080845b20        0xa test/dm/built-in.o
 .text.do_dm_dump_all
                0x0000000080845b2a        0xa test/dm/built-in.o
 .text.__ashldi3
                0x0000000080845b34       0x20 arch/arm/lib/lib.a(ashldi3.o)
                0x0000000080845b34                __ashldi3
                0x0000000080845b34                __aeabi_llsl
 .text.__ashrdi3
                0x0000000080845b54       0x20 arch/arm/lib/lib.a(ashrdi3.o)
                0x0000000080845b54                __ashrdi3
                0x0000000080845b54                __aeabi_lasr
 .text.__udivsi3
                0x0000000080845b74       0x9c arch/arm/lib/lib.a(lib1funcs.o)
                0x0000000080845b74                __udivsi3
                0x0000000080845b74                __aeabi_uidiv
 .text.__divsi3
                0x0000000080845c10       0xcc arch/arm/lib/lib.a(lib1funcs.o)
                0x0000000080845c10                __aeabi_idiv
                0x0000000080845c10                __divsi3
 .text.__aeabi_uidivmod
                0x0000000080845cdc       0x30 arch/arm/lib/lib.a(lib1funcs.o)
                0x0000000080845cdc                __aeabi_uidivmod
                0x0000000080845cf4                __aeabi_idivmod
 .text.Ldiv0    0x0000000080845d0c       0x10 arch/arm/lib/lib.a(lib1funcs.o)
 .text.__lshldi3
                0x0000000080845d1c       0x20 arch/arm/lib/lib.a(lshrdi3.o)
                0x0000000080845d1c                __aeabi_llsr
                0x0000000080845d1c                __lshrdi3
 .text.__div0   0x0000000080845d3c        0x4 arch/arm/lib/lib.a(div0.o)
                0x0000000080845d3c                __div0
 .text.__div0.__stub
                0x0000000080845d40        0x4 linker stubs

.glue_7         0x0000000080845d44        0x0
 .glue_7        0x0000000080845d44        0x0 linker stubs

.glue_7t        0x0000000080845d44        0x0
 .glue_7t       0x0000000080845d44        0x0 linker stubs

.vfp11_veneer   0x0000000080845d44        0x0
 .vfp11_veneer  0x0000000080845d44        0x0 linker stubs

.v4_bx          0x0000000080845d44        0x0
 .v4_bx         0x0000000080845d44        0x0 linker stubs

.iplt           0x0000000080845d44        0x0
 .iplt          0x0000000080845d44        0x0 arch/arm/cpu/armv7/start.o
                0x0000000080845d44                . = ALIGN (0x4)

.rodata         0x0000000080845d48    0x160e3
 *(SORT(.rodata*))
 .rodata.efi_boot_services
                0x0000000080845d48       0xc8 lib/built-in.o
 .rodata.efi_file_handle_protocol
                0x0000000080845e10       0x30 lib/built-in.o
 .rodata        0x0000000080845e40       0x80 arch/arm/lib/built-in.o
 .rodata        0x0000000080845ec0       0xa0 arch/arm/mach-omap2/built-in.o
 .rodata        0x0000000080845f60       0x34 drivers/built-in.o
 .rodata.CSWTCH.119
                0x0000000080845f94       0x6c common/built-in.o
 .rodata.CSWTCH.19
                0x0000000080846000       0x1c drivers/usb/musb-new/built-in.o
 .rodata.CSWTCH.28
                0x000000008084601c       0x14 cmd/built-in.o
 .rodata.CSWTCH.28
                0x0000000080846030       0x20 common/built-in.o
 .rodata.CSWTCH.48
                0x0000000080846050       0x20 disk/built-in.o
 .rodata.am33xx_ctrl
                0x0000000080846070      0x1c8 arch/arm/mach-omap2/built-in.o
                0x0000000080846070                am33xx_ctrl
 .rodata.am33xx_mmc_pdata
                0x0000000080846238        0x4 drivers/built-in.o
 .rodata.boot_os
                0x000000008084623c       0x60 common/built-in.o
 .rodata.cmd_dispatch_info
                0x000000008084629c       0x30 drivers/usb/gadget/built-in.o
 .rodata.color  0x00000000808462cc       0x40 lib/built-in.o
 .rodata.cpsw_eth_ids
                0x000000008084630c       0x18 drivers/net/built-in.o
 .rodata.cpsw_eth_ops
                0x0000000080846324       0x1c drivers/net/built-in.o
 .rodata.crc_table
                0x0000000080846340      0x400 lib/built-in.o
 .rodata.desc_and_len_tbl
                0x0000000080846740       0x30 cmd/built-in.o
 .rodata.dev_types
                0x0000000080846770       0x10 arch/arm/mach-omap2/built-in.o
 .rodata.dfu_state
                0x0000000080846780       0x2c drivers/usb/gadget/built-in.o
 .rodata.efi_con_out
                0x00000000808467ac       0x28 lib/built-in.o
                0x00000000808467ac                efi_con_out
 .rodata.efi_console_control
                0x00000000808467d4        0xc lib/built-in.o
                0x00000000808467d4                efi_console_control
 .rodata.efi_device_path_to_text
                0x00000000808467e0        0x8 lib/built-in.o
                0x00000000808467e0                efi_device_path_to_text
 .rodata.efi_runtime_detach_list
                0x00000000808467e8       0x50 lib/built-in.o
 .rodata.env_flags_varaccess_mask
                0x0000000080846838       0x10 env/built-in.o
 .rodata.ext_csd_bits.10224
                0x0000000080846848       0x14 drivers/built-in.o
 .rodata.ext_to_hostcaps.10225
                0x000000008084685c       0x1c drivers/built-in.o
 .rodata.fbase  0x0000000080846878       0x10 drivers/built-in.o
 .rodata.fdt_errtable
                0x0000000080846888       0x48 lib/built-in.o
 .rodata.generic_simple_bus_ids
                0x00000000808468d0       0x18 drivers/built-in.o
 .rodata.gpio_function
                0x00000000808468e8       0x14 drivers/gpio/built-in.o
 .rodata.gpio_omap_ops
                0x00000000808468fc       0x28 drivers/gpio/built-in.o
 .rodata.hub_id_table
                0x0000000080846924       0x30 common/built-in.o
 .rodata.init_sequence_f
                0x0000000080846954       0xbc common/built-in.o
 .rodata.keywords
                0x0000000080846a10       0x98 cmd/built-in.o
 .rodata.mass_storage_id_table
                0x0000000080846aa8       0x30 common/built-in.o
 .rodata.mod_exp_ops_sw
                0x0000000080846ad8        0x4 drivers/built-in.o
 .rodata.month_offset
                0x0000000080846adc       0x30 drivers/built-in.o
 .rodata.musb_ep_ops
                0x0000000080846b0c       0x28 drivers/usb/musb-new/built-in.o
 .rodata.musb_g_ep0_ops
                0x0000000080846b34       0x28 drivers/usb/musb-new/built-in.o
                0x0000000080846b34                musb_g_ep0_ops
 .rodata.musb_gadget_operations
                0x0000000080846b5c       0x24 drivers/usb/musb-new/built-in.o
 .rodata.ns16550_serial_ids
                0x0000000080846b80       0x60 drivers/serial/built-in.o
 .rodata.ns16550_serial_ops
                0x0000000080846be0       0x14 drivers/serial/built-in.o
                0x0000000080846be0                ns16550_serial_ops
 .rodata.oid_supported_list
                0x0000000080846bf4       0x70 drivers/usb/gadget/built-in.o
 .rodata.omap3_mmc_pdata
                0x0000000080846c64        0x4 drivers/built-in.o
 .rodata.omap4_mmc_pdata
                0x0000000080846c68        0x4 drivers/built-in.o
 .rodata.omap_gpio_ids
                0x0000000080846c6c       0x20 drivers/gpio/built-in.o
 .rodata.omap_hsmmc_ids
                0x0000000080846c8c       0x20 drivers/built-in.o
 .rodata.omap_hsmmc_ops
                0x0000000080846cac       0x10 drivers/built-in.o
 .rodata.omap_i2c_ids
                0x0000000080846cbc       0x18 drivers/i2c/built-in.o
 .rodata.omap_i2c_ops
                0x0000000080846cd4       0x18 drivers/i2c/built-in.o
 .rodata.omap_timer_ids
                0x0000000080846cec       0x20 drivers/built-in.o
 .rodata.omap_timer_ops
                0x0000000080846d0c        0x4 drivers/built-in.o
 .rodata.op_adv
                0x0000000080846d10      0x100 cmd/built-in.o
                0x0000000080846d10                op_adv
 .rodata.op_table
                0x0000000080846e10       0x68 cmd/built-in.o
 .rodata.phy_interface_strings
                0x0000000080846e78       0x44 drivers/net/phy/built-in.o
 .rodata.reg_0_5_desc_tbl
                0x0000000080846ebc       0x30 cmd/built-in.o
 .rodata.reg_0_desc_tbl
                0x0000000080846eec       0x78 cmd/built-in.o
 .rodata.reg_1_desc_tbl
                0x0000000080846f64       0xc0 cmd/built-in.o
 .rodata.reg_2_desc_tbl
                0x0000000080847024        0xc cmd/built-in.o
 .rodata.reg_3_desc_tbl
                0x0000000080847030       0x24 cmd/built-in.o
 .rodata.reg_4_desc_tbl
                0x0000000080847054       0x90 cmd/built-in.o
 .rodata.reg_5_desc_tbl
                0x00000000808470e4       0x90 cmd/built-in.o
 .rodata.root_info
                0x0000000080847174        0x8 drivers/built-in.o
 .rodata.sd_au_size
                0x000000008084717c       0x40 drivers/built-in.o
 .rodata.smbios_write_funcs
                0x00000000808471bc       0x1c lib/built-in.o
 .rodata.spi_flash_ids
                0x00000000808471d8      0x1c8 drivers/mtd/spi/built-in.o
                0x00000000808471d8                spi_flash_ids
 .rodata.subcmd_list
                0x00000000808473a0       0x10 cmd/built-in.o
 .rodata.ti_musb_ids
                0x00000000808473b0       0x10 drivers/usb/musb-new/built-in.o
 .rodata.uimage_arch
                0x00000000808473c0      0x138 common/built-in.o
 .rodata.uimage_comp
                0x00000000808474f8       0x54 common/built-in.o
 .rodata.uimage_os
                0x000000008084754c       0x78 common/built-in.o
 .rodata.uimage_type
                0x00000000808475c4      0x18c common/built-in.o
 .rodata.usb_dr_modes
                0x0000000080847750       0x10 drivers/usb/common/built-in.o
 .rodata.usb_eth_ops
                0x0000000080847760       0x1c drivers/usb/gadget/built-in.o
 .rodata.usb_hub_ids
                0x000000008084777c       0x10 common/built-in.o
 .rodata.usb_mass_storage_ids
                0x000000008084778c       0x10 common/built-in.o
 .rodata.widths.10226
                0x000000008084779c       0x14 drivers/built-in.o
 .rodata.crc16_tab
                0x00000000808477b0      0x200 lib/built-in.o
 .rodata.crc16_table
                0x00000000808479b0      0x200 fs/built-in.o
 .rodata.dbase.8376
                0x0000000080847bb0       0x40 lib/built-in.o
 .rodata.dext.8377
                0x0000000080847bf0       0x40 lib/built-in.o
 .rodata.distfix
                0x0000000080847c30       0x80 lib/built-in.o
 .rodata.efi_bootmgr_load.str2.2
                0x0000000080847cb0       0x48 lib/built-in.o
 .rodata.lbase.8374
                0x0000000080847cf8       0x3e lib/built-in.o
 .rodata.lenfix
                0x0000000080847d36      0x800 lib/built-in.o
 .rodata.lext.8375
                0x0000000080848536       0x3e lib/built-in.o
 .rodata.order.8470
                0x0000000080848574       0x26 lib/built-in.o
 .rodata.vsnprintf_internal.str2.2
                0x000000008084859a        0xe lib/built-in.o
 .rodata        0x00000000808485a8       0x10 cmd/built-in.o
 .rodata        0x00000000808485b8       0x10 disk/built-in.o
 .rodata        0x00000000808485c8        0x3 env/built-in.o
 .rodata        0x00000000808485cb       0x20 lib/built-in.o
 .rodata        0x00000000808485eb        0x7 net/built-in.o
 .rodata.CSWTCH.66
                0x00000000808485f2       0x16 common/built-in.o
 .rodata.CSWTCH.92
                0x0000000080848608        0x5 drivers/net/built-in.o
 .rodata.CSWTCH.93
                0x000000008084860d        0x5 drivers/net/built-in.o
 .rodata.END    0x0000000080848612        0x4 lib/built-in.o
 .rodata.ROOT   0x0000000080848616       0x14 lib/built-in.o
 .rodata.__FUNCTION__.8991
                0x000000008084862a       0x17 common/built-in.o
 .rodata.__FUNCTION__.9136
                0x0000000080848641       0x17 common/built-in.o
 .rodata.__func__.10163
                0x0000000080848658       0x11 drivers/mtd/nand/built-in.o
 .rodata.__func__.10256
                0x0000000080848669        0x9 drivers/built-in.o
 .rodata.__func__.10383
                0x0000000080848672        0xa drivers/mtd/nand/built-in.o
 .rodata.__func__.10605
                0x000000008084867c       0x12 drivers/mtd/nand/built-in.o
 .rodata.__func__.10632
                0x000000008084868e       0x15 common/built-in.o
 .rodata.__func__.10736
                0x00000000808486a3       0x10 drivers/built-in.o
 .rodata.__func__.10767
                0x00000000808486b3       0x16 drivers/built-in.o
 .rodata.__func__.10831
                0x00000000808486c9       0x19 drivers/built-in.o
 .rodata.__func__.10847
                0x00000000808486e2       0x14 drivers/built-in.o
 .rodata.__func__.10895
                0x00000000808486f6        0xe drivers/built-in.o
 .rodata.__func__.10904
                0x0000000080848704        0xe drivers/mtd/nand/built-in.o
 .rodata.__func__.10930
                0x0000000080848712        0xf drivers/built-in.o
 .rodata.__func__.10953
                0x0000000080848721        0xc drivers/built-in.o
 .rodata.__func__.10988
                0x000000008084872d        0xa drivers/built-in.o
 .rodata.__func__.10998
                0x0000000080848737       0x13 drivers/built-in.o
 .rodata.__func__.11011
                0x000000008084874a        0x9 drivers/built-in.o
 .rodata.__func__.11020
                0x0000000080848753       0x10 drivers/built-in.o
 .rodata.__func__.11124
                0x0000000080848763       0x17 drivers/usb/gadget/built-in.o
 .rodata.__func__.11242
                0x000000008084877a       0x14 drivers/mtd/nand/built-in.o
 .rodata.__func__.11271
                0x000000008084878e        0xc drivers/built-in.o
 .rodata.__func__.11284
                0x000000008084879a        0xf drivers/mtd/nand/built-in.o
 .rodata.__func__.11289
                0x00000000808487a9       0x15 drivers/built-in.o
 .rodata.__func__.11295
                0x00000000808487be        0x9 drivers/usb/gadget/built-in.o
 .rodata.__func__.11303
                0x00000000808487c7       0x18 drivers/built-in.o
 .rodata.__func__.11324
                0x00000000808487df       0x14 drivers/built-in.o
 .rodata.__func__.11461
                0x00000000808487f3        0xf drivers/usb/musb-new/built-in.o
 .rodata.__func__.11480
                0x0000000080848802       0x12 drivers/usb/musb-new/built-in.o
 .rodata.__func__.11502
                0x0000000080848814       0x10 drivers/usb/musb-new/built-in.o
 .rodata.__func__.11525
                0x0000000080848824       0x14 drivers/usb/musb-new/built-in.o
 .rodata.__func__.11539
                0x0000000080848838        0xf drivers/usb/musb-new/built-in.o
 .rodata.__func__.11587
                0x0000000080848847        0xd drivers/usb/musb-new/built-in.o
 .rodata.__func__.11599
                0x0000000080848854       0x11 drivers/usb/gadget/built-in.o
 .rodata.__func__.11609
                0x0000000080848865        0xf drivers/usb/musb-new/built-in.o
 .rodata.__func__.11743
                0x0000000080848874        0xf drivers/usb/gadget/built-in.o
 .rodata.__func__.12013
                0x0000000080848883        0xe drivers/built-in.o
 .rodata.__func__.12037
                0x0000000080848891       0x16 drivers/built-in.o
 .rodata.__func__.12052
                0x00000000808488a7       0x15 drivers/built-in.o
 .rodata.__func__.12060
                0x00000000808488bc       0x16 drivers/built-in.o
 .rodata.__func__.12077
                0x00000000808488d2       0x15 drivers/built-in.o
 .rodata.__func__.12795
                0x00000000808488e7       0x15 board/ti/am335x/built-in.o
 .rodata.__func__.8044
                0x00000000808488fc        0xb fs/built-in.o
 .rodata.__func__.8175
                0x0000000080848907        0xe common/built-in.o
 .rodata.__func__.8494
                0x0000000080848915       0x13 fs/built-in.o
 .rodata.__func__.8498
                0x0000000080848928        0x7 cmd/built-in.o
 .rodata.__func__.8503
                0x000000008084892f       0x14 fs/built-in.o
 .rodata.__func__.8817
                0x0000000080848943        0xe disk/built-in.o
 .rodata.__func__.8827
                0x0000000080848951        0xf disk/built-in.o
 .rodata.__func__.8839
                0x0000000080848960       0x12 disk/built-in.o
 .rodata.__func__.8850
                0x0000000080848972       0x13 disk/built-in.o
 .rodata.__func__.8868
                0x0000000080848985       0x18 common/built-in.o
 .rodata.__func__.8907
                0x000000008084899d       0x1c fs/built-in.o
 .rodata.__func__.8913
                0x00000000808489b9        0xc disk/built-in.o
 .rodata.__func__.8931
                0x00000000808489c5       0x13 disk/built-in.o
 .rodata.__func__.8981
                0x00000000808489d8        0xd disk/built-in.o
 .rodata.__func__.8993
                0x00000000808489e5       0x17 disk/built-in.o
 .rodata.__func__.8998
                0x00000000808489fc        0xd disk/built-in.o
 .rodata.__func__.9031
                0x0000000080848a09        0xc lib/built-in.o
 .rodata.__func__.9474
                0x0000000080848a15        0xb drivers/mtd/nand/built-in.o
 .rodata.__func__.9502
                0x0000000080848a20        0xe drivers/built-in.o
 .rodata.__func__.9617
                0x0000000080848a2e       0x11 drivers/mtd/nand/built-in.o
 .rodata.__func__.9634
                0x0000000080848a3f        0xb cmd/built-in.o
 .rodata.__func__.9839
                0x0000000080848a4a        0xf drivers/mtd/built-in.o
 .rodata.__func__.9878
                0x0000000080848a59       0x11 drivers/mtd/built-in.o
 .rodata.__func__.9894
                0x0000000080848a6a        0xd drivers/built-in.o
 .rodata.__func__.9900
                0x0000000080848a77       0x11 drivers/built-in.o
 .rodata.__func__.9904
                0x0000000080848a88       0x18 drivers/built-in.o
 .rodata.__func__.9908
                0x0000000080848aa0       0x18 drivers/built-in.o
 .rodata.__func__.9912
                0x0000000080848ab8        0xd drivers/built-in.o
 .rodata.__func__.9916
                0x0000000080848ac5       0x14 drivers/built-in.o
 .rodata.__func__.9920
                0x0000000080848ad9       0x14 drivers/built-in.o
 .rodata.__omap24_i2c_setspeed.str1.1
                0x0000000080848aed       0x4c drivers/i2c/built-in.o
 .rodata.__put_mtd_device.str1.1
                0x0000000080848b39       0x2f drivers/mtd/built-in.o
 .rodata._ctype
                0x0000000080848b68      0x100 lib/built-in.o
                0x0000000080848b68                _ctype
 .rodata._do_env_set.isra.0.str1.1
                0x0000000080848c68       0x7c cmd/built-in.o
 .rodata._do_help.str1.1
                0x0000000080848ce4       0x5f common/built-in.o
 .rodata.acm_descriptor
                0x0000000080848d43        0x4 drivers/usb/gadget/built-in.o
 .rodata.add_mtd_device.str1.1
                0x0000000080848d47       0x28 drivers/mtd/built-in.o
 .rodata.android_image_check_header.str1.1
                0x0000000080848d6f        0x9 common/built-in.o
 .rodata.android_image_get_kernel.str1.1
                0x0000000080848d78       0x8b common/built-in.o
                                         0x96 (size before relaxing)
 .rodata.android_image_get_ramdisk.str1.1
                0x0000000080848e03       0x27 common/built-in.o
 .rodata.android_print_contents.str1.1
                0x0000000080848e2a      0x126 common/built-in.o
                                        0x12a (size before relaxing)
 .rodata.announce_dram_init.str1.1
                0x0000000080848f50        0x8 common/built-in.o
 .rodata.arch_misc_init.str1.1
                0x0000000080848f58       0x17 arch/arm/mach-omap2/built-in.o
 .rodata.arp_receive.str1.1
                0x0000000080848f6f       0x14 net/built-in.o
 .rodata.arp_request.str1.1
                0x0000000080848f83       0x2a net/built-in.o
 .rodata.arp_timeout_check.str1.1
                0x0000000080848fad       0x2b net/built-in.o
 .rodata.autoboot_command.str1.1
                0x0000000080848fd8       0x31 common/built-in.o
 .rodata.b_addqchr.str1.1
                0x0000000080849009        0x5 common/built-in.o
 .rodata.bad_mode.str1.1
                0x000000008084900e       0x13 arch/arm/lib/built-in.o
 .rodata.binary_test.str1.1
                0x0000000080849021       0x17 cmd/built-in.o
 .rodata.blk_common_cmd.str1.1
                0x0000000080849038       0xed cmd/built-in.o
                                        0x101 (size before relaxing)
 .rodata.blk_get_device_by_str.str1.1
                0x0000000080849125       0x6a disk/built-in.o
 .rodata.blk_get_device_part_str.str1.1
                0x000000008084918f       0xfc disk/built-in.o
                                        0x109 (size before relaxing)
 .rodata.blk_list_devices.str1.1
                0x000000008084928b        0xc drivers/built-in.o
 .rodata.blk_print_device_num.str1.1
                0x000000008084928b       0x10 drivers/built-in.o
 .rodata.blk_show_device.str1.1
                0x000000008084929b       0x1d drivers/built-in.o
 .rodata.board_init.str1.1
                0x00000000808492b8       0xa2 board/ti/am335x/built-in.o
                                         0xa4 (size before relaxing)
 .rodata.board_late_init.str1.1
                0x000000008084935a       0x73 board/ti/am335x/built-in.o
                                         0x75 (size before relaxing)
 .rodata.board_nand_init.str1.1
                0x00000000808493cd       0x4c drivers/mtd/nand/built-in.o
 .rodata.boot_fdt_add_mem_rsv_regions.str1.1
                0x0000000080849419       0x35 common/built-in.o
 .rodata.boot_get_fdt.str1.1
                0x000000008084944e      0x1b5 common/built-in.o
                                        0x1d4 (size before relaxing)
 .rodata.boot_get_fdt_fit.str1.1
                0x0000000080849603       0x4f common/built-in.o
 .rodata.boot_get_loadable.str1.1
                0x0000000080849652       0x3e common/built-in.o
 .rodata.boot_get_ramdisk.str1.1
                0x0000000080849690       0xb7 common/built-in.o
                                        0x115 (size before relaxing)
 .rodata.boot_get_setup_fit.str1.1
                0x0000000080849747       0x4f common/built-in.o
                                          0x6 (size before relaxing)
 .rodata.boot_jump_linux.str1.1
                0x0000000080849747       0x5c arch/arm/lib/built-in.o
                                         0x5d (size before relaxing)
 .rodata.boot_prep_linux.str1.1
                0x00000000808497a3       0x20 arch/arm/lib/built-in.o
                                         0x29 (size before relaxing)
 .rodata.boot_prep_vxworks.str1.1
                0x00000000808497c3       0x2a arch/arm/lib/built-in.o
 .rodata.boot_ramdisk_high.str1.1
                0x00000000808497ed       0x54 common/built-in.o
 .rodata.boot_relocate_fdt.str1.1
                0x0000000080849841       0xcf common/built-in.o
                                         0xd3 (size before relaxing)
 .rodata.bootdelay_process.str1.1
                0x0000000080849910       0x8e common/built-in.o
                                         0x96 (size before relaxing)
 .rodata.bootm_decomp_image.str1.1
                0x000000008084999e       0x99 common/built-in.o
                                         0xc0 (size before relaxing)
 .rodata.bootm_find_images.str1.1
                0x0000000080849a37       0x6c common/built-in.o
 .rodata.bootm_maybe_autostart.str1.1
                0x0000000080849aa3       0x3b cmd/built-in.o
 .rodata.bootp_request.str1.1
                0x0000000080849ade       0x25 net/built-in.o
 .rodata.bootp_timeout_handler.str1.1
                0x0000000080849b03       0x26 net/built-in.o
 .rodata.calculate_hash.str1.1
                0x0000000080849b29        0x4 common/built-in.o
                                         0x16 (size before relaxing)
 .rodata.call_mgmt_descriptor
                0x0000000080849b2d        0x5 drivers/usb/gadget/built-in.o
 .rodata.cb_continue.str1.1
                0x0000000080849b32        0x5 drivers/usb/gadget/built-in.o
 .rodata.cb_download.str1.1
                0x0000000080849b37       0x51 drivers/usb/gadget/built-in.o
                                         0x53 (size before relaxing)
 .rodata.cb_getvar.str1.1
                0x0000000080849b88       0xf1 drivers/usb/gadget/built-in.o
                                        0x10a (size before relaxing)
 .rodata.cb_oem.str1.1
                0x0000000080849c79       0x2c drivers/usb/gadget/built-in.o
                                         0x33 (size before relaxing)
 .rodata.cb_reboot.str1.1
                0x0000000080849ca5       0x2d drivers/usb/gadget/built-in.o
 .rodata.check_cache_range.str1.1
                0x0000000080849cd2       0x35 arch/arm/lib/built-in.o
 .rodata.check_reserved.str1.1
                0x0000000080849d07       0x27 drivers/gpio/built-in.o
                                         0x28 (size before relaxing)
 .rodata.cli_process_fdt.str1.1
                0x0000000080849d2e        0xb common/built-in.o
                                         0x13 (size before relaxing)
 .rodata.cli_readline_into_buffer.str1.1
                0x0000000080849d39        0x7 common/built-in.o
                                          0x8 (size before relaxing)
 .rodata.cli_secure_boot_cmd.str1.1
                0x0000000080849d40       0x50 common/built-in.o
 .rodata.clk_synthesizer_reg_write.str1.1
                0x0000000080849d90       0x33 arch/arm/mach-omap2/built-in.o
 .rodata.cmd_auto_complete.str1.1
                0x0000000080849dc3       0x5f common/built-in.o
                                          0xf (size before relaxing)
 .rodata.cmd_process.str1.1
                0x0000000080849dc3       0x3f common/built-in.o
 .rodata.cmd_process_error.str1.1
                0x0000000080849e02       0x1f common/built-in.o
 .rodata.cmd_usage.str1.1
                0x0000000080849e21       0x36 common/built-in.o
 .rodata.common_diskboot.str1.1
                0x0000000080849e57       0x78 cmd/built-in.o
                                         0xbf (size before relaxing)
 .rodata.compile.str1.1
                0x0000000080849ecf       0x4a lib/built-in.o
 .rodata.composite_unbind.str1.1
                0x0000000080849f19       0x1f drivers/usb/gadget/built-in.o
                                         0x38 (size before relaxing)
 .rodata.confirm_yesno.str1.1
                0x0000000080849f38       0x10 common/built-in.o
 .rodata.cpsw_am33xx_cm_get_macid.str1.1
                0x0000000080849f48       0x59 drivers/net/built-in.o
 .rodata.cpsw_eth_ofdata_to_platdata.str1.1
                0x0000000080849fa1      0x219 drivers/net/built-in.o
                                        0x240 (size before relaxing)
 .rodata.cpsw_eth_send.str1.1
                0x000000008084a1ba       0x17 drivers/net/built-in.o
 .rodata.cpsw_eth_start.str1.1
                0x000000008084a1d1       0x5c drivers/net/built-in.o
                                         0x66 (size before relaxing)
 .rodata.cpsw_mdio_read.str1.1
                0x000000008084a22d       0x1e drivers/net/built-in.o
 .rodata.cread_add_char.str1.1
                0x000000008084a24b        0x7 common/built-in.o
                                          0x5 (size before relaxing)
 .rodata.current_save.str1.1
                0x000000008084a24b        0x8 cmd/built-in.o
                                         0x12 (size before relaxing)
 .rodata.default_environment
                0x000000008084a253     0x230b env/built-in.o
                0x000000008084a253                default_environment
 .rodata.dev_get_platdata.str1.1
                0x000000008084c55e       0x11 drivers/built-in.o
 .rodata.dev_print.str1.1
                0x000000008084c56f      0x14d disk/built-in.o
                                        0x15e (size before relaxing)
 .rodata.devfdt_get_addr_index.str1.1
                0x000000008084c6bc        0x4 drivers/built-in.o
 .rodata.device_bind_common.isra.0.str1.1
                0x000000008084c6bc       0x5b drivers/built-in.o
 .rodata.device_parse.str1.1
                0x000000008084c717       0xfd cmd/built-in.o
                                        0x118 (size before relaxing)
 .rodata.device_probe.str1.1
                0x000000008084c814       0x30 drivers/built-in.o
 .rodata.device_remove.str1.1
                0x000000008084c844       0x98 drivers/built-in.o
 .rodata.dfu_add.str1.1
                0x000000008084c8dc        0x4 drivers/usb/gadget/built-in.o
 .rodata.dfu_bind.str1.1
                0x000000008084c8dc        0x8 drivers/usb/gadget/built-in.o
 .rodata.dfu_config_entities.str1.1
                0x000000008084c8dc       0x92 drivers/built-in.o
                                         0xac (size before relaxing)
 .rodata.dfu_fill_entity_mmc.str1.1
                0x000000008084c96e       0xab drivers/built-in.o
                                         0xd9 (size before relaxing)
 .rodata.dfu_fill_entity_nand.str1.1
                0x000000008084ca19       0x55 drivers/built-in.o
                                         0x6d (size before relaxing)
 .rodata.dfu_fill_entity_ram.str1.1
                0x000000008084ca6e       0x18 drivers/built-in.o
                                         0x3c (size before relaxing)
 .rodata.dfu_flush.str1.1
                0x000000008084ca86       0x1a drivers/built-in.o
 .rodata.dfu_flush_medium_nand.str1.1
                0x000000008084caa0       0x13 drivers/built-in.o
 .rodata.dfu_func
                0x000000008084cab3        0x9 drivers/usb/gadget/built-in.o
 .rodata.dfu_get_buf.str1.1
                0x000000008084cabc       0x2f drivers/built-in.o
 .rodata.dfu_init_env_entities.str1.1
                0x000000008084caeb       0x5b drivers/built-in.o
 .rodata.dfu_name
                0x000000008084cb46       0x18 drivers/usb/gadget/built-in.o
 .rodata.dfu_read.str1.1
                0x000000008084cb5e       0x40 drivers/built-in.o
 .rodata.dfu_show_entities.str1.1
                0x000000008084cb9e       0x3d drivers/built-in.o
 .rodata.dfu_write.str1.1
                0x000000008084cbdb       0x4d drivers/built-in.o
 .rodata.dfu_write_buffer_drain.str1.1
                0x000000008084cc28       0x4d drivers/built-in.o
                                          0x2 (size before relaxing)
 .rodata.dfu_write_medium_nand.str1.1
                0x000000008084cc28       0x26 drivers/built-in.o
 .rodata.dfu_write_medium_ram.str1.1
                0x000000008084cc28       0x36 drivers/built-in.o
 .rodata.dhcp_extended.str1.1
                0x000000008084cc5e       0x37 net/built-in.o
                                         0x48 (size before relaxing)
 .rodata.dhcp_handler.str1.1
                0x000000008084cc95       0x41 net/built-in.o
                                         0x4a (size before relaxing)
 .rodata.dhcp_process_options.str1.1
                0x000000008084ccd6       0x78 net/built-in.o
 .rodata.digits.8091
                0x000000008084cd4e       0x10 lib/built-in.o
 .rodata.disk_write.str1.1
                0x000000008084cd5e       0x18 fs/built-in.o
 .rodata.display_options.str1.1
                0x000000008084cd5e        0x3 lib/built-in.o
 .rodata.display_options_get_banner_priv.str1.1
                0x000000008084cd5e        0xc lib/built-in.o
                                         0x15 (size before relaxing)
 .rodata.dm_dump_all.str1.1
                0x000000008084cd6a       0x26 drivers/built-in.o
                                         0x50 (size before relaxing)
 .rodata.dm_dump_uclass.str1.1
                0x000000008084cd90       0x32 drivers/built-in.o
                                         0x34 (size before relaxing)
 .rodata.dm_extended_scan_fdt.str1.1
                0x000000008084cdc2        0x8 drivers/built-in.o
 .rodata.dm_fdt_pre_reloc.str1.1
                0x000000008084cdca       0x30 drivers/built-in.o
 .rodata.dm_gpio_get_value.str1.1
                0x000000008084cdfa        0xa drivers/gpio/built-in.o
 .rodata.dm_gpio_set_dir_flags.str1.1
                0x000000008084ce04        0x8 drivers/gpio/built-in.o
 .rodata.dm_gpio_set_value.str1.1
                0x000000008084ce0c        0xa drivers/gpio/built-in.o
 .rodata.dm_init.str1.1
                0x000000008084ce16       0x25 drivers/built-in.o
 .rodata.dm_root.str1.1
                0x000000008084ce3b       0x25 drivers/built-in.o
 .rodata.dm_scan_fdt_node.str1.1
                0x000000008084ce60       0x1d drivers/built-in.o
 .rodata.dm_scan_platdata.str1.1
                0x000000008084ce7d       0x1d drivers/built-in.o
 .rodata.dm_timer_init.str1.1
                0x000000008084ce9a        0xb drivers/built-in.o
 .rodata.dm_usb_init.str1.1
                0x000000008084cea5       0x15 drivers/usb/gadget/built-in.o
 .rodata.do_bdinfo.str1.1
                0x000000008084ceba       0xa4 cmd/built-in.o
 .rodata.do_bootd.str1.1
                0x000000008084cf5e       0x3b cmd/built-in.o
                                          0x8 (size before relaxing)
 .rodata.do_bootefi.str1.1
                0x000000008084cf5e       0x7d cmd/built-in.o
 .rodata.do_bootefi_exec.str1.1
                0x000000008084cfdb      0x12b cmd/built-in.o
 .rodata.do_bootelf.str1.1
                0x000000008084d106       0x4f cmd/built-in.o
                                         0x5c (size before relaxing)
 .rodata.do_bootm.str1.1
                0x000000008084d155       0x2a cmd/built-in.o
 .rodata.do_bootm_netbsd.str1.1
                0x000000008084d17f       0x49 common/built-in.o
                                         0x4a (size before relaxing)
 .rodata.do_bootm_on_complete.str1.1
                0x000000008084d1c8       0x18 drivers/usb/gadget/built-in.o
                                         0x1e (size before relaxing)
 .rodata.do_bootm_plan9.str1.1
                0x000000008084d1e0       0x43 common/built-in.o
                                         0x4c (size before relaxing)
 .rodata.do_bootm_qnxelf.str1.1
                0x000000008084d223        0x4 common/built-in.o
 .rodata.do_bootm_rtems.str1.1
                0x000000008084d223       0x39 common/built-in.o
 .rodata.do_bootm_standalone.str1.1
                0x000000008084d25c       0x16 common/built-in.o
 .rodata.do_bootm_states.str1.1
                0x000000008084d25c      0x2b0 common/built-in.o
                                        0x328 (size before relaxing)
 .rodata.do_bootvx.str1.1
                0x000000008084d50c      0x1c5 cmd/built-in.o
                                        0x1d0 (size before relaxing)
 .rodata.do_bootvx_fdt.str1.1
                0x000000008084d6d1       0x57 common/built-in.o
                                         0x75 (size before relaxing)
 .rodata.do_chpart.str1.1
                0x000000008084d728       0x39 cmd/built-in.o
 .rodata.do_coninfo.str1.1
                0x000000008084d761       0x2c cmd/built-in.o
                                         0x30 (size before relaxing)
 .rodata.do_data_abort.str1.1
                0x000000008084d78d        0xc arch/arm/lib/built-in.o
 .rodata.do_dfu.str1.1
                0x000000008084d799        0xc cmd/built-in.o
                                         0x11 (size before relaxing)
 .rodata.do_echo.str1.1
                0x000000008084d7a5        0x3 cmd/built-in.o
 .rodata.do_eeprom.str1.1
                0x000000008084d7a8       0x39 cmd/built-in.o
                                         0x4a (size before relaxing)
 .rodata.do_env_ask.str1.1
                0x000000008084d7e1       0x14 cmd/built-in.o
 .rodata.do_env_default.str1.1
                0x000000008084d7f5       0x25 cmd/built-in.o
 .rodata.do_env_edit.part.2.str1.1
                0x000000008084d81a        0x7 cmd/built-in.o
                                          0xa (size before relaxing)
 .rodata.do_env_export.str1.1
                0x000000008084d821       0x2b cmd/built-in.o
                                         0x34 (size before relaxing)
 .rodata.do_env_import.str1.1
                0x000000008084d84c      0x12f cmd/built-in.o
 .rodata.do_env_print.str1.1
                0x000000008084d97b       0x3d cmd/built-in.o
 .rodata.do_env_save.str1.1
                0x000000008084d9b8       0x1d cmd/built-in.o
 .rodata.do_fastboot.str1.1
                0x000000008084d9d5       0x4d cmd/built-in.o
 .rodata.do_fat_fsinfo.str1.1
                0x000000008084da22       0x56 cmd/built-in.o
 .rodata.do_fat_fswrite.str1.1
                0x000000008084da78       0x6b cmd/built-in.o
 .rodata.do_fat_write.str1.1
                0x000000008084dae3       0xd6 fs/built-in.o
 .rodata.do_fdt.str1.1
                0x000000008084dbb9      0x490 cmd/built-in.o
                                        0x4ba (size before relaxing)
 .rodata.do_fiq.str1.1
                0x000000008084e049       0x18 arch/arm/lib/built-in.o
 .rodata.do_fixup_by_path.str1.1
                0x000000008084e061       0x29 common/built-in.o
 .rodata.do_fs_uuid.str1.1
                0x000000008084e08a        0x4 fs/built-in.o
 .rodata.do_get_any.str1.1
                0x000000008084e08a        0x5 cmd/built-in.o
 .rodata.do_get_ext2.str1.1
                0x000000008084e08a        0x9 cmd/built-in.o
 .rodata.do_get_fat.str1.1
                0x000000008084e08a        0x8 cmd/built-in.o
 .rodata.do_get_tftp.str1.1
                0x000000008084e08a        0x5 cmd/built-in.o
 .rodata.do_go.str1.1
                0x000000008084e08a       0x4f cmd/built-in.o
 .rodata.do_gpio.str1.1
                0x000000008084e0d9       0xc4 cmd/built-in.o
                                         0xd2 (size before relaxing)
 .rodata.do_gpt.str1.1
                0x000000008084e19d       0xc0 cmd/built-in.o
                                         0xef (size before relaxing)
 .rodata.do_i2c_bus_num.str1.1
                0x000000008084e25d       0x48 cmd/built-in.o
 .rodata.do_i2c_bus_speed.str1.1
                0x000000008084e2a5       0x53 cmd/built-in.o
 .rodata.do_i2c_crc.str1.1
                0x000000008084e2f8       0x1f cmd/built-in.o
                                         0x26 (size before relaxing)
 .rodata.do_i2c_md.str1.1
                0x000000008084e317        0xc cmd/built-in.o
                                         0x16 (size before relaxing)
 .rodata.do_i2c_olen.str1.1
                0x000000008084e323       0x1f cmd/built-in.o
                                         0x23 (size before relaxing)
 .rodata.do_i2c_probe.str1.1
                0x000000008084e342       0x1c cmd/built-in.o
 .rodata.do_i2c_reset.str1.1
                0x000000008084e35e       0x24 cmd/built-in.o
 .rodata.do_i2c_show_bus.str1.1
                0x000000008084e382       0x18 cmd/built-in.o
 .rodata.do_i2c_write.str1.1
                0x000000008084e39a        0x3 cmd/built-in.o
 .rodata.do_imgextract.str1.1
                0x000000008084e39d      0x1af cmd/built-in.o
                                        0x296 (size before relaxing)
 .rodata.do_irq.str1.1
                0x000000008084e54c       0x18 arch/arm/lib/built-in.o
                                         0x13 (size before relaxing)
 .rodata.do_itest.str1.1
                0x000000008084e54c       0x1e cmd/built-in.o
 .rodata.do_load.str1.1
                0x000000008084e56a       0x39 fs/built-in.o
                                         0x5b (size before relaxing)
 .rodata.do_load_serial.str1.1
                0x000000008084e5a3       0x6b cmd/built-in.o
 .rodata.do_load_serial_bin.str1.1
                0x000000008084e60e      0x159 cmd/built-in.o
 .rodata.do_load_wrapper.str1.1
                0x000000008084e767        0x1 cmd/built-in.o
 .rodata.do_ls.str1.1
                0x000000008084e767        0x2 fs/built-in.o
 .rodata.do_mdio.str1.1
                0x000000008084e767       0x65 cmd/built-in.o
 .rodata.do_mem_base.str1.1
                0x000000008084e7cc       0x17 cmd/built-in.o
 .rodata.do_mem_cmp.str1.1
                0x000000008084e7e3       0x6e cmd/built-in.o
                                         0x73 (size before relaxing)
 .rodata.do_mem_cp.str1.1
                0x000000008084e851       0x11 cmd/built-in.o
 .rodata.do_mem_crc.str1.1
                0x000000008084e862        0x6 cmd/built-in.o
 .rodata.do_mii.str1.1
                0x000000008084e862      0x297 cmd/built-in.o
                                        0x2b0 (size before relaxing)
 .rodata.do_mmc_dev.str1.1
                0x000000008084eaf9       0x80 cmd/built-in.o
                                         0x89 (size before relaxing)
 .rodata.do_mmc_erase.str1.1
                0x000000008084eb79       0x67 cmd/built-in.o
 .rodata.do_mmc_hwpartition.str1.1
                0x000000008084ebe0      0x126 cmd/built-in.o
                                        0x142 (size before relaxing)
 .rodata.do_mmc_part.str1.1
                0x000000008084ed06       0x15 cmd/built-in.o
 .rodata.do_mmc_read.str1.1
                0x000000008084ed1b       0x43 cmd/built-in.o
 .rodata.do_mmc_setdsr.str1.1
                0x000000008084ed5e       0x1d cmd/built-in.o
 .rodata.do_mmc_write.str1.1
                0x000000008084ed7b       0x47 cmd/built-in.o
 .rodata.do_mmcinfo.str1.1
                0x000000008084edc2      0x107 cmd/built-in.o
                                        0x159 (size before relaxing)
 .rodata.do_mmcops.str1.1
                0x000000008084eec9       0x19 cmd/built-in.o
 .rodata.do_mtdparts.str1.1
                0x000000008084eee2      0x1df cmd/built-in.o
                                        0x1ee (size before relaxing)
 .rodata.do_nand.str1.1
                0x000000008084f0c1      0x392 cmd/built-in.o
                                        0x3de (size before relaxing)
 .rodata.do_nandboot.str1.1
                0x000000008084f453       0x52 cmd/built-in.o
 .rodata.do_not_used.str1.1
                0x000000008084f4a5        0xa arch/arm/lib/built-in.o
 .rodata.do_part.str1.1
                0x000000008084f4af       0x1d cmd/built-in.o
                                         0x15 (size before relaxing)
 .rodata.do_part_list.str1.1
                0x000000008084f4af       0x22 cmd/built-in.o
                                         0x25 (size before relaxing)
 .rodata.do_part_start.str1.1
                0x000000008084f4d1       0x22 cmd/built-in.o
                                          0x8 (size before relaxing)
 .rodata.do_ping.str1.1
                0x000000008084f4d1       0x35 cmd/built-in.o
 .rodata.do_prefetch_abort.str1.1
                0x000000008084f506       0x10 arch/arm/lib/built-in.o
 .rodata.do_pxe_boot.str1.1
                0x000000008084f516       0x38 cmd/built-in.o
 .rodata.do_pxe_get.str1.1
                0x000000008084f54e       0x41 cmd/built-in.o
                                         0x46 (size before relaxing)
 .rodata.do_reset.str1.1
                0x000000008084f58f        0xf arch/arm/lib/built-in.o
 .rodata.do_run.str1.1
                0x000000008084f59e       0x1c common/built-in.o
 .rodata.do_save.str1.1
                0x000000008084f59e       0x1d fs/built-in.o
 .rodata.do_showvar.str1.1
                0x000000008084f5bb        0xc common/built-in.o
                                         0x2f (size before relaxing)
 .rodata.do_size.str1.1
                0x000000008084f5c7        0x9 fs/built-in.o
 .rodata.do_software_interrupt.str1.1
                0x000000008084f5c7       0x14 arch/arm/lib/built-in.o
 .rodata.do_source.str1.1
                0x000000008084f5db       0x1e cmd/built-in.o
 .rodata.do_spi.str1.1
                0x000000008084f5f9       0x66 cmd/built-in.o
                                         0x6d (size before relaxing)
 .rodata.do_spi_flash.str1.1
                0x000000008084f65f      0x1bf cmd/built-in.o
                                        0x1f2 (size before relaxing)
 .rodata.do_spl.str1.1
                0x000000008084f81e       0xc2 cmd/built-in.o
 .rodata.do_sysboot.str1.1
                0x000000008084f8e0       0x43 cmd/built-in.o
 .rodata.do_time.str1.1
                0x000000008084f923       0x29 cmd/built-in.o
 .rodata.do_undefined_instruction.str1.1
                0x000000008084f94c       0x17 arch/arm/lib/built-in.o
 .rodata.do_usb.str1.1
                0x000000008084f963      0x272 cmd/built-in.o
                                        0x293 (size before relaxing)
 .rodata.do_usbboot.str1.1
                0x000000008084fbd5      0x272 cmd/built-in.o
                                          0x4 (size before relaxing)
 .rodata.do_version.str1.1
                0x000000008084fbd5       0x73 cmd/built-in.o
 .rodata.driver_desc
                0x000000008084fc48       0x10 drivers/usb/gadget/built-in.o
 .rodata.efi_block_io_guid
                0x000000008084fc58       0x10 lib/built-in.o
 .rodata.efi_bootmgr_load.str1.1
                0x000000008084fc68        0xe lib/built-in.o
 .rodata.efi_console_register.str1.1
                0x000000008084fc76       0x79 lib/built-in.o
 .rodata.efi_convert_device_node_to_text.isra.1.str1.1
                0x000000008084fcef      0x115 lib/built-in.o
                                        0x11f (size before relaxing)
 .rodata.efi_cout_clear_screen.str1.1
                0x000000008084fe04        0x5 lib/built-in.o
 .rodata.efi_cout_enable_cursor.str1.1
                0x000000008084fe09        0x8 lib/built-in.o
 .rodata.efi_cout_query_mode.str1.1
                0x000000008084fe11       0x11 lib/built-in.o
                                         0x18 (size before relaxing)
 .rodata.efi_cout_set_attribute.str1.1
                0x000000008084fe22       0x17 lib/built-in.o
 .rodata.efi_cout_set_cursor_position.str1.1
                0x000000008084fe39        0x9 lib/built-in.o
 .rodata.efi_disk_register.str1.1
                0x000000008084fe42       0x2f lib/built-in.o
                                         0x34 (size before relaxing)
 .rodata.efi_file_from_path.str1.1
                0x000000008084fe71       0x10 lib/built-in.o
 .rodata.efi_file_info_guid
                0x000000008084fe81       0x10 lib/built-in.o
                0x000000008084fe81                efi_file_info_guid
 .rodata.efi_get_variable.str1.1
                0x000000008084fe91       0x30 lib/built-in.o
                                         0x37 (size before relaxing)
 .rodata.efi_global_variable_guid
                0x000000008084fec1       0x10 lib/built-in.o
                0x000000008084fec1                efi_global_variable_guid
 .rodata.efi_guid_console_control
                0x000000008084fed1       0x10 lib/built-in.o
                0x000000008084fed1                efi_guid_console_control
 .rodata.efi_guid_device_path
                0x000000008084fee1       0x10 lib/built-in.o
                0x000000008084fee1                efi_guid_device_path
 .rodata.efi_guid_device_path_to_text_protocol
                0x000000008084fef1       0x10 lib/built-in.o
                0x000000008084fef1                efi_guid_device_path_to_text_protocol
 .rodata.efi_guid_loaded_image
                0x000000008084ff01       0x10 lib/built-in.o
                0x000000008084ff01                efi_guid_loaded_image
 .rodata.efi_load_pe.str1.1
                0x000000008084ff11       0xbc lib/built-in.o
 .rodata.efi_net_guid
                0x000000008084ffcd       0x10 lib/built-in.o
 .rodata.efi_net_register.str1.1
                0x000000008084ffdd       0x4d lib/built-in.o
 .rodata.efi_pxe_guid
                0x000000008085002a       0x10 lib/built-in.o
 .rodata.efi_runtime_relocate.str1.1
                0x000000008085003a       0x34 lib/built-in.o
 .rodata.efi_set_bootdev.str1.1
                0x000000008085006e        0x4 cmd/built-in.o
                                          0xb (size before relaxing)
 .rodata.efi_set_variable.str1.1
                0x0000000080850072       0x16 lib/built-in.o
                                         0x1a (size before relaxing)
 .rodata.efi_simple_file_system_protocol_guid
                0x0000000080850088       0x10 lib/built-in.o
                0x0000000080850088                efi_simple_file_system_protocol_guid
 .rodata.efi_to_native.str1.1
                0x0000000080850098        0xa lib/built-in.o
 .rodata.elm_check_error.str1.1
                0x00000000808500a2       0x27 drivers/mtd/nand/built-in.o
 .rodata.emit.str1.1
                0x00000000808500c9       0x1f lib/built-in.o
 .rodata.env_callback_init.str1.1
                0x00000000808500e8        0xb env/built-in.o
 .rodata.env_complete.str1.1
                0x00000000808500f3        0x4 env/built-in.o
 .rodata.env_export.str1.1
                0x00000000808500f3       0x27 env/built-in.o
 .rodata.env_fat_load.str1.1
                0x00000000808500f3       0x5c env/built-in.o
 .rodata.env_fat_save.str1.1
                0x000000008085014f       0x63 env/built-in.o
                                         0x6d (size before relaxing)
 .rodata.env_flags_init.str1.1
                0x00000000808501b2        0x7 env/built-in.o
 .rodata.env_flags_parse_varaccess.str1.1
                0x00000000808501b9       0x3d env/built-in.o
 .rodata.env_flags_parse_vartype.str1.1
                0x00000000808501f6       0x34 env/built-in.o
 .rodata.env_flags_validate.str1.1
                0x000000008085022a       0xb2 env/built-in.o
                                         0xb3 (size before relaxing)
 .rodata.env_flags_varaccess_rep
                0x00000000808502dc        0x5 env/built-in.o
 .rodata.env_flags_vartype_rep
                0x00000000808502e1        0x7 env/built-in.o
 .rodata.env_get_bootm_low.str1.1
                0x00000000808502e8        0xa common/built-in.o
 .rodata.env_get_bootm_mapsize.str1.1
                0x00000000808502f2        0xe common/built-in.o
 .rodata.env_get_bootm_size.str1.1
                0x0000000080850300        0xb common/built-in.o
 .rodata.env_get_f.str1.1
                0x000000008085030b       0x30 cmd/built-in.o
 .rodata.env_get_mtdparts.str1.1
                0x000000008085033b        0x9 cmd/built-in.o
 .rodata.env_import.str1.1
                0x0000000080850344       0x3f env/built-in.o
 .rodata.env_print.str1.1
                0x0000000080850383       0x2c cmd/built-in.o
 .rodata.env_set.str1.1
                0x00000000808503af        0x7 cmd/built-in.o
 .rodata.env_set_hex.str1.1
                0x00000000808503b6        0x4 cmd/built-in.o
 .rodata.erase_seq
                0x00000000808503b6        0x4 common/built-in.o
 .rodata.eth_bind.str1.1
                0x00000000808503ba      0x113 drivers/usb/gadget/built-in.o
                                        0x11d (size before relaxing)
 .rodata.eth_current_changed.str1.1
                0x00000000808504cd       0x14 net/built-in.o
 .rodata.eth_env_get_enetaddr_by_index.str1.1
                0x00000000808504cd       0x10 net/built-in.o
 .rodata.eth_env_set_enetaddr.str1.1
                0x00000000808504dd        0x4 net/built-in.o
 .rodata.eth_get_name.str1.1
                0x00000000808504e1        0x8 net/built-in.o
 .rodata.eth_init.str1.1
                0x00000000808504e1       0x11 net/built-in.o
                                         0x28 (size before relaxing)
 .rodata.eth_initialize.str1.1
                0x00000000808504f2       0x1c net/built-in.o
                                         0x1f (size before relaxing)
 .rodata.eth_mac_skip.str1.1
                0x000000008085050e       0x18 net/built-in.o
 .rodata.eth_post_bind.str1.1
                0x0000000080850526       0x2b net/built-in.o
 .rodata.eth_post_probe.str1.1
                0x0000000080850551       0xaf net/built-in.o
                                         0xb3 (size before relaxing)
 .rodata.eth_set_current.str1.1
                0x0000000080850600        0x9 net/built-in.o
 .rodata.eth_setup.str1.1
                0x0000000080850600       0x3d drivers/usb/gadget/built-in.o
                                         0x49 (size before relaxing)
 .rodata.eth_write_hwaddr.str1.1
                0x000000008085063d       0x4e net/built-in.o
 .rodata.ext4_read_file.str1.1
                0x000000008085068b       0x19 fs/built-in.o
 .rodata.ext4_write_file.str1.1
                0x00000000808506a4       0x42 fs/built-in.o
 .rodata.ext4fs_allocate_blocks.str1.1
                0x00000000808506e6       0x61 fs/built-in.o
 .rodata.ext4fs_check_journal_state.str1.1
                0x0000000080850747       0x2e fs/built-in.o
 .rodata.ext4fs_filename_unlink.str1.1
                0x0000000080850775       0x16 fs/built-in.o
 .rodata.ext4fs_get_bgdtable.str1.1
                0x000000008085078b       0x19 fs/built-in.o
 .rodata.ext4fs_get_parent_inode_num.str1.1
                0x00000000808507a4       0x3e fs/built-in.o
                                         0x40 (size before relaxing)
 .rodata.ext4fs_init.str1.1
                0x00000000808507e2       0x33 fs/built-in.o
 .rodata.ext4fs_iterate_dir.str1.1
                0x0000000080850815       0x43 fs/built-in.o
                                         0x4a (size before relaxing)
 .rodata.ext4fs_log_journal.str1.1
                0x0000000080850858       0x1c fs/built-in.o
 .rodata.ext4fs_ls.str1.1
                0x0000000080850874       0x1f fs/built-in.o
 .rodata.ext4fs_mount.str1.1
                0x0000000080850893       0x24 fs/built-in.o
 .rodata.ext4fs_push_revoke_blk.str1.1
                0x00000000808508b7       0x2e fs/built-in.o
 .rodata.ext4fs_update_journal.str1.1
                0x00000000808508e5       0x19 fs/built-in.o
 .rodata.ext4fs_update_parent_dentry.str1.1
                0x00000000808508fe       0x86 fs/built-in.o
 .rodata.ext4fs_write.str1.1
                0x0000000080850984       0x78 fs/built-in.o
 .rodata.extract_env.str1.1
                0x00000000808509fc        0x3 cmd/built-in.o
 .rodata.extract_val.str1.1
                0x00000000808509ff        0x3 cmd/built-in.o
                                          0x4 (size before relaxing)
 .rodata.fastboot_add.str1.1
                0x00000000808509ff        0xb drivers/usb/gadget/built-in.o
 .rodata.fastboot_complete.str1.1
                0x0000000080850a0a       0x1e drivers/usb/gadget/built-in.o
 .rodata.fastboot_name
                0x0000000080850a28       0x11 drivers/usb/gadget/built-in.o
 .rodata.fastboot_set_alt.str1.1
                0x0000000080850a39       0x5f drivers/usb/gadget/built-in.o
 .rodata.fastboot_tx_write_str.str1.1
                0x0000000080850a98       0x13 drivers/usb/gadget/built-in.o
 .rodata.fat_itr_root.str1.1
                0x0000000080850aab       0x33 fs/built-in.o
 .rodata.fat_read_file.str1.1
                0x0000000080850ade       0x1e fs/built-in.o
 .rodata.fat_set_blk_dev.str1.1
                0x0000000080850afc        0x3 fs/built-in.o
                                          0xd (size before relaxing)
 .rodata.fb_set_reboot_flag.str1.1
                0x0000000080850aff       0x30 arch/arm/mach-omap2/built-in.o
                                         0x32 (size before relaxing)
 .rodata.fdt_address_cells.str1.1
                0x0000000080850b2f        0xf lib/built-in.o
 .rodata.fdt_chosen.str1.1
                0x0000000080850b3e       0x35 common/built-in.o
                                         0x3e (size before relaxing)
 .rodata.fdt_error.str1.1
                0x0000000080850b73       0x2d common/built-in.o
 .rodata.fdt_find_or_add_subnode.str1.1
                0x0000000080850ba0        0xc common/built-in.o
 .rodata.fdt_fixup_ethernet.str1.1
                0x0000000080850bac       0x2e common/built-in.o
                                         0x42 (size before relaxing)
 .rodata.fdt_fixup_memory_banks.str1.1
                0x0000000080850bda       0x85 common/built-in.o
                                         0x94 (size before relaxing)
 .rodata.fdt_get_alias_namelen.str1.1
                0x0000000080850c5f        0x9 lib/built-in.o
 .rodata.fdt_get_phandle.str1.1
                0x0000000080850c5f       0x16 lib/built-in.o
 .rodata.fdt_initrd.str1.1
                0x0000000080850c5f       0x90 common/built-in.o
                                         0x97 (size before relaxing)
 .rodata.fdt_node_check_compatible.str1.1
                0x0000000080850cef        0xb lib/built-in.o
 .rodata.fdt_overlay_apply.str1.1
                0x0000000080850cef       0x38 lib/built-in.o
                                         0x51 (size before relaxing)
 .rodata.fdt_overlay_apply_verbose.str1.1
                0x0000000080850d27       0x83 common/built-in.o
 .rodata.fdt_root.str1.1
                0x0000000080850daa       0x4e common/built-in.o
 .rodata.fdt_size_cells.str1.1
                0x0000000080850df8        0xc lib/built-in.o
 .rodata.fdt_strerror.str1.1
                0x0000000080850df8       0x31 lib/built-in.o
 .rodata.fdt_support_default_count_cells.str1.1
                0x0000000080850e29        0xc common/built-in.o
 .rodata.fdt_translate_address.str1.1
                0x0000000080850e35       0x22 common/built-in.o
 .rodata.fdt_valid.str1.1
                0x0000000080850e57       0x79 cmd/built-in.o
                                         0x7b (size before relaxing)
 .rodata.fdtdec_add_aliases_for_id.str1.1
                0x0000000080850ed0        0x9 lib/built-in.o
 .rodata.fdtdec_get_chosen_prop.str1.1
                0x0000000080850ed0        0x8 lib/built-in.o
 .rodata.fdtdec_get_config_int.str1.1
                0x0000000080850ed0        0x8 lib/built-in.o
 .rodata.fdtdec_get_is_enabled.str1.1
                0x0000000080850ed8        0x5 lib/built-in.o
                                          0xc (size before relaxing)
 .rodata.fdtdec_prepare_fdt.str1.1
                0x0000000080850edd       0x96 lib/built-in.o
 .rodata.fdtdec_setup.str1.1
                0x0000000080850f73        0xf lib/built-in.o
 .rodata.file_fat_detectfs.str1.1
                0x0000000080850f73       0x5c fs/built-in.o
                                         0x84 (size before relaxing)
 .rodata.file_fat_read_at.str1.1
                0x0000000080850fcf       0x23 fs/built-in.o
 .rodata.file_fat_write.str1.1
                0x0000000080850ff2       0x40 fs/built-in.o
 .rodata.file_get.str1.1
                0x0000000080851032        0xc common/built-in.o
                                          0x7 (size before relaxing)
 .rodata.file_open.str1.1
                0x0000000080851032        0xa lib/built-in.o
                                          0xb (size before relaxing)
 .rodata.find_dev_and_part.str1.1
                0x000000008085103c       0x6b cmd/built-in.o
 .rodata.find_mmc_device.str1.1
                0x00000000808510a7       0x19 drivers/built-in.o
 .rodata.fit_all_image_verify.str1.1
                0x00000000808510c0       0x7a common/built-in.o
 .rodata.fit_conf_find_compat.str1.1
                0x000000008085113a       0x1b common/built-in.o
                                         0x1f (size before relaxing)
 .rodata.fit_conf_get_node.str1.1
                0x0000000080851155        0x8 common/built-in.o
 .rodata.fit_conf_print.str1.1
                0x0000000080851155       0x78 common/built-in.o
                                         0x96 (size before relaxing)
 .rodata.fit_get_desc.str1.1
                0x00000000808511cd        0xc common/built-in.o
 .rodata.fit_get_timestamp.str1.1
                0x00000000808511d9        0xa common/built-in.o
 .rodata.fit_image_get_address.str1.1
                0x00000000808511e3       0x1d common/built-in.o
 .rodata.fit_image_get_arch.str1.1
                0x0000000080851200       0x1d common/built-in.o
                                          0x5 (size before relaxing)
 .rodata.fit_image_get_comp.str1.1
                0x0000000080851200        0xc common/built-in.o
 .rodata.fit_image_get_data.str1.1
                0x0000000080851200        0x5 common/built-in.o
 .rodata.fit_image_get_entry.str1.1
                0x0000000080851205        0x6 common/built-in.o
 .rodata.fit_image_get_load.str1.1
                0x000000008085120b        0x5 common/built-in.o
 .rodata.fit_image_get_node.str1.1
                0x000000008085120b        0x8 common/built-in.o
 .rodata.fit_image_get_os.str1.1
                0x0000000080851213        0x8 common/built-in.o
                                          0x3 (size before relaxing)
 .rodata.fit_image_get_type.str1.1
                0x0000000080851213        0x8 common/built-in.o
                                          0x5 (size before relaxing)
 .rodata.fit_image_hash_get_algo.str1.1
                0x0000000080851213        0x8 common/built-in.o
                                          0x5 (size before relaxing)
 .rodata.fit_image_hash_get_value.str1.1
                0x0000000080851213        0x8 common/built-in.o
                                          0x6 (size before relaxing)
 .rodata.fit_image_load.str1.1
                0x0000000080851213      0x1cd common/built-in.o
                                        0x1e0 (size before relaxing)
 .rodata.fit_image_print.str1.1
                0x00000000808513e0       0xfe common/built-in.o
                                        0x10b (size before relaxing)
 .rodata.fit_image_print_data.str1.1
                0x00000000808514de       0x7a common/built-in.o
                                         0x88 (size before relaxing)
 .rodata.fit_image_verify.str1.1
                0x0000000080851558       0xfa common/built-in.o
 .rodata.fit_print_contents.str1.1
                0x0000000080851652       0x74 common/built-in.o
                                         0x78 (size before relaxing)
 .rodata.flush_dir_table.constprop.8.str1.1
                0x00000000808516c6       0x21 fs/built-in.o
 .rodata.format_mac_pxe.constprop.6.str1.1
                0x00000000808516e7       0x25 cmd/built-in.o
 .rodata.from_env.str1.1
                0x000000008085170c       0x22 cmd/built-in.o
 .rodata.fs_devread.str1.1
                0x000000008085172e       0x98 fs/built-in.o
 .rodata.fs_ls_generic.str1.1
                0x00000000808517c6       0x37 fs/built-in.o
 .rodata.fs_probe_unsupported.str1.1
                0x00000000808517fd       0x24 fs/built-in.o
 .rodata.fs_read.str1.1
                0x0000000080851821       0x24 fs/built-in.o
 .rodata.fs_write.str1.1
                0x0000000080851845       0x1f fs/built-in.o
 .rodata.g_dnl_bind.str1.1
                0x0000000080851864       0x15 drivers/usb/gadget/built-in.o
 .rodata.g_dnl_register.str1.1
                0x0000000080851879       0x18 drivers/usb/gadget/built-in.o
 .rodata.generate_mtdparts_save.constprop.7.str1.1
                0x0000000080851891        0xa cmd/built-in.o
 .rodata.genimg_get_arch_id.str1.1
                0x000000008085189b        0xb common/built-in.o
                                          0x4 (size before relaxing)
 .rodata.genimg_get_arch_name.str1.1
                0x000000008085189b       0x15 common/built-in.o
 .rodata.genimg_get_comp_id.str1.1
                0x00000000808518b0       0x15 common/built-in.o
                                          0xc (size before relaxing)
 .rodata.genimg_get_comp_name.str1.1
                0x00000000808518b0       0x14 common/built-in.o
 .rodata.genimg_get_os_id.str1.1
                0x00000000808518c4       0x14 common/built-in.o
                                          0x3 (size before relaxing)
 .rodata.genimg_get_os_name.str1.1
                0x00000000808518c4        0xb common/built-in.o
 .rodata.genimg_get_type_id.str1.1
                0x00000000808518cf        0xb common/built-in.o
                                          0x6 (size before relaxing)
 .rodata.genimg_get_type_name.str1.1
                0x00000000808518cf        0xe common/built-in.o
 .rodata.genimg_print_size.str1.1
                0x00000000808518dd        0xc common/built-in.o
                                          0xe (size before relaxing)
 .rodata.genimg_print_time.str1.1
                0x00000000808518e9       0x22 common/built-in.o
 .rodata.genphy_update_link.str1.1
                0x000000008085190b       0x54 drivers/net/phy/built-in.o
                                         0x56 (size before relaxing)
 .rodata.get_cluster.str1.1
                0x000000008085195f       0x25 fs/built-in.o
 .rodata.get_descriptor_len.str1.1
                0x0000000080851984       0x64 common/built-in.o
 .rodata.get_fatent.str1.1
                0x00000000808519e8       0x22 fs/built-in.o
 .rodata.get_local_var.str1.1
                0x0000000080851a0a        0x3 common/built-in.o
 .rodata.get_mtd_info.constprop.10.str1.1
                0x0000000080851a0d       0x16 cmd/built-in.o
                                         0x1b (size before relaxing)
 .rodata.get_phy_device_by_mask.str1.1
                0x0000000080851a23       0x29 drivers/net/phy/built-in.o
 .rodata.get_pxe_file.str1.1
                0x0000000080851a4c        0x9 cmd/built-in.o
 .rodata.get_pxelinux_path.str1.1
                0x0000000080851a4c       0x3e cmd/built-in.o
 .rodata.get_relfile.str1.1
                0x0000000080851a8a       0x56 cmd/built-in.o
                                         0x63 (size before relaxing)
 .rodata.gpio_direction_input.str1.1
                0x0000000080851ae0        0xa drivers/gpio/built-in.o
 .rodata.gpio_direction_output.str1.1
                0x0000000080851aea        0xb drivers/gpio/built-in.o
 .rodata.gpio_get_description.str1.1
                0x0000000080851af5        0xa cmd/built-in.o
                                         0x18 (size before relaxing)
 .rodata.gpio_get_status.str1.1
                0x0000000080851aff       0x17 drivers/gpio/built-in.o
                                         0x19 (size before relaxing)
 .rodata.gpio_request_by_name_nodev.str1.1
                0x0000000080851b16        0xc drivers/gpio/built-in.o
 .rodata.gpio_request_tail.str1.1
                0x0000000080851b22        0xe drivers/gpio/built-in.o
 .rodata.gpt_fill_header.str1.1
                0x0000000080851b30       0x24 disk/built-in.o
 .rodata.gpt_fill_pte.str1.1
                0x0000000080851b54       0x5b disk/built-in.o
 .rodata.gpt_verify_partitions.str1.1
                0x0000000080851baf       0xa3 disk/built-in.o
 .rodata.gzip_parse_header.str1.1
                0x0000000080851c52       0x3e lib/built-in.o
 .rodata.handle_include.str1.1
                0x0000000080851c90       0x33 cmd/built-in.o
 .rodata.handle_pxe_menu.str1.1
                0x0000000080851cc3       0x15 cmd/built-in.o
                                         0x18 (size before relaxing)
 .rodata.hang.str1.1
                0x0000000080851cd8       0x2a lib/built-in.o
 .rodata.hash_command.str1.1
                0x0000000080851d02       0x58 common/built-in.o
                                         0x5f (size before relaxing)
 .rodata.header_desc
                0x0000000080851d5a        0x5 drivers/usb/gadget/built-in.o
 .rodata.hex_asc
                0x0000000080851d5f       0x11 lib/built-in.o
 .rodata.hexchars.8916
                0x0000000080851d70       0x11 lib/built-in.o
 .rodata.hexport_r.str1.1
                0x0000000080851d81       0x30 lib/built-in.o
 .rodata.himport_r.str1.1
                0x0000000080851db1       0x99 lib/built-in.o
 .rodata.i2c_chip_ofdata_to_platdata.str1.1
                0x0000000080851e4a       0x16 drivers/i2c/built-in.o
                                         0x1a (size before relaxing)
 .rodata.i2c_compat_get_device.str1.1
                0x0000000080851e60       0x42 drivers/i2c/built-in.o
 .rodata.i2c_get_chip.str1.1
                0x0000000080851ea2       0x20 drivers/i2c/built-in.o
 .rodata.i2c_get_cur_bus.str1.1
                0x0000000080851ec2       0x15 cmd/built-in.o
 .rodata.i2c_post_probe.str1.1
                0x0000000080851ed7       0x10 drivers/i2c/built-in.o
 .rodata.image_info.str1.1
                0x0000000080851ed7      0x107 cmd/built-in.o
 .rodata.image_print_contents.str1.1
                0x0000000080851fde       0xe1 common/built-in.o
                                         0xe5 (size before relaxing)
 .rodata.image_setup_libfdt.str1.1
                0x00000000808520bf       0x8f common/built-in.o
 .rodata.indent_string.str1.1
                0x000000008085214e       0x15 lib/built-in.o
 .rodata.index_partitions.str1.1
                0x0000000080852163       0x15 cmd/built-in.o
 .rodata.inflate.str1.1
                0x0000000080852178      0x158 lib/built-in.o
 .rodata.inflate_fast.str1.1
                0x00000000808522d0       0x50 lib/built-in.o
 .rodata.init_baud_rate.str1.1
                0x0000000080852320        0x9 common/built-in.o
 .rodata.init_mmc_device.str1.1
                0x0000000080852329       0x1a cmd/built-in.o
 .rodata.init_peripheral_ep.str1.1
                0x0000000080852343        0x7 drivers/usb/musb-new/built-in.o
                                          0xf (size before relaxing)
 .rodata.initcall_run_list.str1.1
                0x000000008085234a       0x31 lib/built-in.o
 .rodata.initr_env.str1.1
                0x000000008085237b       0x20 common/built-in.o
                                         0x29 (size before relaxing)
 .rodata.initr_ethaddr.str1.1
                0x000000008085239b        0x8 common/built-in.o
 .rodata.initr_mmc.str1.1
                0x000000008085239b        0x8 common/built-in.o
 .rodata.initr_nand.str1.1
                0x00000000808523a3       0x11 common/built-in.o
 .rodata.initr_net.str1.1
                0x00000000808523b4        0x8 common/built-in.o
 .rodata.insert_var_value_sub.str1.1
                0x00000000808523bc        0x6 common/built-in.o
 .rodata.ip_to_string.str1.1
                0x00000000808523c2        0xc net/built-in.o
 .rodata.is_gpt_valid.str1.1
                0x00000000808523ce       0xea disk/built-in.o
 .rodata.label_boot.str1.1
                0x00000000808524b8      0x15e cmd/built-in.o
                                        0x19c (size before relaxing)
 .rodata.label_print.str1.1
                0x0000000080852616        0x8 cmd/built-in.o
 .rodata.list_sort.str1.1
                0x000000008085261e       0x34 lib/built-in.o
 .rodata.lists_bind_drivers.str1.1
                0x0000000080852652       0x1a drivers/built-in.o
 .rodata.lists_bind_fdt.str1.1
                0x000000008085266c       0x3f drivers/built-in.o
                                         0x4a (size before relaxing)
 .rodata.lmb_alloc_base.str1.1
                0x00000000808526ab       0x34 lib/built-in.o
 .rodata.load_serial.str1.1
                0x00000000808526df       0x65 cmd/built-in.o
 .rodata.load_serial_ymodem.str1.1
                0x0000000080852744       0x31 cmd/built-in.o
                                         0x35 (size before relaxing)
 .rodata.lzop_magic
                0x0000000080852775        0x9 lib/built-in.o
 .rodata.main_loop.str1.1
                0x000000008085277e       0x11 common/built-in.o
                                         0x15 (size before relaxing)
 .rodata.manufacturer
                0x000000008085278f       0x12 drivers/usb/gadget/built-in.o
 .rodata.match.str1.1
                0x00000000808527a1       0x18 lib/built-in.o
 .rodata.match_entry.str1.1
                0x00000000808527b9       0x1b lib/built-in.o
 .rodata.match_string.str1.1
                0x00000000808527b9       0x2c lib/built-in.o
 .rodata.mdio_list_devices.str1.1
                0x00000000808527e5       0x12 common/built-in.o
                                         0x19 (size before relaxing)
 .rodata.mdio_phydev_for_ethname.str1.1
                0x00000000808527f7       0x1c common/built-in.o
 .rodata.mdio_register.str1.1
                0x0000000080852813       0x2c common/built-in.o
 .rodata.memsize_format.str1.1
                0x000000008085283f       0x17 cmd/built-in.o
 .rodata.menu_get_choice.str1.1
                0x0000000080852856        0xf common/built-in.o
                                         0x2a (size before relaxing)
 .rodata.miiphy_duplex.str1.1
                0x0000000080852865       0x5a common/built-in.o
                                         0x68 (size before relaxing)
 .rodata.miiphy_get_dev_by_name.str1.1
                0x00000000808528bf       0x13 common/built-in.o
 .rodata.miiphy_is_1000base_x.str1.1
                0x00000000808528d2       0x39 common/built-in.o
 .rodata.miiphy_listdev.str1.1
                0x000000008085290b       0x2a common/built-in.o
 .rodata.miiphy_set_current_dev.str1.1
                0x0000000080852935       0x14 common/built-in.o
 .rodata.miiphy_speed.str1.1
                0x0000000080852949       0x5b common/built-in.o
 .rodata.mmc_berase.str1.1
                0x00000000808529a4       0x6f drivers/built-in.o
 .rodata.mmc_block_op.str1.1
                0x0000000080852a13       0x70 drivers/built-in.o
 .rodata.mmc_bread.str1.1
                0x0000000080852a83       0x47 drivers/built-in.o
 .rodata.mmc_bwrite.str1.1
                0x0000000080852aca       0x12 drivers/built-in.o
                                         0x59 (size before relaxing)
 .rodata.mmc_file_op.str1.1
                0x0000000080852adc       0x69 drivers/built-in.o
                                         0x8e (size before relaxing)
 .rodata.mmc_hwpart_config.str1.1
                0x0000000080852b45      0x19f drivers/built-in.o
 .rodata.mmc_init.str1.1
                0x0000000080852ce4       0x12 drivers/built-in.o
 .rodata.mmc_init_stream.str1.1
                0x0000000080852cf6       0x3d drivers/built-in.o
 .rodata.mmc_initialize.str1.1
                0x0000000080852d33       0x17 drivers/built-in.o
 .rodata.mmc_reset_controller_fsm.str1.1
                0x0000000080852d4a       0x2d drivers/built-in.o
 .rodata.mmc_send_status.str1.1
                0x0000000080852d77       0x32 drivers/built-in.o
 .rodata.mmc_start_init.str1.1
                0x0000000080852da9       0x3f drivers/built-in.o
 .rodata.mmc_startup.str1.1
                0x0000000080852de8       0x38 drivers/built-in.o
                                         0x3e (size before relaxing)
 .rodata.mod_i2c_mem.isra.1.str1.1
                0x0000000080852e20       0x21 cmd/built-in.o
                                         0x28 (size before relaxing)
 .rodata.mod_mem.isra.0.str1.1
                0x0000000080852e41        0xc cmd/built-in.o
                                         0x1d (size before relaxing)
 .rodata.mtd_arg_off.str1.1
                0x0000000080852e4d       0x34 drivers/mtd/built-in.o
 .rodata.mtd_arg_off_size.str1.1
                0x0000000080852e81       0x33 drivers/mtd/built-in.o
                                         0x71 (size before relaxing)
 .rodata.mtd_id_parse.str1.1
                0x0000000080852eb4       0x3c cmd/built-in.o
 .rodata.mtd_part_info.str1.1
                0x0000000080852ef0       0x3e cmd/built-in.o
                                         0x43 (size before relaxing)
 .rodata.mtdparts_init.str1.1
                0x0000000080852f2e      0x283 cmd/built-in.o
 .rodata.multipliers
                0x00000000808531b1       0x10 drivers/built-in.o
 .rodata.musb_create_int_queue.str1.1
                0x00000000808531c1       0x83 drivers/usb/musb-new/built-in.o
 .rodata.musb_driver_name
                0x0000000080853244        0xa drivers/usb/musb-new/built-in.o
                0x0000000080853244                musb_driver_name
 .rodata.musb_g_ep0_irq.str1.1
                0x000000008085324e       0x97 drivers/usb/musb-new/built-in.o
                                         0xb1 (size before relaxing)
 .rodata.musb_h_ep0_irq.str1.1
                0x00000000808532e5       0x34 drivers/usb/musb-new/built-in.o
 .rodata.musb_h_tx_flush_fifo.str1.1
                0x0000000080853319       0x2b drivers/usb/musb-new/built-in.o
 .rodata.musb_host_rx.str1.1
                0x0000000080853344       0x2f drivers/usb/musb-new/built-in.o
 .rodata.musb_init_controller.str1.1
                0x0000000080853373       0xbc drivers/usb/musb-new/built-in.o
                                         0xd9 (size before relaxing)
 .rodata.musb_lowlevel_init.str1.1
                0x000000008085342f       0x1d drivers/usb/musb-new/built-in.o
 .rodata.musb_start_urb.str1.1
                0x000000008085344c       0x48 drivers/usb/musb-new/built-in.o
 .rodata.musb_test_packet
                0x0000000080853494       0x35 drivers/usb/musb-new/built-in.o
 .rodata.names.8242
                0x00000000808534c9        0x6 lib/built-in.o
 .rodata.nand_block_op.str1.1
                0x00000000808534cf       0x44 drivers/built-in.o
                                         0x4f (size before relaxing)
 .rodata.nand_default_bbt.str1.1
                0x0000000080853513       0x38 drivers/mtd/nand/built-in.o
 .rodata.nand_ecc_precalc_table
                0x000000008085354b      0x100 drivers/mtd/nand/built-in.o
 .rodata.nand_erase_opts.str1.1
                0x000000008085364b      0x136 drivers/mtd/nand/built-in.o
                                        0x138 (size before relaxing)
 .rodata.nand_fill_oob.str1.1
                0x0000000080853781       0x19 drivers/mtd/nand/built-in.o
 .rodata.nand_load_image.str1.1
                0x0000000080853781       0x95 cmd/built-in.o
 .rodata.nand_print_and_set_info.str1.1
                0x0000000080853816       0xc8 cmd/built-in.o
                                         0xd4 (size before relaxing)
 .rodata.nand_read_skip_bad.str1.1
                0x00000000808538de       0xc2 drivers/mtd/nand/built-in.o
 .rodata.nand_register.str1.1
                0x00000000808539a0        0x7 drivers/mtd/nand/built-in.o
 .rodata.nand_scan_ident.str1.1
                0x00000000808539a7      0x139 drivers/mtd/nand/built-in.o
                                        0x13e (size before relaxing)
 .rodata.nand_wait.str1.1
                0x0000000080853ae0       0x35 drivers/mtd/nand/built-in.o
 .rodata.nand_write_skip_bad.str1.1
                0x0000000080853b15       0xc0 drivers/mtd/nand/built-in.o
 .rodata.net_auto_load.str1.1
                0x0000000080853bd5        0xd net/built-in.o
 .rodata.net_bcast_ethaddr
                0x0000000080853be2        0x6 net/built-in.o
                0x0000000080853be2                net_bcast_ethaddr
 .rodata.net_loop.str1.1
                0x0000000080853be8       0xe5 net/built-in.o
                                         0xf7 (size before relaxing)
 .rodata.net_process_received_packet.str1.1
                0x0000000080853ccd       0x1d net/built-in.o
 .rodata.net_start_again.str1.1
                0x0000000080853cea        0xe net/built-in.o
                                         0x15 (size before relaxing)
 .rodata.netboot_common.str1.1
                0x0000000080853cf8       0x1d cmd/built-in.o
                                         0x51 (size before relaxing)
 .rodata.nfs_handler.str1.1
                0x0000000080853d15       0x56 net/built-in.o
 .rodata.nfs_lookup_reply.str1.1
                0x0000000080853d6b       0x25 net/built-in.o
                                         0x27 (size before relaxing)
 .rodata.nfs_read_reply.isra.0.str1.1
                0x0000000080853d90        0x4 net/built-in.o
 .rodata.nfs_readlink_reply.str1.1
                0x0000000080853d94        0x2 net/built-in.o
 .rodata.nfs_start.str1.1
                0x0000000080853d94       0x1e net/built-in.o
                                         0x1f (size before relaxing)
 .rodata.nfs_timeout_handler.str1.1
                0x0000000080853db2       0x2a net/built-in.o
 .rodata.ns16550_serial_ofdata_to_platdata.str1.1
                0x0000000080853ddc       0x15 drivers/serial/built-in.o
                                         0x25 (size before relaxing)
 .rodata.ofnode_get_chosen_prop.str1.1
                0x0000000080853df1        0x8 drivers/built-in.o
 .rodata.omap_correct_data_bch.str1.1
                0x0000000080853df1       0x28 drivers/mtd/nand/built-in.o
 .rodata.omap_hsmmc_ofdata_to_platdata.str1.1
                0x0000000080853e19       0x60 drivers/built-in.o
                                         0x6a (size before relaxing)
 .rodata.omap_hsmmc_probe.str1.1
                0x0000000080853e79       0x46 drivers/built-in.o
 .rodata.omap_hsmmc_send_cmd.str1.1
                0x0000000080853ebf       0x9d drivers/built-in.o
 .rodata.omap_hsmmc_set_ios.str1.1
                0x0000000080853f5c       0x1f drivers/built-in.o
 .rodata.omap_i2c_probe.str1.1
                0x0000000080853f7b       0x45 drivers/i2c/built-in.o
 .rodata.omap_i2c_probe_chip.str1.1
                0x0000000080853fc0       0x3e drivers/i2c/built-in.o
 .rodata.omap_i2c_xfer.str1.1
                0x0000000080853ffe      0x191 drivers/i2c/built-in.o
 .rodata.on_baudrate.str1.1
                0x000000008085418f       0x42 drivers/serial/built-in.o
                                         0x74 (size before relaxing)
 .rodata.on_callbacks.str1.1
                0x00000000808541d1      0x105 env/built-in.o
 .rodata.on_console.str1.1
                0x00000000808542d6       0x10 common/built-in.o
                                         0x27 (size before relaxing)
 .rodata.on_flags.str1.1
                0x00000000808542d6       0x50 env/built-in.o
 .rodata.overlay_adjust_node_phandles.str1.1
                0x0000000080854326        0xe lib/built-in.o
                                         0x16 (size before relaxing)
 .rodata.overlay_get_target.str1.1
                0x0000000080854334       0x13 lib/built-in.o
 .rodata.parse_attr.part.1.str1.1
                0x0000000080854347       0x17 lib/built-in.o
                                         0x23 (size before relaxing)
 .rodata.parse_integer.str1.1
                0x000000008085435e       0x17 cmd/built-in.o
 .rodata.parse_pxefile_top.str1.1
                0x0000000080854375       0x89 cmd/built-in.o
 .rodata.parse_sliteral.str1.1
                0x00000000808543fe       0x1f cmd/built-in.o
 .rodata.parse_stream_outer.str1.1
                0x000000008085441d       0x4d common/built-in.o
 .rodata.parse_string_outer.str1.1
                0x000000008085446a        0x2 common/built-in.o
 .rodata.part_get_info_efi.str1.1
                0x000000008085446a        0xa disk/built-in.o
 .rodata.part_get_info_extended.str1.1
                0x000000008085446a        0xa disk/built-in.o
                                         0x11 (size before relaxing)
 .rodata.part_get_info_iso_verb.str1.1
                0x0000000080854474      0x1bf disk/built-in.o
                                        0x1c6 (size before relaxing)
 .rodata.part_get_info_whole_disk.str1.1
                0x0000000080854633        0xb disk/built-in.o
                                         0x12 (size before relaxing)
 .rodata.part_print.str1.1
                0x000000008085463e       0x87 disk/built-in.o
                                         0x90 (size before relaxing)
 .rodata.part_print_dos.str1.1
                0x00000000808546c5       0x2a disk/built-in.o
 .rodata.part_print_efi.str1.1
                0x00000000808546ef       0xf9 disk/built-in.o
 .rodata.part_print_iso.str1.1
                0x00000000808547e8       0x68 disk/built-in.o
 .rodata.part_set_generic_name.str1.1
                0x0000000080854850        0x7 disk/built-in.o
                                          0xa (size before relaxing)
 .rodata.part_sort_add.str1.1
                0x0000000080854857       0x29 cmd/built-in.o
 .rodata.part_validate.str1.1
                0x0000000080854880      0x110 cmd/built-in.o
 .rodata.phy_connect.str1.1
                0x0000000080854990       0x23 drivers/net/phy/built-in.o
 .rodata.phy_connect_dev.str1.1
                0x00000000808549b3       0x2f drivers/net/phy/built-in.o
 .rodata.phy_reset.str1.1
                0x00000000808549e2       0x15 drivers/net/phy/built-in.o
 .rodata.ping_start.str1.1
                0x00000000808549f7       0x11 net/built-in.o
 .rodata.print_buffer.str1.1
                0x0000000080854a08        0x6 lib/built-in.o
                                         0x17 (size before relaxing)
 .rodata.print_cpuinfo.str1.1
                0x0000000080854a0e       0x3b arch/arm/mach-omap2/built-in.o
                                         0x3d (size before relaxing)
 .rodata.print_data.str1.1
                0x0000000080854a49       0x27 cmd/built-in.o
                                         0x32 (size before relaxing)
 .rodata.print_freq.str1.1
                0x0000000080854a70       0x1b lib/built-in.o
 .rodata.print_jrnl_status.str1.1
                0x0000000080854a8b       0x34 fs/built-in.o
 .rodata.print_mmc_devices.str1.1
                0x0000000080854abf        0xd drivers/built-in.o
                                         0x1c (size before relaxing)
 .rodata.print_num.str1.1
                0x0000000080854acc       0x10 cmd/built-in.o
 .rodata.print_partition_extended.str1.1
                0x0000000080854adc       0x83 disk/built-in.o
                                         0x84 (size before relaxing)
 .rodata.print_size.str1.1
                0x0000000080854b5f       0x15 lib/built-in.o
 .rodata.product
                0x0000000080854b74       0x14 drivers/usb/gadget/built-in.o
 .rodata.put_ext4.str1.1
                0x0000000080854b88       0x42 fs/built-in.o
 .rodata.quantifier.str1.1
                0x0000000080854bca       0x17 lib/built-in.o
 .rodata.read_allocated_block.str1.1
                0x0000000080854be1      0x240 fs/built-in.o
 .rodata.read_bootsectandvi.str1.1
                0x0000000080854e21       0x1b fs/built-in.o
 .rodata.realloc.str1.1
                0x0000000080854e3c       0x25 common/built-in.o
 .rodata.regex_callback.str1.1
                0x0000000080854e61       0x20 env/built-in.o
 .rodata.request_and_set_gpio.str1.1
                0x0000000080854e81       0x3b board/ti/am335x/built-in.o
 .rodata.rndis_command_complete.str1.1
                0x0000000080854ebc       0x19 drivers/usb/gadget/built-in.o
 .rodata.rndis_control_ack_complete.str1.1
                0x0000000080854ed5       0x17 drivers/usb/gadget/built-in.o
 .rodata.rndis_control_intf
                0x0000000080854eec        0x9 drivers/usb/gadget/built-in.o
 .rodata.rndis_data_intf
                0x0000000080854ef5        0x9 drivers/usb/gadget/built-in.o
 .rodata.run_list_real.str1.1
                0x0000000080854efe       0x45 common/built-in.o
                                         0x4b (size before relaxing)
 .rodata.run_usb_dnl_gadget.str1.1
                0x0000000080854f43       0x4a common/built-in.o
 .rodata.rx_handler_command.str1.1
                0x0000000080854f8d       0x3e drivers/usb/gadget/built-in.o
                                         0x4e (size before relaxing)
 .rodata.rx_handler_dl_image.str1.1
                0x0000000080854fcb       0x33 drivers/usb/gadget/built-in.o
 .rodata.rx_submit.constprop.8.str1.1
                0x0000000080854ffe       0x11 drivers/usb/gadget/built-in.o
 .rodata.serial_init.str1.1
                0x000000008085500f       0x23 drivers/serial/built-in.o
                                         0x2b (size before relaxing)
 .rodata.set_board_info_env.str1.1
                0x0000000080855032       0x22 board/ti/common/built-in.o
 .rodata.set_default_env.str1.1
                0x0000000080855054       0x4a env/built-in.o
                                         0x71 (size before relaxing)
 .rodata.set_dev.str1.1
                0x000000008085509e        0xe cmd/built-in.o
                                         0x29 (size before relaxing)
 .rodata.set_ether_config.isra.5.str1.1
                0x00000000808550ac       0x15 drivers/usb/gadget/built-in.o
 .rodata.set_gpt_info.isra.1.constprop.2.str1.1
                0x00000000808550c1       0x8e cmd/built-in.o
                                         0xb0 (size before relaxing)
 .rodata.set_local_var.str1.1
                0x000000008085514f       0x59 common/built-in.o
 .rodata.set_protective_mbr.str1.1
                0x00000000808551a8       0x55 disk/built-in.o
 .rodata.set_working_fdt_addr.str1.1
                0x00000000808551fd        0x8 cmd/built-in.o
 .rodata.setup_clock_synthesizer.str1.1
                0x0000000080855205       0x4f arch/arm/mach-omap2/built-in.o
 .rodata.sha1_padding
                0x0000000080855254       0x40 lib/built-in.o
 .rodata.show_board_info.str1.1
                0x0000000080855294       0x11 common/built-in.o
 .rodata.show_bus.str1.1
                0x00000000808552a5       0x3f cmd/built-in.o
                                         0x41 (size before relaxing)
 .rodata.show_devices.str1.1
                0x00000000808552e4       0x2d drivers/built-in.o
                                         0x36 (size before relaxing)
 .rodata.show_dram_config.str1.1
                0x0000000080855311        0x1 common/built-in.o
 .rodata.show_regs.str1.1
                0x0000000080855311       0xff arch/arm/lib/built-in.o
                                        0x129 (size before relaxing)
 .rodata.simple_bus_post_bind.str1.1
                0x0000000080855410        0x7 drivers/built-in.o
 .rodata.smbios_guid
                0x0000000080855410       0x10 lib/built-in.o
 .rodata.smbios_write_type0.str1.1
                0x0000000080855420        0xb lib/built-in.o
                                         0x29 (size before relaxing)
 .rodata.smbios_write_type1.str1.1
                0x000000008085542b        0x8 lib/built-in.o
 .rodata.smbios_write_type2.str1.1
                0x000000008085542b        0x7 lib/built-in.o
 .rodata.smbios_write_type3.str1.1
                0x0000000080855432        0x7 lib/built-in.o
                                          0x3 (size before relaxing)
 .rodata.smbios_write_type4.str1.1
                0x0000000080855432        0x8 lib/built-in.o
 .rodata.source.str1.1
                0x0000000080855432       0xf7 cmd/built-in.o
                                        0x114 (size before relaxing)
 .rodata.spi_flash_cmd_erase_ops.str1.1
                0x0000000080855529       0x2f drivers/mtd/spi/built-in.o
 .rodata.spi_flash_cmd_write_ops.str1.1
                0x0000000080855558       0x30 drivers/mtd/spi/built-in.o
 .rodata.spi_flash_scan.str1.1
                0x0000000080855588      0x138 drivers/mtd/spi/built-in.o
                                        0x13b (size before relaxing)
 .rodata.spi_flash_write_common.str1.1
                0x00000000808556c0        0xe drivers/mtd/spi/built-in.o
 .rodata.spi_setup_slave.str1.1
                0x00000000808556ce       0xf9 drivers/spi/built-in.o
 .rodata.spi_xfer.str1.1
                0x00000000808557c7       0x63 drivers/spi/built-in.o
 .rodata.state_dfu_manifest.str1.1
                0x000000008085582a       0x24 drivers/usb/gadget/built-in.o
 .rodata.stdio_add_devices.str1.1
                0x000000008085584e        0x7 common/built-in.o
 .rodata.store_char_in_data.str1.1
                0x000000008085584e       0x1f lib/built-in.o
 .rodata.str1.1
                0x000000008085586d       0xeb arch/arm/lib/built-in.o
 .rodata.str1.1
                0x0000000080855958       0x22 arch/arm/mach-omap2/built-in.o
 .rodata.str1.1
                0x000000008085597a     0x39e2 cmd/built-in.o
                                       0x3d4d (size before relaxing)
 .rodata.str1.1
                0x000000008085935c      0x76a common/built-in.o
                                        0x7ea (size before relaxing)
 .rodata.str1.1
                0x0000000080859ac6       0x1f disk/built-in.o
                                         0x22 (size before relaxing)
 .rodata.str1.1
                0x0000000080859ae5      0x111 drivers/built-in.o
                                        0x133 (size before relaxing)
 .rodata.str1.1
                0x0000000080859bf6       0x41 drivers/gpio/built-in.o
                                         0x5b (size before relaxing)
 .rodata.str1.1
                0x0000000080859c37       0x2f drivers/i2c/built-in.o
                                         0x33 (size before relaxing)
 .rodata.str1.1
                0x0000000080859c66      0x634 drivers/mtd/nand/built-in.o
 .rodata.str1.1
                0x000000008085a29a       0x95 drivers/mtd/spi/built-in.o
 .rodata.str1.1
                0x000000008085a32f       0x20 drivers/net/built-in.o
 .rodata.str1.1
                0x000000008085a34f       0xcf drivers/net/phy/built-in.o
                                         0xe8 (size before relaxing)
 .rodata.str1.1
                0x000000008085a41e       0xb0 drivers/serial/built-in.o
                                         0xc0 (size before relaxing)
 .rodata.str1.1
                0x000000008085a4ce        0xf drivers/usb/common/built-in.o
                                         0x15 (size before relaxing)
 .rodata.str1.1
                0x000000008085a4dd       0x5a drivers/usb/gadget/built-in.o
                                         0x7c (size before relaxing)
 .rodata.str1.1
                0x000000008085a537       0x10 drivers/usb/host/built-in.o
                                         0x14 (size before relaxing)
 .rodata.str1.1
                0x000000008085a547       0x3d drivers/usb/musb-new/built-in.o
                                         0x4a (size before relaxing)
 .rodata.str1.1
                0x000000008085a584      0x105 env/built-in.o
                                         0x14 (size before relaxing)
 .rodata.str1.1
                0x000000008085a584        0xc fs/built-in.o
                                         0x15 (size before relaxing)
 .rodata.str1.1
                0x000000008085a590      0x4e8 lib/built-in.o
                                        0x4e9 (size before relaxing)
 .rodata.str1.1
                0x000000008085aa78        0x6 net/built-in.o
                                         0x3e (size before relaxing)
 .rodata.str1.1
                0x000000008085aa7e       0xdc test/dm/built-in.o
                                         0xe2 (size before relaxing)
 .rodata.string.str1.1
                0x000000008085ab5a        0x7 lib/built-in.o
 .rodata.syntax_err.str1.1
                0x000000008085ab61        0xe common/built-in.o
 .rodata.tab_seq
                0x000000008085ab6f        0x9 common/built-in.o
 .rodata.test_block_type.str1.1
                0x000000008085ab78        0xa disk/built-in.o
 .rodata.tftp_handler.str1.1
                0x000000008085ab82       0x72 net/built-in.o
                                         0x80 (size before relaxing)
 .rodata.tftp_send.str1.1
                0x000000008085abf4       0x36 net/built-in.o
                                         0x42 (size before relaxing)
 .rodata.tftp_start.str1.1
                0x000000008085ac2a      0x156 net/built-in.o
                                        0x181 (size before relaxing)
 .rodata.tftp_timeout_handler.str1.1
                0x000000008085ad80       0x2a net/built-in.o
                                         0x2d (size before relaxing)
 .rodata.ti_cm_get_macid.str1.1
                0x000000008085adaa       0x7b drivers/net/built-in.o
 .rodata.ti_musb_host_ofdata_to_platdata.str1.1
                0x000000008085ae25       0x55 drivers/usb/musb-new/built-in.o
                                         0x59 (size before relaxing)
 .rodata.ti_musb_wrapper_bind.str1.1
                0x000000008085ae7a       0x39 drivers/usb/musb-new/built-in.o
 .rodata.timer_pre_probe.str1.1
                0x000000008085aeb3       0x10 drivers/built-in.o
 .rodata.u_boot_hush_start.str1.1
                0x000000008085aec3       0x12 common/built-in.o
 .rodata.uclass_resolve_seq.str1.1
                0x000000008085aed5       0x27 drivers/built-in.o
 .rodata.union_desc
                0x000000008085aefc        0x5 drivers/usb/gadget/built-in.o
 .rodata.us_direction
                0x000000008085af01       0x20 common/built-in.o
 .rodata.usb_child_post_bind.str1.1
                0x000000008085af21       0x25 drivers/usb/host/built-in.o
 .rodata.usb_composite_register.str1.1
                0x000000008085af46        0xa drivers/usb/gadget/built-in.o
 .rodata.usb_display_class_sub.str1.1
                0x000000008085af50       0xb6 cmd/built-in.o
                                         0xbc (size before relaxing)
 .rodata.usb_display_config.str1.1
                0x000000008085b006      0x105 cmd/built-in.o
                                        0x118 (size before relaxing)
 .rodata.usb_display_desc.str1.1
                0x000000008085b10b       0xac cmd/built-in.o
                                         0xae (size before relaxing)
 .rodata.usb_display_string.str1.1
                0x000000008085b1b7        0xd cmd/built-in.o
 .rodata.usb_eth_probe.str1.1
                0x000000008085b1c4       0x21 drivers/usb/gadget/built-in.o
 .rodata.usb_eth_recv.str1.1
                0x000000008085b1e5       0x14 drivers/usb/gadget/built-in.o
 .rodata.usb_eth_send.str1.1
                0x000000008085b1f9       0x49 drivers/usb/gadget/built-in.o
 .rodata.usb_eth_start.str1.1
                0x000000008085b242       0xc0 drivers/usb/gadget/built-in.o
 .rodata.usb_ether_init.str1.1
                0x000000008085b302       0x33 drivers/usb/gadget/built-in.o
 .rodata.usb_find_usb2_hub_address_port.str1.1
                0x000000008085b335       0x36 common/built-in.o
 .rodata.usb_gadget_register_driver.str1.1
                0x000000008085b36b       0x5c drivers/usb/musb-new/built-in.o
 .rodata.usb_get_class_desc.str1.1
                0x000000008085b3c7       0x64 cmd/built-in.o
                                         0x65 (size before relaxing)
 .rodata.usb_get_configuration_len.str1.1
                0x000000008085b42b       0x58 common/built-in.o
 .rodata.usb_get_dr_mode.str1.1
                0x000000008085b483       0x1f drivers/usb/common/built-in.o
 .rodata.usb_hub_configure.str1.1
                0x000000008085b4a2       0x5f common/built-in.o
 .rodata.usb_hub_port_connect_change.str1.1
                0x000000008085b501       0x18 common/built-in.o
 .rodata.usb_init.str1.1
                0x000000008085b519       0x7e drivers/usb/host/built-in.o
 .rodata.usb_mass_storage_probe.str1.1
                0x000000008085b597       0x2d common/built-in.o
 .rodata.usb_scan_bus.isra.3.str1.1
                0x000000008085b5c4       0x4d drivers/usb/host/built-in.o
                                         0x5f (size before relaxing)
 .rodata.usb_scan_device.str1.1
                0x000000008085b611       0x2a drivers/usb/host/built-in.o
 .rodata.usb_select_config.str1.1
                0x000000008085b63b      0x220 common/built-in.o
 .rodata.usb_set_interface.str1.1
                0x000000008085b85b       0x1f common/built-in.o
 .rodata.usb_setup_descriptor.str1.1
                0x000000008085b87a       0x1d common/built-in.o
 .rodata.usb_setup_device.str1.1
                0x000000008085b897       0x68 common/built-in.o
 .rodata.usb_show_tree_graph.str1.1
                0x000000008085b8ff       0x2b cmd/built-in.o
                                         0x3a (size before relaxing)
 .rodata.usb_stor_CBI_get_status.isra.2.str1.1
                0x000000008085b92a       0x1f common/built-in.o
 .rodata.usb_stor_CB_transport.str1.1
                0x000000008085b949       0x6e common/built-in.o
 .rodata.usb_stor_get_info.str1.1
                0x000000008085b9b7       0x5d common/built-in.o
 .rodata.usb_stor_info.str1.1
                0x000000008085ba14       0x32 common/built-in.o
                                         0x40 (size before relaxing)
 .rodata.usb_stor_scan.str1.1
                0x000000008085ba46       0x48 common/built-in.o
 .rodata.usb_storage_probe.str1.1
                0x000000008085ba8e       0x5c common/built-in.o
 .rodata.uuid_bin_to_str.str1.1
                0x000000008085baea        0x5 lib/built-in.o
 .rodata.valid_elf_image.str1.1
                0x000000008085baea       0x52 cmd/built-in.o
 .rodata.validate_gpt_entries.str1.1
                0x000000008085bb3c       0x40 disk/built-in.o
 .rodata.validate_gpt_header.str1.1
                0x000000008085bb7c       0xe1 disk/built-in.o
 .rodata.var_complete.str1.1
                0x000000008085bc5d        0x1 common/built-in.o
 .rodata.verify_bbt_descr.str1.1
                0x000000008085bc5d       0x1c drivers/mtd/nand/built-in.o
                                         0x35 (size before relaxing)
 .rodata.version_string
                0x000000008085bc79       0x3d cmd/built-in.o
                0x000000008085bc79                version_string
 .rodata.wait_for_bb.str1.1
                0x000000008085bcb6       0x27 drivers/i2c/built-in.o
 .rodata.wait_for_event.str1.1
                0x000000008085bcdd       0x61 drivers/i2c/built-in.o
 .rodata.write_bbt.str1.1
                0x000000008085bd3e       0x28 drivers/mtd/nand/built-in.o
 .rodata.write_smbios_table.str1.1
                0x000000008085bd66        0xb lib/built-in.o
 .rodata.xmalloc.str1.1
                0x000000008085bd71       0x1e common/built-in.o
 .rodata.xyzModem_error.str1.1
                0x000000008085bd8f        0xe common/built-in.o
 .rodata.xyzModem_stream_close.str1.1
                0x000000008085bd9d       0x47 common/built-in.o
                                         0x4b (size before relaxing)
 .rodata.xyzModem_stream_open.str1.1
                0x000000008085bde4        0x2 common/built-in.o
 .rodata.zunzip.str1.1
                0x000000008085bde4       0x47 lib/built-in.o
                0x000000008085be2c                . = ALIGN (0x4)

.data           0x000000008085be2c     0x72b4
 *(.data*)
 .data.cdce913_data
                0x000000008085be2c       0x14 board/ti/am335x/built-in.o
 .data.cpu_revs
                0x000000008085be40        0xc arch/arm/mach-omap2/built-in.o
 .data.cpu_revs_am43xx
                0x000000008085be4c        0xc arch/arm/mach-omap2/built-in.o
 .data.ctrl     0x000000008085be58        0x4 arch/arm/mach-omap2/built-in.o
                0x000000008085be58                ctrl
 .data.gpmc_cfg
                0x000000008085be5c        0x4 arch/arm/mach-omap2/built-in.o
                0x000000008085be5c                gpmc_cfg
 .data.gpmc_cs0_flash
                0x000000008085be60        0x1 arch/arm/mach-omap2/built-in.o
                0x000000008085be60                gpmc_cs0_flash
 .data.bootm_help_text
                0x000000008085be61      0x4cf cmd/built-in.o
 .data.cmd_bootm_sub
                0x000000008085c330       0xfc cmd/built-in.o
 .data.source_help_text
                0x000000008085c42c       0xac cmd/built-in.o
 .data.bootefi_help_text
                0x000000008085c4d8      0x180 cmd/built-in.o
 .data.bootz_help_text
                0x000000008085c658      0x208 cmd/built-in.o
 .data.fdt_help_text
                0x000000008085c860      0x648 cmd/built-in.o
 .data.root.8193
                0x000000008085cea8        0x2 cmd/built-in.o
 .data.tabs.8280
                0x000000008085ceaa       0x21 cmd/built-in.o
 *fill*         0x000000008085cecb        0x1 
 .data.cmd_i2c_sub
                0x000000008085cecc      0x1a4 cmd/built-in.o
 .data.i2c_dp_last_length
                0x000000008085d070        0x4 cmd/built-in.o
 .data.i2c_help_text
                0x000000008085d074      0x3e9 cmd/built-in.o
 *fill*         0x000000008085d45d        0x3 
 .data.do_echo  0x000000008085d460        0x4 cmd/built-in.o
 .data.dp_last_length
                0x000000008085d464        0x4 cmd/built-in.o
 .data.cmd_mmc  0x000000008085d468      0x118 cmd/built-in.o
 .data.curr_device
                0x000000008085d580        0x4 cmd/built-in.o
 .data.mtdparts_help_text
                0x000000008085d584      0x4d3 cmd/built-in.o
 .data.nand_help_text
                0x000000008085da57      0x3ee cmd/built-in.o
 *fill*         0x000000008085de45        0x3 
 .data.cmd_pxe_sub
                0x000000008085de48       0x38 cmd/built-in.o
 .data.pxe_default_paths
                0x000000008085de80       0x10 cmd/built-in.o
                0x000000008085de80                pxe_default_paths
 .data.usb_stor_curr_dev
                0x000000008085de90        0x4 cmd/built-in.o
 .data.imgextract_help_text
                0x000000008085de94       0xb2 cmd/built-in.o
 *fill*         0x000000008085df46        0x2 
 .data.__compound_literal.0
                0x000000008085df48       0x20 cmd/built-in.o
 .data.__compound_literal.1
                0x000000008085df68       0x1c cmd/built-in.o
 .data.cmd_spl_export_sub
                0x000000008085df84       0x38 cmd/built-in.o
 .data.cmd_spl_sub
                0x000000008085dfbc       0x1c cmd/built-in.o
 .data.cmd_env_sub
                0x000000008085dfd8      0x134 cmd/built-in.o
 .data.env_help_text
                0x000000008085e10c      0x28c cmd/built-in.o
 .data.env_id   0x000000008085e398        0x4 cmd/built-in.o
 .data.hash_algo
                0x000000008085e39c       0x54 common/built-in.o
 .data.reserved_list
                0x000000008085e3f0       0x84 common/built-in.o
 .data.init_sequence_r
                0x000000008085e474       0x98 common/built-in.o
 .data.of_busses
                0x000000008085e50c       0x18 common/built-in.o
 .data.usb_scan_list
                0x000000008085e524        0x8 common/built-in.o
 .data.hist_cur
                0x000000008085e52c        0x4 common/built-in.o
 .data.av_      0x000000008085e530      0x408 common/built-in.o
 .data.sbrk_base
                0x000000008085e938        0x4 common/built-in.o
 .data.trim_threshold
                0x000000008085e93c        0x4 common/built-in.o
 .data.load_addr
                0x000000008085e940        0x4 common/built-in.o
                0x000000008085e940                load_addr
 .data.stdio_names
                0x000000008085e944        0xc common/built-in.o
                0x000000008085e944                stdio_names
 .data.system_guid
                0x000000008085e950       0x10 disk/built-in.o
 .data.cur_dev_num
                0x000000008085e960        0x4 drivers/built-in.o
 .data.dfu_list
                0x000000008085e964        0x8 drivers/built-in.o
 .data.month_days
                0x000000008085e96c       0x30 drivers/built-in.o
 .data.wdt_trgr_pattern
                0x000000008085e99c        0x4 drivers/built-in.o
 .data          0x000000008085e9a0        0x4 drivers/i2c/built-in.o
 .data.nand_curr_device
                0x000000008085e9a4        0x4 drivers/mtd/nand/built-in.o
                0x000000008085e9a4                nand_curr_device
 .data.bbt_main_descr
                0x000000008085e9a8       0x24 drivers/mtd/nand/built-in.o
 .data.bbt_main_no_oob_descr
                0x000000008085e9cc       0x24 drivers/mtd/nand/built-in.o
 .data.bbt_mirror_descr
                0x000000008085e9f0       0x24 drivers/mtd/nand/built-in.o
 .data.bbt_mirror_no_oob_descr
                0x000000008085ea14       0x24 drivers/mtd/nand/built-in.o
 .data.bbt_pattern
                0x000000008085ea38        0x4 drivers/mtd/nand/built-in.o
 .data.mirror_pattern
                0x000000008085ea3c        0x4 drivers/mtd/nand/built-in.o
 .data.scan_ff_pattern
                0x000000008085ea40        0x2 drivers/mtd/nand/built-in.o
 *fill*         0x000000008085ea42        0x2 
 .data.nand_flash_ids
                0x000000008085ea44      0xd70 drivers/mtd/nand/built-in.o
                0x000000008085ea44                nand_flash_ids
 .data.nand_oob_128
                0x000000008085f7b4      0xba8 drivers/mtd/nand/built-in.o
 .data.nand_oob_16
                0x000000008086035c      0xba8 drivers/mtd/nand/built-in.o
 .data.nand_oob_64
                0x0000000080860f04      0xba8 drivers/mtd/nand/built-in.o
 .data.nand_oob_8
                0x0000000080861aac      0xba8 drivers/mtd/nand/built-in.o
 .data.genphy_driver
                0x0000000080862654       0x34 drivers/net/phy/built-in.o
 .data.phy_drivers
                0x0000000080862688        0x8 drivers/net/phy/built-in.o
 .data.AR8021_driver
                0x0000000080862690       0x34 drivers/net/phy/built-in.o
 .data.AR8031_driver
                0x00000000808626c4       0x34 drivers/net/phy/built-in.o
 .data.AR8035_driver
                0x00000000808626f8       0x34 drivers/net/phy/built-in.o
 .data.lan8700_driver
                0x000000008086272c       0x34 drivers/net/phy/built-in.o
 .data.lan8710_driver
                0x0000000080862760       0x34 drivers/net/phy/built-in.o
 .data.lan8740_driver
                0x0000000080862794       0x34 drivers/net/phy/built-in.o
 .data.lan8742_driver
                0x00000000808627c8       0x34 drivers/net/phy/built-in.o
 .data.lan911x_driver
                0x00000000808627fc       0x34 drivers/net/phy/built-in.o
 .data.composite_driver
                0x0000000080862830       0x24 drivers/usb/gadget/built-in.o
 .data.device_desc
                0x0000000080862854       0x24 drivers/usb/gadget/built-in.o
 .data.g_dnl_composite_strings
                0x0000000080862878        0x8 drivers/usb/gadget/built-in.o
 .data.g_dnl_driver
                0x0000000080862880       0x20 drivers/usb/gadget/built-in.o
 .data.g_dnl_string_defs
                0x00000000808628a0       0x20 drivers/usb/gadget/built-in.o
 .data.g_dnl_string_tab
                0x00000000808628c0        0x8 drivers/usb/gadget/built-in.o
 .data.dfu_generic_strings
                0x00000000808628c8        0x8 drivers/usb/gadget/built-in.o
 .data.dfu_intf_runtime
                0x00000000808628d0        0x9 drivers/usb/gadget/built-in.o
 *fill*         0x00000000808628d9        0x3 
 .data.dfu_runtime_descs
                0x00000000808628dc        0x8 drivers/usb/gadget/built-in.o
 .data.dfu_strings
                0x00000000808628e4        0x8 drivers/usb/gadget/built-in.o
 .data.strings_dfu_generic
                0x00000000808628ec       0x10 drivers/usb/gadget/built-in.o
 .data.stringtab_dfu
                0x00000000808628fc        0x8 drivers/usb/gadget/built-in.o
 .data.stringtab_dfu_generic
                0x0000000080862904        0x8 drivers/usb/gadget/built-in.o
 .data.fastboot_string_defs
                0x000000008086290c       0x10 drivers/usb/gadget/built-in.o
 .data.fastboot_strings
                0x000000008086291c        0x8 drivers/usb/gadget/built-in.o
 .data.fb_fs_function
                0x0000000080862924        0xc drivers/usb/gadget/built-in.o
 .data.fb_hs_function
                0x0000000080862930       0x10 drivers/usb/gadget/built-in.o
 .data.fs_ep_in
                0x0000000080862940        0x9 drivers/usb/gadget/built-in.o
 .data.fs_ep_out
                0x0000000080862949        0x9 drivers/usb/gadget/built-in.o
 .data.hs_ep_in
                0x0000000080862952        0x9 drivers/usb/gadget/built-in.o
 .data.hs_ep_out
                0x000000008086295b        0x9 drivers/usb/gadget/built-in.o
 .data.interface_desc
                0x0000000080862964        0x9 drivers/usb/gadget/built-in.o
 *fill*         0x000000008086296d        0x3 
 .data.stringtab_fastboot
                0x0000000080862970        0x8 drivers/usb/gadget/built-in.o
 .data.dev_qualifier
                0x0000000080862978        0xa drivers/usb/gadget/built-in.o
 .data.eth_config
                0x0000000080862982        0x9 drivers/usb/gadget/built-in.o
 *fill*         0x000000008086298b        0x1 
 .data.fs_eth_function
                0x000000008086298c       0x2c drivers/usb/gadget/built-in.o
 .data.fs_rndis_function
                0x00000000808629b8       0x2c drivers/usb/gadget/built-in.o
 .data.fs_sink_desc
                0x00000000808629e4        0x9 drivers/usb/gadget/built-in.o
 .data.fs_source_desc
                0x00000000808629ed        0x9 drivers/usb/gadget/built-in.o
 .data.fs_status_desc
                0x00000000808629f6        0x9 drivers/usb/gadget/built-in.o
 *fill*         0x00000000808629ff        0x1 
 .data.hs_eth_function
                0x0000000080862a00       0x2c drivers/usb/gadget/built-in.o
 .data.hs_rndis_function
                0x0000000080862a2c       0x2c drivers/usb/gadget/built-in.o
 .data.hs_sink_desc
                0x0000000080862a58        0x9 drivers/usb/gadget/built-in.o
 .data.hs_source_desc
                0x0000000080862a61        0x9 drivers/usb/gadget/built-in.o
 .data.hs_status_desc
                0x0000000080862a6a        0x9 drivers/usb/gadget/built-in.o
 *fill*         0x0000000080862a73        0x1 
 .data.l_priv   0x0000000080862a74        0x4 drivers/usb/gadget/built-in.o
                0x0000000080862a74                l_priv
 .data.otg_descriptor
                0x0000000080862a78        0x3 drivers/usb/gadget/built-in.o
 .data.product_desc
                0x0000000080862a7b       0x28 drivers/usb/gadget/built-in.o
 .data.rndis_config
                0x0000000080862aa3        0x9 drivers/usb/gadget/built-in.o
 .data.strings  0x0000000080862aac       0x40 drivers/usb/gadget/built-in.o
 .data.stringtab
                0x0000000080862aec        0x8 drivers/usb/gadget/built-in.o
 .data.ep0_cfg  0x0000000080862af4        0x6 drivers/usb/musb-new/built-in.o
 .data.fifo_mode
                0x0000000080862afa        0x2 drivers/usb/musb-new/built-in.o
 .data.mode_0_cfg
                0x0000000080862afc       0x1e drivers/usb/musb-new/built-in.o
 .data.mode_1_cfg
                0x0000000080862b1a       0x1e drivers/usb/musb-new/built-in.o
 .data.mode_2_cfg
                0x0000000080862b38       0x24 drivers/usb/musb-new/built-in.o
 .data.mode_3_cfg
                0x0000000080862b5c       0x24 drivers/usb/musb-new/built-in.o
 .data.mode_4_cfg
                0x0000000080862b80       0xa2 drivers/usb/musb-new/built-in.o
 .data.mode_5_cfg
                0x0000000080862c22       0xa2 drivers/usb/musb-new/built-in.o
 .data.musb_usb_ops
                0x0000000080862cc4       0x28 drivers/usb/musb-new/built-in.o
                0x0000000080862cc4                musb_usb_ops
 .data.musb_dsps_ops
                0x0000000080862cec       0x24 drivers/usb/musb-new/built-in.o
                0x0000000080862cec                musb_dsps_ops
 .data.env_htab
                0x0000000080862d10       0x10 env/built-in.o
                0x0000000080862d10                env_htab
 .data.first_call
                0x0000000080862d20        0x8 env/built-in.o
 .data.fstypes  0x0000000080862d28       0xa8 fs/built-in.o
 .data.ext4fs_indir1_blkno
                0x0000000080862dd0        0x4 fs/built-in.o
                0x0000000080862dd0                ext4fs_indir1_blkno
 .data.ext4fs_indir2_blkno
                0x0000000080862dd4        0x4 fs/built-in.o
                0x0000000080862dd4                ext4fs_indir2_blkno
 .data.ext4fs_indir3_blkno
                0x0000000080862dd8        0x4 fs/built-in.o
                0x0000000080862dd8                ext4fs_indir3_blkno
 .data.prev_bg_bitmap_index.8830
                0x0000000080862ddc        0x4 fs/built-in.o
 .data.prev_inode_bitmap_index.8854
                0x0000000080862de0        0x4 fs/built-in.o
 .data.prev_bg_bmap_idx.8555
                0x0000000080862de4        0x4 fs/built-in.o
 .data.prev_bg_bmap_idx.8570
                0x0000000080862de8        0x4 fs/built-in.o
 .data.prev_bg_bmap_idx.8592
                0x0000000080862dec        0x4 fs/built-in.o
 .data.prev_bg_bmap_idx.8627
                0x0000000080862df0        0x4 fs/built-in.o
 .data.first_node
                0x0000000080862df4        0x4 fs/built-in.o
 .data.efi_is_direct_boot
                0x0000000080862df8        0x1 lib/built-in.o
 *fill*         0x0000000080862df9        0x3 
 .data.efi_obj_list
                0x0000000080862dfc        0x8 lib/built-in.o
                0x0000000080862dfc                efi_obj_list
 .data.efi_tpl  0x0000000080862e04        0x4 lib/built-in.o
 .data.efi_runtime_mmio
                0x0000000080862e08        0x8 lib/built-in.o
                0x0000000080862e08                efi_runtime_mmio
 .data.lastoff.10487
                0x0000000080862e10        0x4 lib/built-in.o
 .data.__compound_literal.2
                0x0000000080862e14       0x10 lib/built-in.o
 .data.__compound_literal.4
                0x0000000080862e24       0x10 lib/built-in.o
 .data.efi_con_in
                0x0000000080862e34        0xc lib/built-in.o
                0x0000000080862e34                efi_con_in
 .data.efi_con_mode
                0x0000000080862e40       0x18 lib/built-in.o
 .data.efi_console_control_obj
                0x0000000080862e58       0x8c lib/built-in.o
 .data.efi_console_input_obj
                0x0000000080862ee4       0x8c lib/built-in.o
 .data.efi_console_output_obj
                0x0000000080862f70       0x8c lib/built-in.o
 .data.efi_cout_modes
                0x0000000080862ffc       0x24 lib/built-in.o
 .data.efi_mem  0x0000000080863020        0x8 lib/built-in.o
                0x0000000080863020                efi_mem
 .data.sha256_padding
                0x0000000080863028       0x40 lib/built-in.o
 .data.y        0x0000000080863068        0x4 lib/built-in.o
 .data.first_call.8378
                0x000000008086306c        0x4 net/built-in.o
 .data.net_native_vlan
                0x0000000080863070        0x2 net/built-in.o
                0x0000000080863070                net_native_vlan
 .data.net_our_vlan
                0x0000000080863072        0x2 net/built-in.o
                0x0000000080863072                net_our_vlan
 .data.nfs_offset
                0x0000000080863074        0x4 net/built-in.o
 .data.supported_nfs_versions
                0x0000000080863078        0x1 net/built-in.o
 *fill*         0x0000000080863079        0x1 
 .data.tftp_block_size
                0x000000008086307a        0x2 net/built-in.o
 .data.tftp_block_size_option
                0x000000008086307c        0x2 net/built-in.o
 *fill*         0x000000008086307e        0x2 
 .data.tftp_timeout_count_max
                0x0000000080863080        0x4 net/built-in.o
                0x0000000080863080                tftp_timeout_count_max
 .data.timeout_count_max
                0x0000000080863084        0x4 net/built-in.o
 .data.timeout_ms
                0x0000000080863088        0x4 net/built-in.o
 .data.test_commands
                0x000000008086308c       0x54 test/dm/built-in.o

.got            0x00000000808630e0        0x0
 .got           0x00000000808630e0        0x0 arch/arm/cpu/armv7/start.o

.got.plt        0x00000000808630e0        0xc
 .got.plt       0x00000000808630e0        0xc arch/arm/cpu/armv7/start.o
                0x00000000808630e0                _GLOBAL_OFFSET_TABLE_

.igot.plt       0x00000000808630ec        0x0
 .igot.plt      0x00000000808630ec        0x0 arch/arm/cpu/armv7/start.o
                0x00000000808630ec                . = ALIGN (0x4)
                0x00000000808630ec                . = .
                0x00000000808630ec                . = ALIGN (0x4)

.u_boot_list    0x00000000808630ec     0x13d8
 *(SORT(.u_boot_list*))
 .u_boot_list_2_blk_driver_1
                0x00000000808630ec        0x0 drivers/built-in.o
 .u_boot_list_2_blk_driver_2_mmc
                0x00000000808630ec       0x18 drivers/built-in.o
                0x00000000808630ec                _u_boot_list_2_blk_driver_2_mmc
 .u_boot_list_2_blk_driver_2_usb
                0x0000000080863104       0x18 common/built-in.o
                0x0000000080863104                _u_boot_list_2_blk_driver_2_usb
 .u_boot_list_2_blk_driver_3
                0x000000008086311c        0x0 drivers/built-in.o
 .u_boot_list_2_cmd_1
                0x000000008086311c        0x0 cmd/built-in.o
 .u_boot_list_2_cmd_1
                0x000000008086311c        0x0 common/built-in.o
 .u_boot_list_2_cmd_2_askenv
                0x000000008086311c       0x1c cmd/built-in.o
                0x000000008086311c                _u_boot_list_2_cmd_2_askenv
 .u_boot_list_2_cmd_2_base
                0x0000000080863138       0x1c cmd/built-in.o
                0x0000000080863138                _u_boot_list_2_cmd_2_base
 .u_boot_list_2_cmd_2_bdinfo
                0x0000000080863154       0x1c cmd/built-in.o
                0x0000000080863154                _u_boot_list_2_cmd_2_bdinfo
 .u_boot_list_2_cmd_2_boot
                0x0000000080863170       0x1c cmd/built-in.o
                0x0000000080863170                _u_boot_list_2_cmd_2_boot
 .u_boot_list_2_cmd_2_bootd
                0x000000008086318c       0x1c cmd/built-in.o
                0x000000008086318c                _u_boot_list_2_cmd_2_bootd
 .u_boot_list_2_cmd_2_bootefi
                0x00000000808631a8       0x1c cmd/built-in.o
                0x00000000808631a8                _u_boot_list_2_cmd_2_bootefi
 .u_boot_list_2_cmd_2_bootelf
                0x00000000808631c4       0x1c cmd/built-in.o
                0x00000000808631c4                _u_boot_list_2_cmd_2_bootelf
 .u_boot_list_2_cmd_2_bootm
                0x00000000808631e0       0x1c cmd/built-in.o
                0x00000000808631e0                _u_boot_list_2_cmd_2_bootm
 .u_boot_list_2_cmd_2_bootp
                0x00000000808631fc       0x1c cmd/built-in.o
                0x00000000808631fc                _u_boot_list_2_cmd_2_bootp
 .u_boot_list_2_cmd_2_bootvx
                0x0000000080863218       0x1c cmd/built-in.o
                0x0000000080863218                _u_boot_list_2_cmd_2_bootvx
 .u_boot_list_2_cmd_2_bootz
                0x0000000080863234       0x1c cmd/built-in.o
                0x0000000080863234                _u_boot_list_2_cmd_2_bootz
 .u_boot_list_2_cmd_2_chpart
                0x0000000080863250       0x1c cmd/built-in.o
                0x0000000080863250                _u_boot_list_2_cmd_2_chpart
 .u_boot_list_2_cmd_2_cmp
                0x000000008086326c       0x1c cmd/built-in.o
                0x000000008086326c                _u_boot_list_2_cmd_2_cmp
 .u_boot_list_2_cmd_2_coninfo
                0x0000000080863288       0x1c cmd/built-in.o
                0x0000000080863288                _u_boot_list_2_cmd_2_coninfo
 .u_boot_list_2_cmd_2_cp
                0x00000000808632a4       0x1c cmd/built-in.o
                0x00000000808632a4                _u_boot_list_2_cmd_2_cp
 .u_boot_list_2_cmd_2_crc32
                0x00000000808632c0       0x1c cmd/built-in.o
                0x00000000808632c0                _u_boot_list_2_cmd_2_crc32
 .u_boot_list_2_cmd_2_dfu
                0x00000000808632dc       0x1c cmd/built-in.o
                0x00000000808632dc                _u_boot_list_2_cmd_2_dfu
 .u_boot_list_2_cmd_2_dhcp
                0x00000000808632f8       0x1c cmd/built-in.o
                0x00000000808632f8                _u_boot_list_2_cmd_2_dhcp
 .u_boot_list_2_cmd_2_dm
                0x0000000080863314       0x1c test/dm/built-in.o
                0x0000000080863314                _u_boot_list_2_cmd_2_dm
 .u_boot_list_2_cmd_2_echo
                0x0000000080863330       0x1c cmd/built-in.o
                0x0000000080863330                _u_boot_list_2_cmd_2_echo
 .u_boot_list_2_cmd_2_editenv
                0x000000008086334c       0x1c cmd/built-in.o
                0x000000008086334c                _u_boot_list_2_cmd_2_editenv
 .u_boot_list_2_cmd_2_eeprom
                0x0000000080863368       0x1c cmd/built-in.o
                0x0000000080863368                _u_boot_list_2_cmd_2_eeprom
 .u_boot_list_2_cmd_2_env
                0x0000000080863384       0x1c cmd/built-in.o
                0x0000000080863384                _u_boot_list_2_cmd_2_env
 .u_boot_list_2_cmd_2_exit
                0x00000000808633a0       0x1c cmd/built-in.o
                0x00000000808633a0                _u_boot_list_2_cmd_2_exit
 .u_boot_list_2_cmd_2_ext2load
                0x00000000808633bc       0x1c cmd/built-in.o
                0x00000000808633bc                _u_boot_list_2_cmd_2_ext2load
 .u_boot_list_2_cmd_2_ext2ls
                0x00000000808633d8       0x1c cmd/built-in.o
                0x00000000808633d8                _u_boot_list_2_cmd_2_ext2ls
 .u_boot_list_2_cmd_2_ext4load
                0x00000000808633f4       0x1c cmd/built-in.o
                0x00000000808633f4                _u_boot_list_2_cmd_2_ext4load
 .u_boot_list_2_cmd_2_ext4ls
                0x0000000080863410       0x1c cmd/built-in.o
                0x0000000080863410                _u_boot_list_2_cmd_2_ext4ls
 .u_boot_list_2_cmd_2_ext4size
                0x000000008086342c       0x1c cmd/built-in.o
                0x000000008086342c                _u_boot_list_2_cmd_2_ext4size
 .u_boot_list_2_cmd_2_ext4write
                0x0000000080863448       0x1c cmd/built-in.o
                0x0000000080863448                _u_boot_list_2_cmd_2_ext4write
 .u_boot_list_2_cmd_2_false
                0x0000000080863464       0x1c cmd/built-in.o
                0x0000000080863464                _u_boot_list_2_cmd_2_false
 .u_boot_list_2_cmd_2_fastboot
                0x0000000080863480       0x1c cmd/built-in.o
                0x0000000080863480                _u_boot_list_2_cmd_2_fastboot
 .u_boot_list_2_cmd_2_fatinfo
                0x000000008086349c       0x1c cmd/built-in.o
                0x000000008086349c                _u_boot_list_2_cmd_2_fatinfo
 .u_boot_list_2_cmd_2_fatload
                0x00000000808634b8       0x1c cmd/built-in.o
                0x00000000808634b8                _u_boot_list_2_cmd_2_fatload
 .u_boot_list_2_cmd_2_fatls
                0x00000000808634d4       0x1c cmd/built-in.o
                0x00000000808634d4                _u_boot_list_2_cmd_2_fatls
 .u_boot_list_2_cmd_2_fatsize
                0x00000000808634f0       0x1c cmd/built-in.o
                0x00000000808634f0                _u_boot_list_2_cmd_2_fatsize
 .u_boot_list_2_cmd_2_fatwrite
                0x000000008086350c       0x1c cmd/built-in.o
                0x000000008086350c                _u_boot_list_2_cmd_2_fatwrite
 .u_boot_list_2_cmd_2_fdt
                0x0000000080863528       0x1c cmd/built-in.o
                0x0000000080863528                _u_boot_list_2_cmd_2_fdt
 .u_boot_list_2_cmd_2_fstype
                0x0000000080863544       0x1c cmd/built-in.o
                0x0000000080863544                _u_boot_list_2_cmd_2_fstype
 .u_boot_list_2_cmd_2_go
                0x0000000080863560       0x1c cmd/built-in.o
                0x0000000080863560                _u_boot_list_2_cmd_2_go
 .u_boot_list_2_cmd_2_gpio
                0x000000008086357c       0x1c cmd/built-in.o
                0x000000008086357c                _u_boot_list_2_cmd_2_gpio
 .u_boot_list_2_cmd_2_gpt
                0x0000000080863598       0x1c cmd/built-in.o
                0x0000000080863598                _u_boot_list_2_cmd_2_gpt
 .u_boot_list_2_cmd_2_help
                0x00000000808635b4       0x1c cmd/built-in.o
                0x00000000808635b4                _u_boot_list_2_cmd_2_help
 .u_boot_list_2_cmd_2_i2c
                0x00000000808635d0       0x1c cmd/built-in.o
                0x00000000808635d0                _u_boot_list_2_cmd_2_i2c
 .u_boot_list_2_cmd_2_iminfo
                0x00000000808635ec       0x1c cmd/built-in.o
                0x00000000808635ec                _u_boot_list_2_cmd_2_iminfo
 .u_boot_list_2_cmd_2_imxtract
                0x0000000080863608       0x1c cmd/built-in.o
                0x0000000080863608                _u_boot_list_2_cmd_2_imxtract
 .u_boot_list_2_cmd_2_itest
                0x0000000080863624       0x1c cmd/built-in.o
                0x0000000080863624                _u_boot_list_2_cmd_2_itest
 .u_boot_list_2_cmd_2_load
                0x0000000080863640       0x1c cmd/built-in.o
                0x0000000080863640                _u_boot_list_2_cmd_2_load
 .u_boot_list_2_cmd_2_loadb
                0x000000008086365c       0x1c cmd/built-in.o
                0x000000008086365c                _u_boot_list_2_cmd_2_loadb
 .u_boot_list_2_cmd_2_loads
                0x0000000080863678       0x1c cmd/built-in.o
                0x0000000080863678                _u_boot_list_2_cmd_2_loads
 .u_boot_list_2_cmd_2_loadx
                0x0000000080863694       0x1c cmd/built-in.o
                0x0000000080863694                _u_boot_list_2_cmd_2_loadx
 .u_boot_list_2_cmd_2_loady
                0x00000000808636b0       0x1c cmd/built-in.o
                0x00000000808636b0                _u_boot_list_2_cmd_2_loady
 .u_boot_list_2_cmd_2_loop
                0x00000000808636cc       0x1c cmd/built-in.o
                0x00000000808636cc                _u_boot_list_2_cmd_2_loop
 .u_boot_list_2_cmd_2_ls
                0x00000000808636e8       0x1c cmd/built-in.o
                0x00000000808636e8                _u_boot_list_2_cmd_2_ls
 .u_boot_list_2_cmd_2_md
                0x0000000080863704       0x1c cmd/built-in.o
                0x0000000080863704                _u_boot_list_2_cmd_2_md
 .u_boot_list_2_cmd_2_mdio
                0x0000000080863720       0x1c cmd/built-in.o
                0x0000000080863720                _u_boot_list_2_cmd_2_mdio
 .u_boot_list_2_cmd_2_mii
                0x000000008086373c       0x1c cmd/built-in.o
                0x000000008086373c                _u_boot_list_2_cmd_2_mii
 .u_boot_list_2_cmd_2_mm
                0x0000000080863758       0x1c cmd/built-in.o
                0x0000000080863758                _u_boot_list_2_cmd_2_mm
 .u_boot_list_2_cmd_2_mmc
                0x0000000080863774       0x1c cmd/built-in.o
                0x0000000080863774                _u_boot_list_2_cmd_2_mmc
 .u_boot_list_2_cmd_2_mmcinfo
                0x0000000080863790       0x1c cmd/built-in.o
                0x0000000080863790                _u_boot_list_2_cmd_2_mmcinfo
 .u_boot_list_2_cmd_2_mtdparts
                0x00000000808637ac       0x1c cmd/built-in.o
                0x00000000808637ac                _u_boot_list_2_cmd_2_mtdparts
 .u_boot_list_2_cmd_2_mw
                0x00000000808637c8       0x1c cmd/built-in.o
                0x00000000808637c8                _u_boot_list_2_cmd_2_mw
 .u_boot_list_2_cmd_2_nand
                0x00000000808637e4       0x1c cmd/built-in.o
                0x00000000808637e4                _u_boot_list_2_cmd_2_nand
 .u_boot_list_2_cmd_2_nboot
                0x0000000080863800       0x1c cmd/built-in.o
                0x0000000080863800                _u_boot_list_2_cmd_2_nboot
 .u_boot_list_2_cmd_2_nfs
                0x000000008086381c       0x1c cmd/built-in.o
                0x000000008086381c                _u_boot_list_2_cmd_2_nfs
 .u_boot_list_2_cmd_2_nm
                0x0000000080863838       0x1c cmd/built-in.o
                0x0000000080863838                _u_boot_list_2_cmd_2_nm
 .u_boot_list_2_cmd_2_part
                0x0000000080863854       0x1c cmd/built-in.o
                0x0000000080863854                _u_boot_list_2_cmd_2_part
 .u_boot_list_2_cmd_2_ping
                0x0000000080863870       0x1c cmd/built-in.o
                0x0000000080863870                _u_boot_list_2_cmd_2_ping
 .u_boot_list_2_cmd_2_printenv
                0x000000008086388c       0x1c cmd/built-in.o
                0x000000008086388c                _u_boot_list_2_cmd_2_printenv
 .u_boot_list_2_cmd_2_pxe
                0x00000000808638a8       0x1c cmd/built-in.o
                0x00000000808638a8                _u_boot_list_2_cmd_2_pxe
 .u_boot_list_2_cmd_2_question_mark
                0x00000000808638c4       0x1c cmd/built-in.o
                0x00000000808638c4                _u_boot_list_2_cmd_2_question_mark
 .u_boot_list_2_cmd_2_reset
                0x00000000808638e0       0x1c cmd/built-in.o
                0x00000000808638e0                _u_boot_list_2_cmd_2_reset
 .u_boot_list_2_cmd_2_run
                0x00000000808638fc       0x1c cmd/built-in.o
                0x00000000808638fc                _u_boot_list_2_cmd_2_run
 .u_boot_list_2_cmd_2_save
                0x0000000080863918       0x1c cmd/built-in.o
                0x0000000080863918                _u_boot_list_2_cmd_2_save
 .u_boot_list_2_cmd_2_saveenv
                0x0000000080863934       0x1c cmd/built-in.o
                0x0000000080863934                _u_boot_list_2_cmd_2_saveenv
 .u_boot_list_2_cmd_2_setenv
                0x0000000080863950       0x1c cmd/built-in.o
                0x0000000080863950                _u_boot_list_2_cmd_2_setenv
 .u_boot_list_2_cmd_2_sf
                0x000000008086396c       0x1c cmd/built-in.o
                0x000000008086396c                _u_boot_list_2_cmd_2_sf
 .u_boot_list_2_cmd_2_showvar
                0x0000000080863988       0x1c common/built-in.o
                0x0000000080863988                _u_boot_list_2_cmd_2_showvar
 .u_boot_list_2_cmd_2_size
                0x00000000808639a4       0x1c cmd/built-in.o
                0x00000000808639a4                _u_boot_list_2_cmd_2_size
 .u_boot_list_2_cmd_2_sleep
                0x00000000808639c0       0x1c cmd/built-in.o
                0x00000000808639c0                _u_boot_list_2_cmd_2_sleep
 .u_boot_list_2_cmd_2_source
                0x00000000808639dc       0x1c cmd/built-in.o
                0x00000000808639dc                _u_boot_list_2_cmd_2_source
 .u_boot_list_2_cmd_2_spl
                0x00000000808639f8       0x1c cmd/built-in.o
                0x00000000808639f8                _u_boot_list_2_cmd_2_spl
 .u_boot_list_2_cmd_2_sspi
                0x0000000080863a14       0x1c cmd/built-in.o
                0x0000000080863a14                _u_boot_list_2_cmd_2_sspi
 .u_boot_list_2_cmd_2_sysboot
                0x0000000080863a30       0x1c cmd/built-in.o
                0x0000000080863a30                _u_boot_list_2_cmd_2_sysboot
 .u_boot_list_2_cmd_2_test
                0x0000000080863a4c       0x1c cmd/built-in.o
                0x0000000080863a4c                _u_boot_list_2_cmd_2_test
 .u_boot_list_2_cmd_2_tftpboot
                0x0000000080863a68       0x1c cmd/built-in.o
                0x0000000080863a68                _u_boot_list_2_cmd_2_tftpboot
 .u_boot_list_2_cmd_2_time
                0x0000000080863a84       0x1c cmd/built-in.o
                0x0000000080863a84                _u_boot_list_2_cmd_2_time
 .u_boot_list_2_cmd_2_true
                0x0000000080863aa0       0x1c cmd/built-in.o
                0x0000000080863aa0                _u_boot_list_2_cmd_2_true
 .u_boot_list_2_cmd_2_usb
                0x0000000080863abc       0x1c cmd/built-in.o
                0x0000000080863abc                _u_boot_list_2_cmd_2_usb
 .u_boot_list_2_cmd_2_usbboot
                0x0000000080863ad8       0x1c cmd/built-in.o
                0x0000000080863ad8                _u_boot_list_2_cmd_2_usbboot
 .u_boot_list_2_cmd_2_version
                0x0000000080863af4       0x1c cmd/built-in.o
                0x0000000080863af4                _u_boot_list_2_cmd_2_version
 .u_boot_list_2_cmd_3
                0x0000000080863b10        0x0 cmd/built-in.o
 .u_boot_list_2_cmd_3
                0x0000000080863b10        0x0 common/built-in.o
 .u_boot_list_2_driver_1
                0x0000000080863b10        0x0 drivers/built-in.o
 .u_boot_list_2_driver_2_eth_cpsw
                0x0000000080863b10       0x44 drivers/net/built-in.o
                0x0000000080863b10                _u_boot_list_2_driver_2_eth_cpsw
 .u_boot_list_2_driver_2_eth_usb
                0x0000000080863b54       0x44 drivers/usb/gadget/built-in.o
                0x0000000080863b54                _u_boot_list_2_driver_2_eth_usb
 .u_boot_list_2_driver_2_gpio_omap
                0x0000000080863b98       0x44 drivers/gpio/built-in.o
                0x0000000080863b98                _u_boot_list_2_driver_2_gpio_omap
 .u_boot_list_2_driver_2_i2c_generic_chip_drv
                0x0000000080863bdc       0x44 drivers/i2c/built-in.o
                0x0000000080863bdc                _u_boot_list_2_driver_2_i2c_generic_chip_drv
 .u_boot_list_2_driver_2_i2c_omap
                0x0000000080863c20       0x44 drivers/i2c/built-in.o
                0x0000000080863c20                _u_boot_list_2_driver_2_i2c_omap
 .u_boot_list_2_driver_2_mmc
                0x0000000080863c64       0x44 drivers/built-in.o
                0x0000000080863c64                _u_boot_list_2_driver_2_mmc
 .u_boot_list_2_driver_2_mod_exp_sw
                0x0000000080863ca8       0x44 drivers/built-in.o
                0x0000000080863ca8                _u_boot_list_2_driver_2_mod_exp_sw
 .u_boot_list_2_driver_2_ns16550_serial
                0x0000000080863cec       0x44 drivers/serial/built-in.o
                0x0000000080863cec                _u_boot_list_2_driver_2_ns16550_serial
 .u_boot_list_2_driver_2_omap_hsmmc
                0x0000000080863d30       0x44 drivers/built-in.o
                0x0000000080863d30                _u_boot_list_2_driver_2_omap_hsmmc
 .u_boot_list_2_driver_2_omap_timer
                0x0000000080863d74       0x44 drivers/built-in.o
                0x0000000080863d74                _u_boot_list_2_driver_2_omap_timer
 .u_boot_list_2_driver_2_root_driver
                0x0000000080863db8       0x44 drivers/built-in.o
                0x0000000080863db8                _u_boot_list_2_driver_2_root_driver
 .u_boot_list_2_driver_2_simple_bus_drv
                0x0000000080863dfc       0x44 drivers/built-in.o
                0x0000000080863dfc                _u_boot_list_2_driver_2_simple_bus_drv
 .u_boot_list_2_driver_2_ti_musb_host
                0x0000000080863e40       0x44 drivers/usb/musb-new/built-in.o
                0x0000000080863e40                _u_boot_list_2_driver_2_ti_musb_host
 .u_boot_list_2_driver_2_ti_musb_wrapper
                0x0000000080863e84       0x44 drivers/usb/musb-new/built-in.o
                0x0000000080863e84                _u_boot_list_2_driver_2_ti_musb_wrapper
 .u_boot_list_2_driver_2_usb_dev_generic_drv
                0x0000000080863ec8       0x44 drivers/usb/host/built-in.o
                0x0000000080863ec8                _u_boot_list_2_driver_2_usb_dev_generic_drv
 .u_boot_list_2_driver_2_usb_generic_hub
                0x0000000080863f0c       0x44 common/built-in.o
                0x0000000080863f0c                _u_boot_list_2_driver_2_usb_generic_hub
 .u_boot_list_2_driver_2_usb_mass_storage
                0x0000000080863f50       0x44 common/built-in.o
                0x0000000080863f50                _u_boot_list_2_driver_2_usb_mass_storage
 .u_boot_list_2_driver_3
                0x0000000080863f94        0x0 drivers/built-in.o
 .u_boot_list_2_driver_info_1
                0x0000000080863f94        0x0 drivers/built-in.o
 .u_boot_list_2_driver_info_2_mod_exp_sw
                0x0000000080863f94        0x8 drivers/built-in.o
                0x0000000080863f94                _u_boot_list_2_driver_info_2_mod_exp_sw
 .u_boot_list_2_driver_info_3
                0x0000000080863f9c        0x0 drivers/built-in.o
 .u_boot_list_2_env_clbk_1
                0x0000000080863f9c        0x0 env/built-in.o
 .u_boot_list_2_env_clbk_2_baudrate
                0x0000000080863f9c        0x8 drivers/serial/built-in.o
                0x0000000080863f9c                _u_boot_list_2_env_clbk_2_baudrate
 .u_boot_list_2_env_clbk_2_bootfile
                0x0000000080863fa4        0x8 net/built-in.o
                0x0000000080863fa4                _u_boot_list_2_env_clbk_2_bootfile
 .u_boot_list_2_env_clbk_2_callbacks
                0x0000000080863fac        0x8 env/built-in.o
                0x0000000080863fac                _u_boot_list_2_env_clbk_2_callbacks
 .u_boot_list_2_env_clbk_2_console
                0x0000000080863fb4        0x8 common/built-in.o
                0x0000000080863fb4                _u_boot_list_2_env_clbk_2_console
 .u_boot_list_2_env_clbk_2_ethaddr
                0x0000000080863fbc        0x8 net/built-in.o
                0x0000000080863fbc                _u_boot_list_2_env_clbk_2_ethaddr
 .u_boot_list_2_env_clbk_2_flags
                0x0000000080863fc4        0x8 env/built-in.o
                0x0000000080863fc4                _u_boot_list_2_env_clbk_2_flags
 .u_boot_list_2_env_clbk_2_gatewayip
                0x0000000080863fcc        0x8 net/built-in.o
                0x0000000080863fcc                _u_boot_list_2_env_clbk_2_gatewayip
 .u_boot_list_2_env_clbk_2_ipaddr
                0x0000000080863fd4        0x8 net/built-in.o
                0x0000000080863fd4                _u_boot_list_2_env_clbk_2_ipaddr
 .u_boot_list_2_env_clbk_2_loadaddr
                0x0000000080863fdc        0x8 common/built-in.o
                0x0000000080863fdc                _u_boot_list_2_env_clbk_2_loadaddr
 .u_boot_list_2_env_clbk_2_netmask
                0x0000000080863fe4        0x8 net/built-in.o
                0x0000000080863fe4                _u_boot_list_2_env_clbk_2_netmask
 .u_boot_list_2_env_clbk_2_nvlan
                0x0000000080863fec        0x8 net/built-in.o
                0x0000000080863fec                _u_boot_list_2_env_clbk_2_nvlan
 .u_boot_list_2_env_clbk_2_serialno
                0x0000000080863ff4        0x8 drivers/usb/gadget/built-in.o
                0x0000000080863ff4                _u_boot_list_2_env_clbk_2_serialno
 .u_boot_list_2_env_clbk_2_serverip
                0x0000000080863ffc        0x8 net/built-in.o
                0x0000000080863ffc                _u_boot_list_2_env_clbk_2_serverip
 .u_boot_list_2_env_clbk_2_vlan
                0x0000000080864004        0x8 net/built-in.o
                0x0000000080864004                _u_boot_list_2_env_clbk_2_vlan
 .u_boot_list_2_env_clbk_3
                0x000000008086400c        0x0 env/built-in.o
 .u_boot_list_2_env_driver_1
                0x000000008086400c        0x0 env/built-in.o
 .u_boot_list_2_env_driver_2_fat
                0x000000008086400c       0x18 env/built-in.o
                0x000000008086400c                _u_boot_list_2_env_driver_2_fat
 .u_boot_list_2_env_driver_3
                0x0000000080864024        0x0 env/built-in.o
 .u_boot_list_2_fit_loadable_1
                0x0000000080864024        0x0 common/built-in.o
 .u_boot_list_2_fit_loadable_3
                0x0000000080864024        0x0 common/built-in.o
 .u_boot_list_2_g_dnl_bind_callbacks_1
                0x0000000080864024        0x0 drivers/usb/gadget/built-in.o
 .u_boot_list_2_g_dnl_bind_callbacks_2___usb_function_name_usb_dnl_dfu
                0x0000000080864024        0x8 drivers/usb/gadget/built-in.o
                0x0000000080864024                _u_boot_list_2_g_dnl_bind_callbacks_2___usb_function_name_usb_dnl_dfu
 .u_boot_list_2_g_dnl_bind_callbacks_2___usb_function_name_usb_dnl_fastboot
                0x000000008086402c        0x8 drivers/usb/gadget/built-in.o
                0x000000008086402c                _u_boot_list_2_g_dnl_bind_callbacks_2___usb_function_name_usb_dnl_fastboot
 .u_boot_list_2_g_dnl_bind_callbacks_3
                0x0000000080864034        0x0 drivers/usb/gadget/built-in.o
 .u_boot_list_2_part_driver_1
                0x0000000080864034        0x0 disk/built-in.o
 .u_boot_list_2_part_driver_2_a_efi
                0x0000000080864034       0x18 disk/built-in.o
                0x0000000080864034                _u_boot_list_2_part_driver_2_a_efi
 .u_boot_list_2_part_driver_2_dos
                0x000000008086404c       0x18 disk/built-in.o
                0x000000008086404c                _u_boot_list_2_part_driver_2_dos
 .u_boot_list_2_part_driver_2_iso
                0x0000000080864064       0x18 disk/built-in.o
                0x0000000080864064                _u_boot_list_2_part_driver_2_iso
 .u_boot_list_2_part_driver_3
                0x000000008086407c        0x0 disk/built-in.o
 .u_boot_list_2_uclass_1
                0x000000008086407c        0x0 drivers/built-in.o
 .u_boot_list_2_uclass_2_eth
                0x000000008086407c       0x48 net/built-in.o
                0x000000008086407c                _u_boot_list_2_uclass_2_eth
 .u_boot_list_2_uclass_2_gpio
                0x00000000808640c4       0x48 drivers/gpio/built-in.o
                0x00000000808640c4                _u_boot_list_2_uclass_2_gpio
 .u_boot_list_2_uclass_2_i2c
                0x000000008086410c       0x48 drivers/i2c/built-in.o
                0x000000008086410c                _u_boot_list_2_uclass_2_i2c
 .u_boot_list_2_uclass_2_i2c_generic
                0x0000000080864154       0x48 drivers/i2c/built-in.o
                0x0000000080864154                _u_boot_list_2_uclass_2_i2c_generic
 .u_boot_list_2_uclass_2_misc
                0x000000008086419c       0x48 drivers/built-in.o
                0x000000008086419c                _u_boot_list_2_uclass_2_misc
 .u_boot_list_2_uclass_2_mmc
                0x00000000808641e4       0x48 drivers/built-in.o
                0x00000000808641e4                _u_boot_list_2_uclass_2_mmc
 .u_boot_list_2_uclass_2_mod_exp
                0x000000008086422c       0x48 drivers/built-in.o
                0x000000008086422c                _u_boot_list_2_uclass_2_mod_exp
 .u_boot_list_2_uclass_2_root
                0x0000000080864274       0x48 drivers/built-in.o
                0x0000000080864274                _u_boot_list_2_uclass_2_root
 .u_boot_list_2_uclass_2_serial
                0x00000000808642bc       0x48 drivers/serial/built-in.o
                0x00000000808642bc                _u_boot_list_2_uclass_2_serial
 .u_boot_list_2_uclass_2_simple_bus
                0x0000000080864304       0x48 drivers/built-in.o
                0x0000000080864304                _u_boot_list_2_uclass_2_simple_bus
 .u_boot_list_2_uclass_2_timer
                0x000000008086434c       0x48 drivers/built-in.o
                0x000000008086434c                _u_boot_list_2_uclass_2_timer
 .u_boot_list_2_uclass_2_usb
                0x0000000080864394       0x48 drivers/usb/host/built-in.o
                0x0000000080864394                _u_boot_list_2_uclass_2_usb
 .u_boot_list_2_uclass_2_usb_dev_generic
                0x00000000808643dc       0x48 drivers/usb/host/built-in.o
                0x00000000808643dc                _u_boot_list_2_uclass_2_usb_dev_generic
 .u_boot_list_2_uclass_2_usb_hub
                0x0000000080864424       0x48 common/built-in.o
                0x0000000080864424                _u_boot_list_2_uclass_2_usb_hub
 .u_boot_list_2_uclass_2_usb_mass_storage
                0x000000008086446c       0x48 common/built-in.o
                0x000000008086446c                _u_boot_list_2_uclass_2_usb_mass_storage
 .u_boot_list_2_uclass_3
                0x00000000808644b4        0x0 drivers/built-in.o
 .u_boot_list_2_usb_driver_entry_1
                0x00000000808644b4        0x0 drivers/usb/host/built-in.o
 .u_boot_list_2_usb_driver_entry_2_usb_generic_hub
                0x00000000808644b4        0x8 common/built-in.o
                0x00000000808644b4                _u_boot_list_2_usb_driver_entry_2_usb_generic_hub
 .u_boot_list_2_usb_driver_entry_2_usb_mass_storage
                0x00000000808644bc        0x8 common/built-in.o
                0x00000000808644bc                _u_boot_list_2_usb_driver_entry_2_usb_mass_storage
 .u_boot_list_2_usb_driver_entry_3
                0x00000000808644c4        0x0 drivers/usb/host/built-in.o
                0x00000000808644c4                . = ALIGN (0x4)

.__efi_runtime_start
                0x00000000808644c4        0x0
 *(.__efi_runtime_start)
 .__efi_runtime_start
                0x00000000808644c4        0x0 arch/arm/lib/built-in.o

.efi_runtime    0x00000000808644c8      0x100
 *(efi_runtime_text)
 efi_runtime_text
                0x00000000808644c8       0x24 lib/built-in.o
                0x00000000808644c8                efi_reset_system
                0x00000000808644ca                efi_get_time
 *(efi_runtime_data)
 *fill*         0x00000000808644ec        0x4 
 efi_runtime_data
                0x00000000808644f0       0xd8 lib/built-in.o
                0x00000000808644f0                systab
                0x0000000080864578                efi_runtime_services

.__efi_runtime_stop
                0x00000000808645c8        0x0
 *(.__efi_runtime_stop)
 .__efi_runtime_stop
                0x00000000808645c8        0x0 arch/arm/lib/built-in.o

.efi_runtime_rel_start
                0x00000000808645c8        0x0
 *(.__efi_runtime_rel_start)
 .__efi_runtime_rel_start
                0x00000000808645c8        0x0 arch/arm/lib/built-in.o

.efi_runtime_rel
                0x00000000808645c8       0x90
 *(.relefi_runtime_text)
 *(.relefi_runtime_data)
 .relefi_runtime_data
                0x00000000808645c8       0x90 arch/arm/cpu/armv7/start.o

.efi_runtime_rel_stop
                0x0000000080864658        0x0
 *(.__efi_runtime_rel_stop)
 .__efi_runtime_rel_stop
                0x0000000080864658        0x0 arch/arm/lib/built-in.o
                0x0000000080864658                . = ALIGN (0x4)

.image_copy_end
                0x0000000080864658        0x0
 *(.__image_copy_end)
 .__image_copy_end
                0x0000000080864658        0x0 arch/arm/lib/built-in.o

.rel_dyn_start  0x0000000080864658        0x0
 *(.__rel_dyn_start)
 .__rel_dyn_start
                0x0000000080864658        0x0 arch/arm/lib/built-in.o

.rel.dyn        0x0000000080864658     0xc7a0
 *(.rel*)
 .rel.got       0x0000000080864658        0x0 arch/arm/cpu/armv7/start.o
 .rel.plt       0x0000000080864658        0x0 arch/arm/cpu/armv7/start.o
 .rel.iplt      0x0000000080864658        0x0 arch/arm/cpu/armv7/start.o
 .rel.text      0x0000000080864658       0x20 arch/arm/cpu/armv7/start.o
 .rel.text.request_and_set_gpio
                0x0000000080864678       0x18 arch/arm/cpu/armv7/start.o
 .rel.text.do_board_detect
                0x0000000080864690        0x0 arch/arm/cpu/armv7/start.o
 .rel.text.board_init
                0x0000000080864690       0x60 arch/arm/cpu/armv7/start.o
 .rel.text.board_late_init
                0x00000000808646f0       0x68 arch/arm/cpu/armv7/start.o
 .rel.text.board_fit_config_name_match
                0x0000000080864758        0x0 arch/arm/cpu/armv7/start.o
 .rel.vectors   0x0000000080864758       0x38 arch/arm/cpu/armv7/start.o
 .rel.text.relocate_vectors
                0x0000000080864790       0x20 arch/arm/cpu/armv7/start.o
 .rel.text.boot_jump_linux
                0x00000000808647b0       0x28 arch/arm/cpu/armv7/start.o
 .rel.text.boot_prep_linux
                0x00000000808647d8       0x18 arch/arm/cpu/armv7/start.o
 .rel.text.boot_prep_vxworks
                0x00000000808647f0       0x10 arch/arm/cpu/armv7/start.o
 .rel.text.interrupt_init
                0x0000000080864800        0x8 arch/arm/cpu/armv7/start.o
 .rel.text.bad_mode
                0x0000000080864808        0x8 arch/arm/cpu/armv7/start.o
 .rel.text.show_regs
                0x0000000080864810       0x60 arch/arm/cpu/armv7/start.o
 .rel.text.do_undefined_instruction
                0x0000000080864870        0x8 arch/arm/cpu/armv7/start.o
 .rel.text.do_software_interrupt
                0x0000000080864878        0x8 arch/arm/cpu/armv7/start.o
 .rel.text.do_prefetch_abort
                0x0000000080864880        0x8 arch/arm/cpu/armv7/start.o
 .rel.text.do_data_abort
                0x0000000080864888        0x8 arch/arm/cpu/armv7/start.o
 .rel.text.do_not_used
                0x0000000080864890        0x8 arch/arm/cpu/armv7/start.o
 .rel.text.do_fiq
                0x0000000080864898        0x8 arch/arm/cpu/armv7/start.o
 .rel.text.do_irq
                0x00000000808648a0        0x8 arch/arm/cpu/armv7/start.o
 .rel.text.do_reset
                0x00000000808648a8        0x8 arch/arm/cpu/armv7/start.o
 .rel.text.enable_caches
                0x00000000808648b0        0x0 arch/arm/cpu/armv7/start.o
 .rel.text.check_cache_range
                0x00000000808648b0        0x8 arch/arm/cpu/armv7/start.o
 .rel.rodata    0x00000000808648b8      0x158 arch/arm/cpu/armv7/start.o
 .rel.text.get_dpll_mpu_params
                0x0000000080864a10        0x0 arch/arm/cpu/armv7/start.o
 .rel.text.get_dpll_core_params
                0x0000000080864a10        0x0 arch/arm/cpu/armv7/start.o
 .rel.text.get_dpll_per_params
                0x0000000080864a10        0x0 arch/arm/cpu/armv7/start.o
 .rel.text.enable_basic_clocks
                0x0000000080864a10        0x0 arch/arm/cpu/armv7/start.o
 .rel.text.set_mpu_spreadspectrum
                0x0000000080864a10        0x0 arch/arm/cpu/armv7/start.o
 .rel.text.do_setup_dpll
                0x0000000080864a10        0x0 arch/arm/cpu/armv7/start.o
 .rel.text.do_enable_clocks
                0x0000000080864a10        0x0 arch/arm/cpu/armv7/start.o
 .rel.text.do_disable_clocks
                0x0000000080864a10        0x0 arch/arm/cpu/armv7/start.o
 .rel.text.prcm_init
                0x0000000080864a10        0x0 arch/arm/cpu/armv7/start.o
 .rel.text.get_sysboot_value
                0x0000000080864a10        0x0 arch/arm/cpu/armv7/start.o
 .rel.text.print_cpuinfo
                0x0000000080864a10       0x48 arch/arm/cpu/armv7/start.o
 .rel.text.am335x_get_mpu_vdd
                0x0000000080864a58        0x0 arch/arm/cpu/armv7/start.o
 .rel.text.configure_mr
                0x0000000080864a58        0x0 arch/arm/cpu/armv7/start.o
 .rel.text.config_sdram_emif4d5
                0x0000000080864a58        0x0 arch/arm/cpu/armv7/start.o
 .rel.text.config_sdram
                0x0000000080864a58        0x0 arch/arm/cpu/armv7/start.o
 .rel.text.set_sdram_timings
                0x0000000080864a58        0x0 arch/arm/cpu/armv7/start.o
 .rel.text.config_ddr_phy
                0x0000000080864a58        0x0 arch/arm/cpu/armv7/start.o
 .rel.text.config_cmd_ctrl
                0x0000000080864a58        0x0 arch/arm/cpu/armv7/start.o
 .rel.text.config_ddr_data
                0x0000000080864a58        0x0 arch/arm/cpu/armv7/start.o
 .rel.text.arch_misc_init
                0x0000000080864a58        0x8 arch/arm/cpu/armv7/start.o
 .rel.text.hw_data_init
                0x0000000080864a60       0x10 arch/arm/cpu/armv7/start.o
 .rel.text.clk_synthesizer_reg_write
                0x0000000080864a70        0x8 arch/arm/cpu/armv7/start.o
 .rel.text.setup_clock_synthesizer
                0x0000000080864a78       0x10 arch/arm/cpu/armv7/start.o
 .rel.text.omap_die_id_serial
                0x0000000080864a88        0x0 arch/arm/cpu/armv7/start.o
 .rel.text.omap_die_id_get_board_serial
                0x0000000080864a88        0x0 arch/arm/cpu/armv7/start.o
 .rel.text.omap_die_id_usbethaddr
                0x0000000080864a88        0x0 arch/arm/cpu/armv7/start.o
 .rel.text.omap_die_id_display
                0x0000000080864a88        0x0 arch/arm/cpu/armv7/start.o
 .rel.text.get_device_type
                0x0000000080864a88        0x8 arch/arm/cpu/armv7/start.o
 .rel.text.fb_set_reboot_flag
                0x0000000080864a90       0x18 arch/arm/cpu/armv7/start.o
 .rel.text.set_gpmc_cs0
                0x0000000080864aa8       0x10 arch/arm/cpu/armv7/start.o
 .rel.text.gpmc_init
                0x0000000080864ab8       0x10 arch/arm/cpu/armv7/start.o
 .rel.rodata.dev_types
                0x0000000080864ac8       0x20 arch/arm/cpu/armv7/start.o
 .rel.data.cpu_revs
                0x0000000080864ae8       0x18 arch/arm/cpu/armv7/start.o
 .rel.data.cpu_revs_am43xx
                0x0000000080864b00       0x18 arch/arm/cpu/armv7/start.o
 .rel.text.ti_i2c_eeprom_am_set
                0x0000000080864b18        0x0 arch/arm/cpu/armv7/start.o
 .rel.text.ti_i2c_eeprom_am_get
                0x0000000080864b18        0x0 arch/arm/cpu/armv7/start.o
 .rel.text.ti_i2c_eeprom_dra7_get
                0x0000000080864b18        0x0 arch/arm/cpu/armv7/start.o
 .rel.text.set_board_info_env
                0x0000000080864b18       0x18 arch/arm/cpu/armv7/start.o
 .rel.text.board_ti_set_ethaddr
                0x0000000080864b30        0x0 arch/arm/cpu/armv7/start.o
 .rel.text.do_go
                0x0000000080864b30       0x10 arch/arm/cpu/armv7/start.o
 .rel.text.do_bootm
                0x0000000080864b40       0x18 arch/arm/cpu/armv7/start.o
 .rel.text.do_bootd
                0x0000000080864b58        0x8 arch/arm/cpu/armv7/start.o
 .rel.text.image_info
                0x0000000080864b60       0x60 arch/arm/cpu/armv7/start.o
 .rel.text.do_iminfo
                0x0000000080864bc0        0x8 arch/arm/cpu/armv7/start.o
 .rel.text.bootm_maybe_autostart
                0x0000000080864bc8       0x20 arch/arm/cpu/armv7/start.o
 .rel.text.do_help
                0x0000000080864be8       0x10 arch/arm/cpu/armv7/start.o
 .rel.text.do_version
                0x0000000080864bf8       0x10 arch/arm/cpu/armv7/start.o
 .rel.text.blk_common_cmd
                0x0000000080864c08       0x70 arch/arm/cpu/armv7/start.o
 .rel.text.source
                0x0000000080864c78       0x68 arch/arm/cpu/armv7/start.o
 .rel.text.do_source
                0x0000000080864ce0       0x10 arch/arm/cpu/armv7/start.o
 .rel.text.print_num
                0x0000000080864cf0        0x8 arch/arm/cpu/armv7/start.o
 .rel.text.do_bdinfo
                0x0000000080864cf8       0x68 arch/arm/cpu/armv7/start.o
 .rel.text.efi_init_obj_list
                0x0000000080864d60        0x8 arch/arm/cpu/armv7/start.o
 .rel.text.do_bootefi_exec
                0x0000000080864d68       0x48 arch/arm/cpu/armv7/start.o
 .rel.text.do_bootefi
                0x0000000080864db0       0x38 arch/arm/cpu/armv7/start.o
 .rel.text.efi_set_bootdev
                0x0000000080864de8       0x28 arch/arm/cpu/armv7/start.o
 .rel.text.bootz_setup
                0x0000000080864e10        0x0 arch/arm/cpu/armv7/start.o
 .rel.text.do_bootz
                0x0000000080864e10       0x18 arch/arm/cpu/armv7/start.o
 .rel.text.do_coninfo
                0x0000000080864e28       0x28 arch/arm/cpu/armv7/start.o
 .rel.text.do_echo
                0x0000000080864e50        0x8 arch/arm/cpu/armv7/start.o
 .rel.text.do_eeprom
                0x0000000080864e58       0x20 arch/arm/cpu/armv7/start.o
 .rel.text.valid_elf_image
                0x0000000080864e78       0x10 arch/arm/cpu/armv7/start.o
 .rel.text.do_bootelf
                0x0000000080864e88       0x28 arch/arm/cpu/armv7/start.o
 .rel.text.do_bootvx
                0x0000000080864eb0       0xe0 arch/arm/cpu/armv7/start.o
 .rel.text.do_fat_fsinfo
                0x0000000080864f90       0x10 arch/arm/cpu/armv7/start.o
 .rel.text.do_fat_fswrite
                0x0000000080864fa0       0x18 arch/arm/cpu/armv7/start.o
 .rel.text.fdt_valid
                0x0000000080864fb8       0x28 arch/arm/cpu/armv7/start.o
 .rel.text.is_printable_string
                0x0000000080864fe0        0x8 arch/arm/cpu/armv7/start.o
 .rel.text.print_data
                0x0000000080864fe8       0x58 arch/arm/cpu/armv7/start.o
 .rel.text.set_working_fdt_addr
                0x0000000080865040       0x10 arch/arm/cpu/armv7/start.o
 .rel.text.do_fdt
                0x0000000080865050      0x270 arch/arm/cpu/armv7/start.o
 .rel.text.do_load_wrapper
                0x00000000808652c0        0x8 arch/arm/cpu/armv7/start.o
 .rel.text.gpio_get_description
                0x00000000808652c8       0x18 arch/arm/cpu/armv7/start.o
 .rel.text.do_gpio
                0x00000000808652e0       0x50 arch/arm/cpu/armv7/start.o
 .rel.text.do_i2c
                0x0000000080865330        0x8 arch/arm/cpu/armv7/start.o
 .rel.text.i2c_get_cur_bus
                0x0000000080865338       0x10 arch/arm/cpu/armv7/start.o
 .rel.text.do_i2c_bus_speed
                0x0000000080865348       0x18 arch/arm/cpu/armv7/start.o
 .rel.text.do_i2c_reset
                0x0000000080865360        0x8 arch/arm/cpu/armv7/start.o
 .rel.text.do_i2c_olen
                0x0000000080865368       0x18 arch/arm/cpu/armv7/start.o
 .rel.text.do_i2c_flags
                0x0000000080865380       0x18 arch/arm/cpu/armv7/start.o
 .rel.text.do_i2c_probe
                0x0000000080865398       0x10 arch/arm/cpu/armv7/start.o
 .rel.text.do_i2c_bus_num
                0x00000000808653a8       0x20 arch/arm/cpu/armv7/start.o
 .rel.text.show_bus
                0x00000000808653c8       0x20 arch/arm/cpu/armv7/start.o
 .rel.text.do_i2c_show_bus
                0x00000000808653e8        0x8 arch/arm/cpu/armv7/start.o
 .rel.text.do_i2c_crc
                0x00000000808653f0       0x20 arch/arm/cpu/armv7/start.o
 .rel.text.mod_i2c_mem.isra.1
                0x0000000080865410       0x60 arch/arm/cpu/armv7/start.o
 .rel.text.do_i2c_md
                0x0000000080865470       0x58 arch/arm/cpu/armv7/start.o
 .rel.text.do_i2c_read
                0x00000000808654c8       0x10 arch/arm/cpu/armv7/start.o
 .rel.text.do_i2c_mw
                0x00000000808654d8       0x10 arch/arm/cpu/armv7/start.o
 .rel.text.do_i2c_write
                0x00000000808654e8       0x18 arch/arm/cpu/armv7/start.o
 .rel.text.do_i2c_loop
                0x0000000080865500       0x18 arch/arm/cpu/armv7/start.o
 .rel.text.binary_test
                0x0000000080865518       0x10 arch/arm/cpu/armv7/start.o
 .rel.text.do_itest
                0x0000000080865528        0x8 arch/arm/cpu/armv7/start.o
 .rel.text.bin_data_init
                0x0000000080865530       0x18 arch/arm/cpu/armv7/start.o
 .rel.text.k_data_save
                0x0000000080865548       0x30 arch/arm/cpu/armv7/start.o
 .rel.text.k_data_restore
                0x0000000080865578       0x30 arch/arm/cpu/armv7/start.o
 .rel.text.load_serial_ymodem
                0x00000000808655a8       0x20 arch/arm/cpu/armv7/start.o
 .rel.text.bin_data_char
                0x00000000808655c8       0x10 arch/arm/cpu/armv7/start.o
 .rel.text.chk1.constprop.1
                0x00000000808655d8        0x8 arch/arm/cpu/armv7/start.o
 .rel.text.s1_sendpacket.constprop.2
                0x00000000808655e0       0x18 arch/arm/cpu/armv7/start.o
 .rel.text.load_serial
                0x00000000808655f8       0x20 arch/arm/cpu/armv7/start.o
 .rel.text.do_load_serial
                0x0000000080865618       0x30 arch/arm/cpu/armv7/start.o
 .rel.text.do_load_serial_bin
                0x0000000080865648      0x110 arch/arm/cpu/armv7/start.o
 .rel.text.do_mem_mw
                0x0000000080865758        0x8 arch/arm/cpu/armv7/start.o
 .rel.text.do_mem_md
                0x0000000080865760       0x20 arch/arm/cpu/armv7/start.o
 .rel.text.do_mem_base
                0x0000000080865780       0x10 arch/arm/cpu/armv7/start.o
 .rel.text.do_mem_cp
                0x0000000080865790       0x10 arch/arm/cpu/armv7/start.o
 .rel.text.do_mem_cmp
                0x00000000808657a0       0x38 arch/arm/cpu/armv7/start.o
 .rel.text.do_mem_crc
                0x00000000808657d8        0x8 arch/arm/cpu/armv7/start.o
 .rel.text.mod_mem.isra.0
                0x00000000808657e0       0x48 arch/arm/cpu/armv7/start.o
 .rel.text.do_mii
                0x0000000080865828      0x170 arch/arm/cpu/armv7/start.o
 .rel.text.do_mdio
                0x0000000080865998       0x70 arch/arm/cpu/armv7/start.o
 .rel.text.do_mmcops
                0x0000000080865a08       0x18 arch/arm/cpu/armv7/start.o
 .rel.text.init_mmc_device
                0x0000000080865a20        0x8 arch/arm/cpu/armv7/start.o
 .rel.text.do_mmc_rescan
                0x0000000080865a28        0x8 arch/arm/cpu/armv7/start.o
 .rel.text.do_mmc_hwpartition
                0x0000000080865a30       0xb0 arch/arm/cpu/armv7/start.o
 .rel.text.do_mmc_dev
                0x0000000080865ae0       0x38 arch/arm/cpu/armv7/start.o
 .rel.text.do_mmc_read
                0x0000000080865b18       0x28 arch/arm/cpu/armv7/start.o
 .rel.text.do_mmc_part
                0x0000000080865b40       0x10 arch/arm/cpu/armv7/start.o
 .rel.text.do_mmc_erase
                0x0000000080865b50       0x30 arch/arm/cpu/armv7/start.o
 .rel.text.do_mmc_write
                0x0000000080865b80       0x30 arch/arm/cpu/armv7/start.o
 .rel.text.do_mmcinfo
                0x0000000080865bb0       0xf8 arch/arm/cpu/armv7/start.o
 .rel.text.do_mmc_setdsr
                0x0000000080865ca8       0x28 arch/arm/cpu/armv7/start.o
 .rel.text.mtd_part_info
                0x0000000080865cd0       0x20 arch/arm/cpu/armv7/start.o
 .rel.text.env_get_mtdparts
                0x0000000080865cf0        0x8 arch/arm/cpu/armv7/start.o
 .rel.text.memsize_format
                0x0000000080865cf8       0x20 arch/arm/cpu/armv7/start.o
 .rel.text.index_partitions
                0x0000000080865d18       0x28 arch/arm/cpu/armv7/start.o
 .rel.text.current_save
                0x0000000080865d40       0x40 arch/arm/cpu/armv7/start.o
 .rel.text.part_sort_add
                0x0000000080865d80       0x18 arch/arm/cpu/armv7/start.o
 .rel.text.device_del
                0x0000000080865d98       0x18 arch/arm/cpu/armv7/start.o
 .rel.text.generate_mtdparts_save.constprop.7
                0x0000000080865db0       0x28 arch/arm/cpu/armv7/start.o
 .rel.text.device_delall.constprop.9
                0x0000000080865dd8        0x8 arch/arm/cpu/armv7/start.o
 .rel.text.mtd_devices_init
                0x0000000080865de0       0x10 arch/arm/cpu/armv7/start.o
 .rel.text.get_mtd_info.constprop.10
                0x0000000080865df0       0x28 arch/arm/cpu/armv7/start.o
 .rel.text.part_validate
                0x0000000080865e18       0x48 arch/arm/cpu/armv7/start.o
 .rel.text.device_find
                0x0000000080865e60        0x8 arch/arm/cpu/armv7/start.o
 .rel.text.device_parse
                0x0000000080865e68       0x58 arch/arm/cpu/armv7/start.o
 .rel.text.mtd_id_parse
                0x0000000080865ec0       0x30 arch/arm/cpu/armv7/start.o
 .rel.text.find_dev_and_part
                0x0000000080865ef0       0x40 arch/arm/cpu/armv7/start.o
 .rel.text.mtdparts_init
                0x0000000080865f30      0x110 arch/arm/cpu/armv7/start.o
 .rel.text.do_chpart
                0x0000000080866040       0x38 arch/arm/cpu/armv7/start.o
 .rel.text.do_mtdparts
                0x0000000080866078      0x128 arch/arm/cpu/armv7/start.o
 .rel.text.set_dev
                0x00000000808661a0       0x18 arch/arm/cpu/armv7/start.o
 .rel.text.nand_print_and_set_info
                0x00000000808661b8       0x60 arch/arm/cpu/armv7/start.o
 .rel.text.do_nand
                0x0000000080866218      0x1c0 arch/arm/cpu/armv7/start.o
 .rel.text.nand_load_image
                0x00000000808663d8       0x50 arch/arm/cpu/armv7/start.o
 .rel.text.do_nandboot
                0x0000000080866428       0x20 arch/arm/cpu/armv7/start.o
 .rel.text.netboot_common
                0x0000000080866448       0xa8 arch/arm/cpu/armv7/start.o
 .rel.text.do_ping
                0x00000000808664f0       0x18 arch/arm/cpu/armv7/start.o
 .rel.text.do_part_list
                0x0000000080866508       0x28 arch/arm/cpu/armv7/start.o
 .rel.text.do_part_start
                0x0000000080866530       0x10 arch/arm/cpu/armv7/start.o
 .rel.text.do_part_size
                0x0000000080866540       0x10 arch/arm/cpu/armv7/start.o
 .rel.text.do_part
                0x0000000080866550       0x28 arch/arm/cpu/armv7/start.o
 .rel.text.do_pxe
                0x0000000080866578       0x10 arch/arm/cpu/armv7/start.o
 .rel.text.label_print
                0x0000000080866588        0x8 arch/arm/cpu/armv7/start.o
 .rel.text.do_get_tftp
                0x0000000080866590        0x8 arch/arm/cpu/armv7/start.o
 .rel.text.from_env
                0x0000000080866598        0x8 arch/arm/cpu/armv7/start.o
 .rel.text.get_string
                0x00000000808665a0        0x8 arch/arm/cpu/armv7/start.o
 .rel.text.get_token
                0x00000000808665a8        0x8 arch/arm/cpu/armv7/start.o
 .rel.text.parse_sliteral
                0x00000000808665b0        0x8 arch/arm/cpu/armv7/start.o
 .rel.text.parse_integer
                0x00000000808665b8        0x8 arch/arm/cpu/armv7/start.o
 .rel.text.do_get_any
                0x00000000808665c0       0x10 arch/arm/cpu/armv7/start.o
 .rel.text.do_get_fat
                0x00000000808665d0       0x10 arch/arm/cpu/armv7/start.o
 .rel.text.do_get_ext2
                0x00000000808665e0       0x10 arch/arm/cpu/armv7/start.o
 .rel.text.format_mac_pxe.constprop.6
                0x00000000808665f0       0x10 arch/arm/cpu/armv7/start.o
 .rel.text.get_relfile
                0x0000000080866600       0x38 arch/arm/cpu/armv7/start.o
 .rel.text.get_pxe_file
                0x0000000080866638        0x8 arch/arm/cpu/armv7/start.o
 .rel.text.handle_include
                0x0000000080866640       0x10 arch/arm/cpu/armv7/start.o
 .rel.text.parse_pxefile_top
                0x0000000080866650      0x150 arch/arm/cpu/armv7/start.o
 .rel.text.get_pxelinux_path
                0x00000000808667a0       0x18 arch/arm/cpu/armv7/start.o
 .rel.text.do_pxe_get
                0x00000000808667b8       0x48 arch/arm/cpu/armv7/start.o
 .rel.text.label_boot
                0x0000000080866800      0x108 arch/arm/cpu/armv7/start.o
 .rel.text.handle_pxe_menu
                0x0000000080866908       0x18 arch/arm/cpu/armv7/start.o
 .rel.text.do_pxe_boot
                0x0000000080866920       0x38 arch/arm/cpu/armv7/start.o
 .rel.text.do_sysboot
                0x0000000080866958       0x80 arch/arm/cpu/armv7/start.o
 .rel.text.do_spi_flash
                0x00000000808669d8      0x100 arch/arm/cpu/armv7/start.o
 .rel.text.do_spi
                0x0000000080866ad8       0x60 arch/arm/cpu/armv7/start.o
 .rel.text.do_time
                0x0000000080866b38       0x18 arch/arm/cpu/armv7/start.o
 .rel.text.do_test
                0x0000000080866b50        0x8 arch/arm/cpu/armv7/start.o
 .rel.text.usb_get_class_desc
                0x0000000080866b58       0x50 arch/arm/cpu/armv7/start.o
 .rel.text.usb_display_class_sub
                0x0000000080866ba8       0x98 arch/arm/cpu/armv7/start.o
 .rel.text.usb_display_desc
                0x0000000080866c40       0x38 arch/arm/cpu/armv7/start.o
 .rel.text.usb_show_tree_graph
                0x0000000080866c78       0x48 arch/arm/cpu/armv7/start.o
 .rel.text.usb_display_string
                0x0000000080866cc0        0x8 arch/arm/cpu/armv7/start.o
 .rel.text.usb_display_config
                0x0000000080866cc8       0xa8 arch/arm/cpu/armv7/start.o
 .rel.text.do_usbboot
                0x0000000080866d70        0x8 arch/arm/cpu/armv7/start.o
 .rel.text.do_usb_start
                0x0000000080866d78        0x8 arch/arm/cpu/armv7/start.o
 .rel.text.usb_show_tree
                0x0000000080866d80        0x8 arch/arm/cpu/armv7/start.o
 .rel.text.do_usb
                0x0000000080866d88       0xf0 arch/arm/cpu/armv7/start.o
 .rel.text.common_diskboot
                0x0000000080866e78       0x38 arch/arm/cpu/armv7/start.o
 .rel.text.do_fastboot
                0x0000000080866eb0       0x18 arch/arm/cpu/armv7/start.o
 .rel.text.do_imgextract
                0x0000000080866ec8       0xc8 arch/arm/cpu/armv7/start.o
 .rel.text.do_spl
                0x0000000080866f90       0x60 arch/arm/cpu/armv7/start.o
 .rel.text.do_dfu
                0x0000000080866ff0       0x10 arch/arm/cpu/armv7/start.o
 .rel.text.extract_val
                0x0000000080867000       0x10 arch/arm/cpu/armv7/start.o
 .rel.text.extract_env
                0x0000000080867010        0x8 arch/arm/cpu/armv7/start.o
 .rel.text.set_gpt_info.isra.1.constprop.2
                0x0000000080867018       0x80 arch/arm/cpu/armv7/start.o
 .rel.text.do_gpt
                0x0000000080867098       0x78 arch/arm/cpu/armv7/start.o
 .rel.text.do_env_delete
                0x0000000080867110       0x10 arch/arm/cpu/armv7/start.o
 .rel.text.do_env_exists
                0x0000000080867120        0x8 arch/arm/cpu/armv7/start.o
 .rel.text.do_env_save
                0x0000000080867128        0x8 arch/arm/cpu/armv7/start.o
 .rel.text.do_env
                0x0000000080867130        0x8 arch/arm/cpu/armv7/start.o
 .rel.text.env_print
                0x0000000080867138       0x18 arch/arm/cpu/armv7/start.o
 .rel.text.do_env_print
                0x0000000080867150       0x10 arch/arm/cpu/armv7/start.o
 .rel.text.do_env_import
                0x0000000080867160       0x48 arch/arm/cpu/armv7/start.o
 .rel.text.do_env_default
                0x00000000808671a8        0x8 arch/arm/cpu/armv7/start.o
 .rel.text._do_env_set.isra.0
                0x00000000808671b0       0x30 arch/arm/cpu/armv7/start.o
 .rel.text.do_env_ask
                0x00000000808671e0       0x10 arch/arm/cpu/armv7/start.o
 .rel.text.get_env_id
                0x00000000808671f0        0x8 arch/arm/cpu/armv7/start.o
 .rel.text.env_set
                0x00000000808671f8        0x8 arch/arm/cpu/armv7/start.o
 .rel.text.env_set_hex
                0x0000000080867200        0x8 arch/arm/cpu/armv7/start.o
 .rel.text.do_env_export
                0x0000000080867208       0x30 arch/arm/cpu/armv7/start.o
 .rel.text.env_get_f
                0x0000000080867238        0x8 arch/arm/cpu/armv7/start.o
 .rel.text.env_get
                0x0000000080867240        0x8 arch/arm/cpu/armv7/start.o
 .rel.text.do_env_edit.part.2
                0x0000000080867248       0x18 arch/arm/cpu/armv7/start.o
 .rel.rodata.op_table
                0x0000000080867260       0x68 arch/arm/cpu/armv7/start.o
 .rel.rodata.desc_and_len_tbl
                0x00000000808672c8       0x30 arch/arm/cpu/armv7/start.o
 .rel.rodata.reg_0_5_desc_tbl
                0x00000000808672f8       0x30 arch/arm/cpu/armv7/start.o
 .rel.rodata.reg_0_desc_tbl
                0x0000000080867328       0x50 arch/arm/cpu/armv7/start.o
 .rel.rodata.reg_1_desc_tbl
                0x0000000080867378       0x80 arch/arm/cpu/armv7/start.o
 .rel.rodata.reg_2_desc_tbl
                0x00000000808673f8        0x8 arch/arm/cpu/armv7/start.o
 .rel.rodata.reg_3_desc_tbl
                0x0000000080867400       0x18 arch/arm/cpu/armv7/start.o
 .rel.rodata.reg_4_desc_tbl
                0x0000000080867418       0x60 arch/arm/cpu/armv7/start.o
 .rel.rodata.reg_5_desc_tbl
                0x0000000080867478       0x60 arch/arm/cpu/armv7/start.o
 .rel.rodata.keywords
                0x00000000808674d8       0x90 arch/arm/cpu/armv7/start.o
 .rel.rodata.op_adv
                0x0000000080867568       0x80 arch/arm/cpu/armv7/start.o
 .rel.rodata.CSWTCH.28
                0x00000000808675e8       0x68 arch/arm/cpu/armv7/start.o
 .rel.rodata.subcmd_list
                0x0000000080867650       0x10 arch/arm/cpu/armv7/start.o
 .rel.u_boot_list_2_cmd_2_go
                0x0000000080867660       0x20 arch/arm/cpu/armv7/start.o
 .rel.u_boot_list_2_cmd_2_reset
                0x0000000080867680       0x20 arch/arm/cpu/armv7/start.o
 .rel.data.cmd_bootm_sub
                0x00000000808676a0       0xd8 arch/arm/cpu/armv7/start.o
 .rel.u_boot_list_2_cmd_2_boot
                0x0000000080867778       0x20 arch/arm/cpu/armv7/start.o
 .rel.u_boot_list_2_cmd_2_bootd
                0x0000000080867798       0x20 arch/arm/cpu/armv7/start.o
 .rel.u_boot_list_2_cmd_2_bootm
                0x00000000808677b8       0x20 arch/arm/cpu/armv7/start.o
 .rel.u_boot_list_2_cmd_2_iminfo
                0x00000000808677d8       0x20 arch/arm/cpu/armv7/start.o
 .rel.u_boot_list_2_cmd_2_help
                0x00000000808677f8       0x20 arch/arm/cpu/armv7/start.o
 .rel.u_boot_list_2_cmd_2_question_mark
                0x0000000080867818       0x20 arch/arm/cpu/armv7/start.o
 .rel.u_boot_list_2_cmd_2_version
                0x0000000080867838       0x20 arch/arm/cpu/armv7/start.o
 .rel.u_boot_list_2_cmd_2_source
                0x0000000080867858       0x20 arch/arm/cpu/armv7/start.o
 .rel.u_boot_list_2_cmd_2_bdinfo
                0x0000000080867878       0x20 arch/arm/cpu/armv7/start.o
 .rel.u_boot_list_2_cmd_2_bootefi
                0x0000000080867898       0x20 arch/arm/cpu/armv7/start.o
 .rel.u_boot_list_2_cmd_2_bootz
                0x00000000808678b8       0x20 arch/arm/cpu/armv7/start.o
 .rel.u_boot_list_2_cmd_2_coninfo
                0x00000000808678d8       0x20 arch/arm/cpu/armv7/start.o
 .rel.u_boot_list_2_cmd_2_echo
                0x00000000808678f8       0x20 arch/arm/cpu/armv7/start.o
 .rel.u_boot_list_2_cmd_2_eeprom
                0x0000000080867918       0x20 arch/arm/cpu/armv7/start.o
 .rel.u_boot_list_2_cmd_2_bootelf
                0x0000000080867938       0x20 arch/arm/cpu/armv7/start.o
 .rel.u_boot_list_2_cmd_2_bootvx
                0x0000000080867958       0x20 arch/arm/cpu/armv7/start.o
 .rel.u_boot_list_2_cmd_2_exit
                0x0000000080867978       0x20 arch/arm/cpu/armv7/start.o
 .rel.u_boot_list_2_cmd_2_ext4load
                0x0000000080867998       0x20 arch/arm/cpu/armv7/start.o
 .rel.u_boot_list_2_cmd_2_ext4ls
                0x00000000808679b8       0x20 arch/arm/cpu/armv7/start.o
 .rel.u_boot_list_2_cmd_2_ext4size
                0x00000000808679d8       0x20 arch/arm/cpu/armv7/start.o
 .rel.u_boot_list_2_cmd_2_ext4write
                0x00000000808679f8       0x20 arch/arm/cpu/armv7/start.o
 .rel.u_boot_list_2_cmd_2_ext2load
                0x0000000080867a18       0x20 arch/arm/cpu/armv7/start.o
 .rel.u_boot_list_2_cmd_2_ext2ls
                0x0000000080867a38       0x20 arch/arm/cpu/armv7/start.o
 .rel.u_boot_list_2_cmd_2_fatinfo
                0x0000000080867a58       0x20 arch/arm/cpu/armv7/start.o
 .rel.u_boot_list_2_cmd_2_fatload
                0x0000000080867a78       0x20 arch/arm/cpu/armv7/start.o
 .rel.u_boot_list_2_cmd_2_fatls
                0x0000000080867a98       0x20 arch/arm/cpu/armv7/start.o
 .rel.u_boot_list_2_cmd_2_fatsize
                0x0000000080867ab8       0x20 arch/arm/cpu/armv7/start.o
 .rel.u_boot_list_2_cmd_2_fatwrite
                0x0000000080867ad8       0x20 arch/arm/cpu/armv7/start.o
 .rel.u_boot_list_2_cmd_2_fdt
                0x0000000080867af8       0x20 arch/arm/cpu/armv7/start.o
 .rel.u_boot_list_2_cmd_2_fstype
                0x0000000080867b18       0x20 arch/arm/cpu/armv7/start.o
 .rel.u_boot_list_2_cmd_2_load
                0x0000000080867b38       0x20 arch/arm/cpu/armv7/start.o
 .rel.u_boot_list_2_cmd_2_ls
                0x0000000080867b58       0x20 arch/arm/cpu/armv7/start.o
 .rel.u_boot_list_2_cmd_2_save
                0x0000000080867b78       0x20 arch/arm/cpu/armv7/start.o
 .rel.u_boot_list_2_cmd_2_size
                0x0000000080867b98       0x20 arch/arm/cpu/armv7/start.o
 .rel.u_boot_list_2_cmd_2_gpio
                0x0000000080867bb8       0x20 arch/arm/cpu/armv7/start.o
 .rel.data.cmd_i2c_sub
                0x0000000080867bd8      0x1e0 arch/arm/cpu/armv7/start.o
 .rel.u_boot_list_2_cmd_2_i2c
                0x0000000080867db8       0x20 arch/arm/cpu/armv7/start.o
 .rel.u_boot_list_2_cmd_2_itest
                0x0000000080867dd8       0x20 arch/arm/cpu/armv7/start.o
 .rel.u_boot_list_2_cmd_2_loadb
                0x0000000080867df8       0x20 arch/arm/cpu/armv7/start.o
 .rel.u_boot_list_2_cmd_2_loads
                0x0000000080867e18       0x20 arch/arm/cpu/armv7/start.o
 .rel.u_boot_list_2_cmd_2_loadx
                0x0000000080867e38       0x20 arch/arm/cpu/armv7/start.o
 .rel.u_boot_list_2_cmd_2_loady
                0x0000000080867e58       0x20 arch/arm/cpu/armv7/start.o
 .rel.u_boot_list_2_cmd_2_base
                0x0000000080867e78       0x20 arch/arm/cpu/armv7/start.o
 .rel.u_boot_list_2_cmd_2_cmp
                0x0000000080867e98       0x20 arch/arm/cpu/armv7/start.o
 .rel.u_boot_list_2_cmd_2_cp
                0x0000000080867eb8       0x20 arch/arm/cpu/armv7/start.o
 .rel.u_boot_list_2_cmd_2_crc32
                0x0000000080867ed8       0x20 arch/arm/cpu/armv7/start.o
 .rel.u_boot_list_2_cmd_2_loop
                0x0000000080867ef8       0x20 arch/arm/cpu/armv7/start.o
 .rel.u_boot_list_2_cmd_2_md
                0x0000000080867f18       0x20 arch/arm/cpu/armv7/start.o
 .rel.u_boot_list_2_cmd_2_mm
                0x0000000080867f38       0x20 arch/arm/cpu/armv7/start.o
 .rel.u_boot_list_2_cmd_2_mw
                0x0000000080867f58       0x20 arch/arm/cpu/armv7/start.o
 .rel.u_boot_list_2_cmd_2_nm
                0x0000000080867f78       0x20 arch/arm/cpu/armv7/start.o
 .rel.u_boot_list_2_cmd_2_mii
                0x0000000080867f98       0x20 arch/arm/cpu/armv7/start.o
 .rel.u_boot_list_2_cmd_2_mdio
                0x0000000080867fb8       0x20 arch/arm/cpu/armv7/start.o
 .rel.u_boot_list_2_cmd_2_sleep
                0x0000000080867fd8       0x20 arch/arm/cpu/armv7/start.o
 .rel.data.cmd_mmc
                0x0000000080867ff8      0x140 arch/arm/cpu/armv7/start.o
 .rel.u_boot_list_2_cmd_2_mmc
                0x0000000080868138       0x20 arch/arm/cpu/armv7/start.o
 .rel.u_boot_list_2_cmd_2_mmcinfo
                0x0000000080868158       0x20 arch/arm/cpu/armv7/start.o
 .rel.u_boot_list_2_cmd_2_chpart
                0x0000000080868178       0x20 arch/arm/cpu/armv7/start.o
 .rel.u_boot_list_2_cmd_2_mtdparts
                0x0000000080868198       0x20 arch/arm/cpu/armv7/start.o
 .rel.u_boot_list_2_cmd_2_nand
                0x00000000808681b8       0x20 arch/arm/cpu/armv7/start.o
 .rel.u_boot_list_2_cmd_2_nboot
                0x00000000808681d8       0x20 arch/arm/cpu/armv7/start.o
 .rel.u_boot_list_2_cmd_2_bootp
                0x00000000808681f8       0x20 arch/arm/cpu/armv7/start.o
 .rel.u_boot_list_2_cmd_2_dhcp
                0x0000000080868218       0x20 arch/arm/cpu/armv7/start.o
 .rel.u_boot_list_2_cmd_2_nfs
                0x0000000080868238       0x20 arch/arm/cpu/armv7/start.o
 .rel.u_boot_list_2_cmd_2_ping
                0x0000000080868258       0x20 arch/arm/cpu/armv7/start.o
 .rel.u_boot_list_2_cmd_2_tftpboot
                0x0000000080868278       0x20 arch/arm/cpu/armv7/start.o
 .rel.u_boot_list_2_cmd_2_part
                0x0000000080868298       0x20 arch/arm/cpu/armv7/start.o
 .rel.data.cmd_pxe_sub
                0x00000000808682b8       0x40 arch/arm/cpu/armv7/start.o
 .rel.data.pxe_default_paths
                0x00000000808682f8       0x18 arch/arm/cpu/armv7/start.o
 .rel.u_boot_list_2_cmd_2_pxe
                0x0000000080868310       0x20 arch/arm/cpu/armv7/start.o
 .rel.u_boot_list_2_cmd_2_sysboot
                0x0000000080868330       0x20 arch/arm/cpu/armv7/start.o
 .rel.u_boot_list_2_cmd_2_sf
                0x0000000080868350       0x20 arch/arm/cpu/armv7/start.o
 .rel.u_boot_list_2_cmd_2_sspi
                0x0000000080868370       0x20 arch/arm/cpu/armv7/start.o
 .rel.u_boot_list_2_cmd_2_time
                0x0000000080868390       0x20 arch/arm/cpu/armv7/start.o
 .rel.u_boot_list_2_cmd_2_false
                0x00000000808683b0       0x18 arch/arm/cpu/armv7/start.o
 .rel.u_boot_list_2_cmd_2_test
                0x00000000808683c8       0x20 arch/arm/cpu/armv7/start.o
 .rel.u_boot_list_2_cmd_2_true
                0x00000000808683e8       0x18 arch/arm/cpu/armv7/start.o
 .rel.u_boot_list_2_cmd_2_usb
                0x0000000080868400       0x20 arch/arm/cpu/armv7/start.o
 .rel.u_boot_list_2_cmd_2_usbboot
                0x0000000080868420       0x20 arch/arm/cpu/armv7/start.o
 .rel.u_boot_list_2_cmd_2_fastboot
                0x0000000080868440       0x20 arch/arm/cpu/armv7/start.o
 .rel.u_boot_list_2_cmd_2_imxtract
                0x0000000080868460       0x20 arch/arm/cpu/armv7/start.o
 .rel.data.__compound_literal.0
                0x0000000080868480       0x38 arch/arm/cpu/armv7/start.o
 .rel.data.__compound_literal.1
                0x00000000808684b8       0x30 arch/arm/cpu/armv7/start.o
 .rel.data.cmd_spl_export_sub
                0x00000000808684e8       0x30 arch/arm/cpu/armv7/start.o
 .rel.data.cmd_spl_sub
                0x0000000080868518       0x18 arch/arm/cpu/armv7/start.o
 .rel.u_boot_list_2_cmd_2_spl
                0x0000000080868530       0x20 arch/arm/cpu/armv7/start.o
 .rel.u_boot_list_2_cmd_2_dfu
                0x0000000080868550       0x20 arch/arm/cpu/armv7/start.o
 .rel.u_boot_list_2_cmd_2_gpt
                0x0000000080868570       0x20 arch/arm/cpu/armv7/start.o
 .rel.data.cmd_env_sub
                0x0000000080868590      0x160 arch/arm/cpu/armv7/start.o
 .rel.u_boot_list_2_cmd_2_askenv
                0x00000000808686f0       0x20 arch/arm/cpu/armv7/start.o
 .rel.u_boot_list_2_cmd_2_editenv
                0x0000000080868710       0x28 arch/arm/cpu/armv7/start.o
 .rel.u_boot_list_2_cmd_2_env
                0x0000000080868738       0x20 arch/arm/cpu/armv7/start.o
 .rel.u_boot_list_2_cmd_2_printenv
                0x0000000080868758       0x28 arch/arm/cpu/armv7/start.o
 .rel.u_boot_list_2_cmd_2_run
                0x0000000080868780       0x28 arch/arm/cpu/armv7/start.o
 .rel.u_boot_list_2_cmd_2_saveenv
                0x00000000808687a8       0x20 arch/arm/cpu/armv7/start.o
 .rel.u_boot_list_2_cmd_2_setenv
                0x00000000808687c8       0x28 arch/arm/cpu/armv7/start.o
 .rel.text.main_loop
                0x00000000808687f0       0x18 arch/arm/cpu/armv7/start.o
 .rel.text.jumptable_init
                0x0000000080868808      0x100 arch/arm/cpu/armv7/start.o
 .rel.text.hash_lookup_algo
                0x0000000080868908        0x8 arch/arm/cpu/armv7/start.o
 .rel.text.hash_progressive_lookup_algo
                0x0000000080868910        0x0 arch/arm/cpu/armv7/start.o
 .rel.text.hash_command
                0x0000000080868910       0x28 arch/arm/cpu/armv7/start.o
 .rel.text.mapset
                0x0000000080868938        0x8 arch/arm/cpu/armv7/start.o
 .rel.text.syntax_err
                0x0000000080868940        0x8 arch/arm/cpu/armv7/start.o
 .rel.text.xmalloc
                0x0000000080868948        0x8 arch/arm/cpu/armv7/start.o
 .rel.text.xrealloc
                0x0000000080868950        0x8 arch/arm/cpu/armv7/start.o
 .rel.text.done_word
                0x0000000080868958        0x8 arch/arm/cpu/armv7/start.o
 .rel.text.do_showvar
                0x0000000080868960       0x20 arch/arm/cpu/armv7/start.o
 .rel.text.is_assignment
                0x0000000080868980        0x8 arch/arm/cpu/armv7/start.o
 .rel.text.file_get
                0x0000000080868988       0x30 arch/arm/cpu/armv7/start.o
 .rel.text.b_addqchr
                0x00000000808689b8        0x8 arch/arm/cpu/armv7/start.o
 .rel.text.get_local_var
                0x00000000808689c0       0x20 arch/arm/cpu/armv7/start.o
 .rel.text.set_local_var
                0x00000000808689e0       0x20 arch/arm/cpu/armv7/start.o
 .rel.text.insert_var_value_sub
                0x0000000080868a00        0x8 arch/arm/cpu/armv7/start.o
 .rel.text.unset_local_var
                0x0000000080868a08        0x0 arch/arm/cpu/armv7/start.o
 .rel.text.parse_string_outer
                0x0000000080868a08       0x18 arch/arm/cpu/armv7/start.o
 .rel.text.run_list_real
                0x0000000080868a20       0x50 arch/arm/cpu/armv7/start.o
 .rel.text.parse_stream_outer
                0x0000000080868a70       0x70 arch/arm/cpu/armv7/start.o
 .rel.text.parse_file_outer
                0x0000000080868ae0       0x10 arch/arm/cpu/armv7/start.o
 .rel.text.u_boot_hush_start
                0x0000000080868af0       0x18 arch/arm/cpu/armv7/start.o
 .rel.text.bootdelay_process
                0x0000000080868b08       0x58 arch/arm/cpu/armv7/start.o
 .rel.text.autoboot_command
                0x0000000080868b60       0x20 arch/arm/cpu/armv7/start.o
 .rel.text.setup_mon_len
                0x0000000080868b80       0x10 arch/arm/cpu/armv7/start.o
 .rel.text.announce_dram_init
                0x0000000080868b90        0x8 arch/arm/cpu/armv7/start.o
 .rel.text.init_baud_rate
                0x0000000080868b98        0x8 arch/arm/cpu/armv7/start.o
 .rel.text.show_dram_config
                0x0000000080868ba0        0x8 arch/arm/cpu/armv7/start.o
 .rel.text.board_init_f
                0x0000000080868ba8        0x8 arch/arm/cpu/armv7/start.o
 .rel.text.initr_net
                0x0000000080868bb0        0x8 arch/arm/cpu/armv7/start.o
 .rel.text.initr_ethaddr
                0x0000000080868bb8        0x8 arch/arm/cpu/armv7/start.o
 .rel.text.initr_env
                0x0000000080868bc0       0x20 arch/arm/cpu/armv7/start.o
 .rel.text.initr_mmc
                0x0000000080868be0        0x8 arch/arm/cpu/armv7/start.o
 .rel.text.initr_nand
                0x0000000080868be8       0x10 arch/arm/cpu/armv7/start.o
 .rel.text.initr_reloc_global_data
                0x0000000080868bf8       0x18 arch/arm/cpu/armv7/start.o
 .rel.text.board_init_r
                0x0000000080868c10        0x8 arch/arm/cpu/armv7/start.o
 .rel.text.show_board_info
                0x0000000080868c18       0x10 arch/arm/cpu/armv7/start.o
 .rel.text.bootm_find_images
                0x0000000080868c28       0x20 arch/arm/cpu/armv7/start.o
 .rel.text.bootm_decomp_image
                0x0000000080868c48       0x48 arch/arm/cpu/armv7/start.o
 .rel.text.do_bootm_states
                0x0000000080868c90      0x108 arch/arm/cpu/armv7/start.o
 .rel.text.do_bootm_rtems
                0x0000000080868d98        0x8 arch/arm/cpu/armv7/start.o
 .rel.text.do_bootm_plan9
                0x0000000080868da0       0x18 arch/arm/cpu/armv7/start.o
 .rel.text.do_bootm_standalone
                0x0000000080868db8       0x18 arch/arm/cpu/armv7/start.o
 .rel.text.do_bootm_qnxelf
                0x0000000080868dd0        0x8 arch/arm/cpu/armv7/start.o
 .rel.text.do_bootm_netbsd
                0x0000000080868dd8       0x18 arch/arm/cpu/armv7/start.o
 .rel.text.do_bootvx_fdt
                0x0000000080868df0       0x38 arch/arm/cpu/armv7/start.o
 .rel.text.bootm_os_get_boot_func
                0x0000000080868e28        0x8 arch/arm/cpu/armv7/start.o
 .rel.text.fdt_support_default_count_cells
                0x0000000080868e30        0x8 arch/arm/cpu/armv7/start.o
 .rel.text.fdt_find_or_add_subnode
                0x0000000080868e38       0x10 arch/arm/cpu/armv7/start.o
 .rel.text.fdt_root
                0x0000000080868e48       0x20 arch/arm/cpu/armv7/start.o
 .rel.text.fdt_initrd
                0x0000000080868e68       0x30 arch/arm/cpu/armv7/start.o
 .rel.text.fdt_chosen
                0x0000000080868e98       0x20 arch/arm/cpu/armv7/start.o
 .rel.text.do_fixup_by_path
                0x0000000080868eb8        0x8 arch/arm/cpu/armv7/start.o
 .rel.text.fdt_fixup_memory_banks
                0x0000000080868ec0       0x38 arch/arm/cpu/armv7/start.o
 .rel.text.fdt_fixup_ethernet
                0x0000000080868ef8       0x30 arch/arm/cpu/armv7/start.o
 .rel.text.fdt_del_node_and_alias
                0x0000000080868f28        0x0 arch/arm/cpu/armv7/start.o
 .rel.text.fdt_translate_address
                0x0000000080868f28       0x20 arch/arm/cpu/armv7/start.o
 .rel.text.fdt_node_offset_by_compat_reg
                0x0000000080868f48        0x0 arch/arm/cpu/armv7/start.o
 .rel.text.fdt_set_phandle
                0x0000000080868f48        0x0 arch/arm/cpu/armv7/start.o
 .rel.text.fdt_create_phandle
                0x0000000080868f48        0x0 arch/arm/cpu/armv7/start.o
 .rel.text.fdt_set_node_status
                0x0000000080868f48        0x0 arch/arm/cpu/armv7/start.o
 .rel.text.fdt_verify_alias_address
                0x0000000080868f48        0x0 arch/arm/cpu/armv7/start.o
 .rel.text.fdt_get_base_address
                0x0000000080868f48        0x0 arch/arm/cpu/armv7/start.o
 .rel.text.fdt_read_range
                0x0000000080868f48        0x0 arch/arm/cpu/armv7/start.o
 .rel.text.fdt_setup_simplefb_node
                0x0000000080868f48        0x0 arch/arm/cpu/armv7/start.o
 .rel.text.fdt_fixup_display
                0x0000000080868f48        0x0 arch/arm/cpu/armv7/start.o
 .rel.text.fdt_overlay_apply_verbose
                0x0000000080868f48       0x20 arch/arm/cpu/armv7/start.o
 .rel.text.miiphy_get_dev_by_name
                0x0000000080868f68       0x10 arch/arm/cpu/armv7/start.o
 .rel.text.miiphy_init
                0x0000000080868f78       0x10 arch/arm/cpu/armv7/start.o
 .rel.text.mdio_register
                0x0000000080868f88       0x18 arch/arm/cpu/armv7/start.o
 .rel.text.mdio_register_seq
                0x0000000080868fa0        0x0 arch/arm/cpu/armv7/start.o
 .rel.text.mdio_unregister
                0x0000000080868fa0        0x0 arch/arm/cpu/armv7/start.o
 .rel.text.mdio_list_devices
                0x0000000080868fa0       0x28 arch/arm/cpu/armv7/start.o
 .rel.text.miiphy_set_current_dev
                0x0000000080868fc8       0x10 arch/arm/cpu/armv7/start.o
 .rel.text.miiphy_get_active_dev
                0x0000000080868fd8        0x8 arch/arm/cpu/armv7/start.o
 .rel.text.mdio_get_current_dev
                0x0000000080868fe0        0x8 arch/arm/cpu/armv7/start.o
 .rel.text.mdio_phydev_for_ethname
                0x0000000080868fe8       0x10 arch/arm/cpu/armv7/start.o
 .rel.text.miiphy_get_current_dev
                0x0000000080868ff8        0x8 arch/arm/cpu/armv7/start.o
 .rel.text.miiphy_listdev
                0x0000000080869000       0x30 arch/arm/cpu/armv7/start.o
 .rel.text.miiphy_is_1000base_x
                0x0000000080869030        0x8 arch/arm/cpu/armv7/start.o
 .rel.text.miiphy_speed
                0x0000000080869038       0x28 arch/arm/cpu/armv7/start.o
 .rel.text.miiphy_duplex
                0x0000000080869060       0x30 arch/arm/cpu/armv7/start.o
 .rel.text.get_descriptor_len
                0x0000000080869090       0x10 arch/arm/cpu/armv7/start.o
 .rel.text.usb_setup_descriptor
                0x00000000808690a0       0x10 arch/arm/cpu/armv7/start.o
 .rel.text.usb_string_sub
                0x00000000808690b0        0x8 arch/arm/cpu/armv7/start.o
 .rel.text.usb_get_configuration_len
                0x00000000808690b8       0x10 arch/arm/cpu/armv7/start.o
 .rel.text.usb_set_interface
                0x00000000808690c8        0x8 arch/arm/cpu/armv7/start.o
 .rel.text.usb_select_config
                0x00000000808690d0       0x70 arch/arm/cpu/armv7/start.o
 .rel.text.usb_setup_device
                0x0000000080869140       0x10 arch/arm/cpu/armv7/start.o
 .rel.text.usb_find_usb2_hub_address_port
                0x0000000080869150        0x8 arch/arm/cpu/armv7/start.o
 .rel.text.usb_hub_port_connect_change
                0x0000000080869158        0x8 arch/arm/cpu/armv7/start.o
 .rel.text.usb_hub_configure
                0x0000000080869160       0x28 arch/arm/cpu/armv7/start.o
 .rel.text.usb_stor_BBB_transport
                0x0000000080869188       0x10 arch/arm/cpu/armv7/start.o
 .rel.text.usb_stor_CB_comdat
                0x0000000080869198        0x8 arch/arm/cpu/armv7/start.o
 .rel.text.usb_stor_CBI_get_status.isra.2
                0x00000000808691a0        0x8 arch/arm/cpu/armv7/start.o
 .rel.text.usb_stor_CB_transport
                0x00000000808691a8       0x10 arch/arm/cpu/armv7/start.o
 .rel.text.usb_request_sense.constprop.11
                0x00000000808691b8        0x8 arch/arm/cpu/armv7/start.o
 .rel.text.usb_stor_read
                0x00000000808691c0       0x10 arch/arm/cpu/armv7/start.o
 .rel.text.usb_stor_write
                0x00000000808691d0       0x10 arch/arm/cpu/armv7/start.o
 .rel.text.usb_stor_info
                0x00000000808691e0       0x20 arch/arm/cpu/armv7/start.o
 .rel.text.usb_stor_reset
                0x0000000080869200        0x8 arch/arm/cpu/armv7/start.o
 .rel.text.usb_stor_scan
                0x0000000080869208       0x18 arch/arm/cpu/armv7/start.o
 .rel.text.usb_storage_probe
                0x0000000080869220       0x38 arch/arm/cpu/armv7/start.o
 .rel.text.usb_stor_get_info
                0x0000000080869258       0x20 arch/arm/cpu/armv7/start.o
 .rel.text.usb_mass_storage_probe
                0x0000000080869278       0x30 arch/arm/cpu/armv7/start.o
 .rel.text.menu_get_choice
                0x00000000808692a8       0x18 arch/arm/cpu/armv7/start.o
 .rel.text.delete_char.part.0
                0x00000000808692c0       0x10 arch/arm/cpu/armv7/start.o
 .rel.text.cread_add_char
                0x00000000808692d0        0x8 arch/arm/cpu/armv7/start.o
 .rel.text.cli_readline_into_buffer
                0x00000000808692d8       0xa8 arch/arm/cpu/armv7/start.o
 .rel.text.cli_readline
                0x0000000080869380        0x8 arch/arm/cpu/armv7/start.o
 .rel.text.cli_simple_parse_line
                0x0000000080869388        0x0 arch/arm/cpu/armv7/start.o
 .rel.text.cli_simple_run_command
                0x0000000080869388        0x0 arch/arm/cpu/armv7/start.o
 .rel.text.cli_simple_loop
                0x0000000080869388        0x0 arch/arm/cpu/armv7/start.o
 .rel.text.console_setfile
                0x0000000080869388       0x30 arch/arm/cpu/armv7/start.o
 .rel.text.putc
                0x00000000808693b8        0x8 arch/arm/cpu/armv7/start.o
 .rel.text.puts
                0x00000000808693c0        0x8 arch/arm/cpu/armv7/start.o
 .rel.text.fgetc
                0x00000000808693c8        0x8 arch/arm/cpu/armv7/start.o
 .rel.text.ftstc
                0x00000000808693d0        0x8 arch/arm/cpu/armv7/start.o
 .rel.text.fputc
                0x00000000808693d8        0x0 arch/arm/cpu/armv7/start.o
 .rel.text.fputs
                0x00000000808693d8        0x8 arch/arm/cpu/armv7/start.o
 .rel.text.ctrlc
                0x00000000808693e0       0x10 arch/arm/cpu/armv7/start.o
 .rel.text.confirm_yesno
                0x00000000808693f0       0x20 arch/arm/cpu/armv7/start.o
 .rel.text.disable_ctrlc
                0x0000000080869410        0x8 arch/arm/cpu/armv7/start.o
 .rel.text.had_ctrlc
                0x0000000080869418        0x8 arch/arm/cpu/armv7/start.o
 .rel.text.clear_ctrlc
                0x0000000080869420        0x8 arch/arm/cpu/armv7/start.o
 .rel.text.on_console
                0x0000000080869428       0x20 arch/arm/cpu/armv7/start.o
 .rel.text.console_announce_r
                0x0000000080869448        0x0 arch/arm/cpu/armv7/start.o
 .rel.text.stdio_print_current_devices
                0x0000000080869448        0x0 arch/arm/cpu/armv7/start.o
 .rel.text.console_init_r
                0x0000000080869448       0x10 arch/arm/cpu/armv7/start.o
 .rel.text.sbrk
                0x0000000080869458       0x18 arch/arm/cpu/armv7/start.o
 .rel.text.mem_malloc_init
                0x0000000080869470       0x18 arch/arm/cpu/armv7/start.o
 .rel.text.malloc_trim
                0x0000000080869488       0x18 arch/arm/cpu/armv7/start.o
 .rel.text.free
                0x00000000808694a0       0x20 arch/arm/cpu/armv7/start.o
 .rel.text.malloc
                0x00000000808694c0       0x48 arch/arm/cpu/armv7/start.o
 .rel.text.calloc
                0x0000000080869508        0x8 arch/arm/cpu/armv7/start.o
 .rel.text.realloc
                0x0000000080869510       0x10 arch/arm/cpu/armv7/start.o
 .rel.text.mallopt
                0x0000000080869520        0x0 arch/arm/cpu/armv7/start.o
 .rel.text.on_loadaddr
                0x0000000080869520        0x8 arch/arm/cpu/armv7/start.o
 .rel.text.env_get_bootm_low
                0x0000000080869528        0x8 arch/arm/cpu/armv7/start.o
 .rel.text.env_get_bootm_size
                0x0000000080869530       0x10 arch/arm/cpu/armv7/start.o
 .rel.text.env_get_bootm_mapsize
                0x0000000080869540        0x8 arch/arm/cpu/armv7/start.o
 .rel.text.genimg_print_size
                0x0000000080869548       0x10 arch/arm/cpu/armv7/start.o
 .rel.text.genimg_print_time
                0x0000000080869558        0x8 arch/arm/cpu/armv7/start.o
 .rel.text.genimg_get_short_name
                0x0000000080869560        0x0 arch/arm/cpu/armv7/start.o
 .rel.text.genimg_get_cat_name
                0x0000000080869560        0x0 arch/arm/cpu/armv7/start.o
 .rel.text.genimg_get_cat_short_name
                0x0000000080869560        0x0 arch/arm/cpu/armv7/start.o
 .rel.text.genimg_get_cat_count
                0x0000000080869560        0x0 arch/arm/cpu/armv7/start.o
 .rel.text.genimg_get_cat_desc
                0x0000000080869560        0x0 arch/arm/cpu/armv7/start.o
 .rel.text.genimg_get_os_name
                0x0000000080869560       0x10 arch/arm/cpu/armv7/start.o
 .rel.text.genimg_get_arch_name
                0x0000000080869570       0x10 arch/arm/cpu/armv7/start.o
 .rel.text.genimg_get_type_name
                0x0000000080869580       0x10 arch/arm/cpu/armv7/start.o
 .rel.text.genimg_get_type_short_name
                0x0000000080869590        0x0 arch/arm/cpu/armv7/start.o
 .rel.text.genimg_get_comp_name
                0x0000000080869590       0x10 arch/arm/cpu/armv7/start.o
 .rel.text.image_print_contents
                0x00000000808695a0       0x60 arch/arm/cpu/armv7/start.o
 .rel.text.genimg_get_comp_short_name
                0x0000000080869600        0x0 arch/arm/cpu/armv7/start.o
 .rel.text.genimg_get_os_short_name
                0x0000000080869600        0x0 arch/arm/cpu/armv7/start.o
 .rel.text.genimg_get_arch_short_name
                0x0000000080869600        0x0 arch/arm/cpu/armv7/start.o
 .rel.text.genimg_get_os_id
                0x0000000080869600       0x10 arch/arm/cpu/armv7/start.o
 .rel.text.genimg_get_arch_id
                0x0000000080869610       0x10 arch/arm/cpu/armv7/start.o
 .rel.text.genimg_get_type_id
                0x0000000080869620       0x10 arch/arm/cpu/armv7/start.o
 .rel.text.genimg_get_comp_id
                0x0000000080869630       0x10 arch/arm/cpu/armv7/start.o
 .rel.text.genimg_get_kernel_addr_fit
                0x0000000080869640        0x8 arch/arm/cpu/armv7/start.o
 .rel.text.boot_get_ramdisk
                0x0000000080869648       0x60 arch/arm/cpu/armv7/start.o
 .rel.text.boot_ramdisk_high
                0x00000000808696a8       0x20 arch/arm/cpu/armv7/start.o
 .rel.text.boot_get_loadable
                0x00000000808696c8       0x20 arch/arm/cpu/armv7/start.o
 .rel.text.android_image_get_kernel
                0x00000000808696e8       0x38 arch/arm/cpu/armv7/start.o
 .rel.text.android_image_check_header
                0x0000000080869720        0x8 arch/arm/cpu/armv7/start.o
 .rel.text.android_image_get_ramdisk
                0x0000000080869728        0x8 arch/arm/cpu/armv7/start.o
 .rel.text.android_print_contents
                0x0000000080869730       0x60 arch/arm/cpu/armv7/start.o
 .rel.text.fdt_error
                0x0000000080869790       0x10 arch/arm/cpu/armv7/start.o
 .rel.text.boot_fdt_add_mem_rsv_regions
                0x00000000808697a0        0x8 arch/arm/cpu/armv7/start.o
 .rel.text.boot_relocate_fdt
                0x00000000808697a8       0x40 arch/arm/cpu/armv7/start.o
 .rel.text.boot_get_fdt
                0x00000000808697e8       0x90 arch/arm/cpu/armv7/start.o
 .rel.text.image_setup_libfdt
                0x0000000080869878       0x20 arch/arm/cpu/armv7/start.o
 .rel.text.fit_image_get_address
                0x0000000080869898        0x8 arch/arm/cpu/armv7/start.o
 .rel.text.fit_get_desc
                0x00000000808698a0        0x8 arch/arm/cpu/armv7/start.o
 .rel.text.fit_get_timestamp
                0x00000000808698a8        0x8 arch/arm/cpu/armv7/start.o
 .rel.text.fit_image_get_node
                0x00000000808698b0        0x8 arch/arm/cpu/armv7/start.o
 .rel.text.fit_image_get_os
                0x00000000808698b8        0x8 arch/arm/cpu/armv7/start.o
 .rel.text.fit_image_get_arch
                0x00000000808698c0        0x8 arch/arm/cpu/armv7/start.o
 .rel.text.fit_image_get_type
                0x00000000808698c8        0x8 arch/arm/cpu/armv7/start.o
 .rel.text.fit_image_get_comp
                0x00000000808698d0        0x8 arch/arm/cpu/armv7/start.o
 .rel.text.fit_image_get_load
                0x00000000808698d8        0x8 arch/arm/cpu/armv7/start.o
 .rel.text.fit_image_get_entry
                0x00000000808698e0        0x8 arch/arm/cpu/armv7/start.o
 .rel.text.fit_image_get_data
                0x00000000808698e8        0x8 arch/arm/cpu/armv7/start.o
 .rel.text.fit_image_get_data_offset
                0x00000000808698f0        0x0 arch/arm/cpu/armv7/start.o
 .rel.text.fit_image_get_data_size
                0x00000000808698f0        0x0 arch/arm/cpu/armv7/start.o
 .rel.text.fit_image_hash_get_algo
                0x00000000808698f0        0x8 arch/arm/cpu/armv7/start.o
 .rel.text.fit_image_hash_get_value
                0x00000000808698f8        0x8 arch/arm/cpu/armv7/start.o
 .rel.text.fit_image_print_data
                0x0000000080869900       0x60 arch/arm/cpu/armv7/start.o
 .rel.text.fit_image_print
                0x0000000080869960       0x90 arch/arm/cpu/armv7/start.o
 .rel.text.fit_set_timestamp
                0x00000000808699f0        0x0 arch/arm/cpu/armv7/start.o
 .rel.text.calculate_hash
                0x00000000808699f0       0x20 arch/arm/cpu/armv7/start.o
 .rel.text.fit_image_verify
                0x0000000080869a10       0x68 arch/arm/cpu/armv7/start.o
 .rel.text.fit_all_image_verify
                0x0000000080869a78       0x28 arch/arm/cpu/armv7/start.o
 .rel.text.fit_check_format
                0x0000000080869aa0       0x18 arch/arm/cpu/armv7/start.o
 .rel.text.fit_conf_find_compat
                0x0000000080869ab8        0x0 arch/arm/cpu/armv7/start.o
 .rel.text.fit_conf_get_node
                0x0000000080869ab8       0x10 arch/arm/cpu/armv7/start.o
 .rel.text.fit_conf_print
                0x0000000080869ac8       0x70 arch/arm/cpu/armv7/start.o
 .rel.text.fit_print_contents
                0x0000000080869b38       0x60 arch/arm/cpu/armv7/start.o
 .rel.text.fit_image_load
                0x0000000080869b98       0xa0 arch/arm/cpu/armv7/start.o
 .rel.text.boot_get_setup_fit
                0x0000000080869c38        0x8 arch/arm/cpu/armv7/start.o
 .rel.text.boot_get_fdt_fit
                0x0000000080869c40       0x20 arch/arm/cpu/armv7/start.o
 .rel.text.stdio_get_list
                0x0000000080869c60        0x8 arch/arm/cpu/armv7/start.o
 .rel.text.stdio_get_by_name
                0x0000000080869c68        0x8 arch/arm/cpu/armv7/start.o
 .rel.text.stdio_register_dev
                0x0000000080869c70        0x8 arch/arm/cpu/armv7/start.o
 .rel.text.stdio_init_tables
                0x0000000080869c78        0x8 arch/arm/cpu/armv7/start.o
 .rel.text.stdio_add_devices
                0x0000000080869c80       0x28 arch/arm/cpu/armv7/start.o
 .rel.text.do_run
                0x0000000080869ca8        0x8 arch/arm/cpu/armv7/start.o
 .rel.text.cli_process_fdt
                0x0000000080869cb0       0x10 arch/arm/cpu/armv7/start.o
 .rel.text.cli_secure_boot_cmd
                0x0000000080869cc0       0x18 arch/arm/cpu/armv7/start.o
 .rel.text.run_usb_dnl_gadget
                0x0000000080869cd8       0x20 arch/arm/cpu/armv7/start.o
 .rel.text.find_cmd
                0x0000000080869cf8       0x10 arch/arm/cpu/armv7/start.o
 .rel.text.cmd_usage
                0x0000000080869d08       0x18 arch/arm/cpu/armv7/start.o
 .rel.text._do_help
                0x0000000080869d20       0x10 arch/arm/cpu/armv7/start.o
 .rel.text.var_complete
                0x0000000080869d30       0x10 arch/arm/cpu/armv7/start.o
 .rel.text.cmd_auto_complete
                0x0000000080869d40       0x48 arch/arm/cpu/armv7/start.o
 .rel.text.cmd_get_data_size
                0x0000000080869d88        0x8 arch/arm/cpu/armv7/start.o
 .rel.text.cmd_process
                0x0000000080869d90       0x18 arch/arm/cpu/armv7/start.o
 .rel.text.cmd_process_error
                0x0000000080869da8        0x8 arch/arm/cpu/armv7/start.o
 .rel.text.xyzModem_get_hdr
                0x0000000080869db0       0x30 arch/arm/cpu/armv7/start.o
 .rel.text.xyzModem_stream_open
                0x0000000080869de0       0x10 arch/arm/cpu/armv7/start.o
 .rel.text.xyzModem_stream_read
                0x0000000080869df0        0x8 arch/arm/cpu/armv7/start.o
 .rel.text.xyzModem_stream_close
                0x0000000080869df8       0x20 arch/arm/cpu/armv7/start.o
 .rel.text.xyzModem_stream_terminate
                0x0000000080869e18        0x8 arch/arm/cpu/armv7/start.o
 .rel.text.xyzModem_error
                0x0000000080869e20       0x10 arch/arm/cpu/armv7/start.o
 .rel.rodata.init_sequence_f
                0x0000000080869e30      0x170 arch/arm/cpu/armv7/start.o
 .rel.rodata.boot_os
                0x0000000080869fa0       0x38 arch/arm/cpu/armv7/start.o
 .rel.rodata.usb_hub_ids
                0x0000000080869fd8        0x8 arch/arm/cpu/armv7/start.o
 .rel.rodata.usb_mass_storage_ids
                0x0000000080869fe0        0x8 arch/arm/cpu/armv7/start.o
 .rel.rodata.table_info
                0x0000000080869fe8        0x0 arch/arm/cpu/armv7/start.o
 .rel.rodata.uimage_arch
                0x0000000080869fe8      0x1a0 arch/arm/cpu/armv7/start.o
 .rel.rodata.uimage_comp
                0x000000008086a188       0x70 arch/arm/cpu/armv7/start.o
 .rel.rodata.uimage_os
                0x000000008086a1f8       0xa0 arch/arm/cpu/armv7/start.o
 .rel.rodata.uimage_type
                0x000000008086a298      0x210 arch/arm/cpu/armv7/start.o
 .rel.rodata.CSWTCH.119
                0x000000008086a4a8       0xd8 arch/arm/cpu/armv7/start.o
 .rel.data.hash_algo
                0x000000008086a580       0x78 arch/arm/cpu/armv7/start.o
 .rel.data.reserved_list
                0x000000008086a5f8       0x58 arch/arm/cpu/armv7/start.o
 .rel.u_boot_list_2_cmd_2_showvar
                0x000000008086a650       0x20 arch/arm/cpu/armv7/start.o
 .rel.data.init_sequence_r
                0x000000008086a670      0x130 arch/arm/cpu/armv7/start.o
 .rel.data.of_busses
                0x000000008086a7a0       0x28 arch/arm/cpu/armv7/start.o
 .rel.data.usb_scan_list
                0x000000008086a7c8       0x10 arch/arm/cpu/armv7/start.o
 .rel.u_boot_list_2_driver_2_usb_generic_hub
                0x000000008086a7d8       0x10 arch/arm/cpu/armv7/start.o
 .rel.u_boot_list_2_uclass_2_usb_hub
                0x000000008086a7e8       0x20 arch/arm/cpu/armv7/start.o
 .rel.u_boot_list_2_usb_driver_entry_2_usb_generic_hub
                0x000000008086a808       0x10 arch/arm/cpu/armv7/start.o
 .rel.u_boot_list_2_blk_driver_2_usb
                0x000000008086a818       0x10 arch/arm/cpu/armv7/start.o
 .rel.u_boot_list_2_driver_2_usb_mass_storage
                0x000000008086a828       0x18 arch/arm/cpu/armv7/start.o
 .rel.u_boot_list_2_uclass_2_usb_mass_storage
                0x000000008086a840        0x8 arch/arm/cpu/armv7/start.o
 .rel.u_boot_list_2_usb_driver_entry_2_usb_mass_storage
                0x000000008086a848       0x10 arch/arm/cpu/armv7/start.o
 .rel.u_boot_list_2_env_clbk_2_console
                0x000000008086a858       0x10 arch/arm/cpu/armv7/start.o
 .rel.data.av_  0x000000008086a868      0x800 arch/arm/cpu/armv7/start.o
 .rel.u_boot_list_2_env_clbk_2_loadaddr
                0x000000008086b068       0x10 arch/arm/cpu/armv7/start.o
 .rel.data.stdio_names
                0x000000008086b078       0x18 arch/arm/cpu/armv7/start.o
 .rel.text.dev_print
                0x000000008086b090       0x88 arch/arm/cpu/armv7/start.o
 .rel.text.part_init
                0x000000008086b118       0x10 arch/arm/cpu/armv7/start.o
 .rel.text.part_print
                0x000000008086b128       0xd0 arch/arm/cpu/armv7/start.o
 .rel.text.part_get_info
                0x000000008086b1f8       0x10 arch/arm/cpu/armv7/start.o
 .rel.text.part_get_info_whole_disk
                0x000000008086b208       0x10 arch/arm/cpu/armv7/start.o
 .rel.text.blk_get_device_by_str
                0x000000008086b218       0x18 arch/arm/cpu/armv7/start.o
 .rel.text.blk_get_device_part_str
                0x000000008086b230       0x58 arch/arm/cpu/armv7/start.o
 .rel.text.part_get_info_by_name_type
                0x000000008086b288        0x0 arch/arm/cpu/armv7/start.o
 .rel.text.part_set_generic_name
                0x000000008086b288       0x18 arch/arm/cpu/armv7/start.o
 .rel.text.test_block_type
                0x000000008086b2a0       0x10 arch/arm/cpu/armv7/start.o
 .rel.text.print_partition_extended
                0x000000008086b2b0       0x30 arch/arm/cpu/armv7/start.o
 .rel.text.part_print_dos
                0x000000008086b2e0        0x8 arch/arm/cpu/armv7/start.o
 .rel.text.part_get_info_extended
                0x000000008086b2e8       0x20 arch/arm/cpu/armv7/start.o
 .rel.text.write_mbr_partition
                0x000000008086b308        0x0 arch/arm/cpu/armv7/start.o
 .rel.text.part_get_info_iso_verb
                0x000000008086b308       0x70 arch/arm/cpu/armv7/start.o
 .rel.text.part_print_iso
                0x000000008086b378       0x18 arch/arm/cpu/armv7/start.o
 .rel.text.print_efiname
                0x000000008086b390       0x10 arch/arm/cpu/armv7/start.o
 .rel.text.set_protective_mbr
                0x000000008086b3a0       0x20 arch/arm/cpu/armv7/start.o
 .rel.text.validate_gpt_entries
                0x000000008086b3c0       0x10 arch/arm/cpu/armv7/start.o
 .rel.text.validate_gpt_header
                0x000000008086b3d0       0x30 arch/arm/cpu/armv7/start.o
 .rel.text.is_gpt_valid
                0x000000008086b400       0x40 arch/arm/cpu/armv7/start.o
 .rel.text.is_pte_valid
                0x000000008086b440       0x10 arch/arm/cpu/armv7/start.o
 .rel.text.part_print_efi
                0x000000008086b450       0x60 arch/arm/cpu/armv7/start.o
 .rel.text.part_get_info_efi
                0x000000008086b4b0       0x40 arch/arm/cpu/armv7/start.o
 .rel.text.get_disk_guid
                0x000000008086b4f0       0x20 arch/arm/cpu/armv7/start.o
 .rel.text.write_gpt_table
                0x000000008086b510        0x8 arch/arm/cpu/armv7/start.o
 .rel.text.gpt_fill_pte
                0x000000008086b518       0x20 arch/arm/cpu/armv7/start.o
 .rel.text.gpt_fill_header
                0x000000008086b538        0x8 arch/arm/cpu/armv7/start.o
 .rel.text.gpt_restore
                0x000000008086b540       0x10 arch/arm/cpu/armv7/start.o
 .rel.text.gpt_verify_headers
                0x000000008086b550       0x18 arch/arm/cpu/armv7/start.o
 .rel.text.gpt_verify_partitions
                0x000000008086b568       0x20 arch/arm/cpu/armv7/start.o
 .rel.text.write_mbr_and_gpt_partitions
                0x000000008086b588        0x0 arch/arm/cpu/armv7/start.o
 .rel.rodata.CSWTCH.48
                0x000000008086b588       0x40 arch/arm/cpu/armv7/start.o
 .rel.u_boot_list_2_part_driver_2_dos
                0x000000008086b5c8       0x20 arch/arm/cpu/armv7/start.o
 .rel.u_boot_list_2_part_driver_2_iso
                0x000000008086b5e8       0x20 arch/arm/cpu/armv7/start.o
 .rel.u_boot_list_2_part_driver_2_a_efi
                0x000000008086b608       0x20 arch/arm/cpu/armv7/start.o
 .rel.text.device_bind_common.isra.0
                0x000000008086b628       0x10 arch/arm/cpu/armv7/start.o
 .rel.text.device_probe
                0x000000008086b638       0x10 arch/arm/cpu/armv7/start.o
 .rel.text.dev_get_platdata
                0x000000008086b648       0x10 arch/arm/cpu/armv7/start.o
 .rel.text.dev_get_parent_platdata
                0x000000008086b658       0x10 arch/arm/cpu/armv7/start.o
 .rel.text.dev_get_uclass_platdata
                0x000000008086b668       0x10 arch/arm/cpu/armv7/start.o
 .rel.text.dev_get_priv
                0x000000008086b678       0x10 arch/arm/cpu/armv7/start.o
 .rel.text.dev_get_uclass_priv
                0x000000008086b688       0x10 arch/arm/cpu/armv7/start.o
 .rel.text.dev_get_parent_priv
                0x000000008086b698       0x10 arch/arm/cpu/armv7/start.o
 .rel.text.devfdt_get_addr_index
                0x000000008086b6a8        0x8 arch/arm/cpu/armv7/start.o
 .rel.text.devfdt_get_addr_size_index
                0x000000008086b6b0        0x0 arch/arm/cpu/armv7/start.o
 .rel.text.devfdt_get_addr_name
                0x000000008086b6b0        0x0 arch/arm/cpu/armv7/start.o
 .rel.text.lists_driver_lookup_name
                0x000000008086b6b0       0x10 arch/arm/cpu/armv7/start.o
 .rel.text.lists_uclass_lookup
                0x000000008086b6c0       0x10 arch/arm/cpu/armv7/start.o
 .rel.text.lists_bind_drivers
                0x000000008086b6d0       0x18 arch/arm/cpu/armv7/start.o
 .rel.text.lists_bind_fdt
                0x000000008086b6e8       0x28 arch/arm/cpu/armv7/start.o
 .rel.text.dm_scan_fdt_node
                0x000000008086b710        0x8 arch/arm/cpu/armv7/start.o
 .rel.text.dm_root
                0x000000008086b718        0x8 arch/arm/cpu/armv7/start.o
 .rel.text.dm_init
                0x000000008086b720       0x10 arch/arm/cpu/armv7/start.o
 .rel.text.dm_scan_platdata
                0x000000008086b730        0x8 arch/arm/cpu/armv7/start.o
 .rel.text.dm_extended_scan_fdt
                0x000000008086b738        0x8 arch/arm/cpu/armv7/start.o
 .rel.text.uclass_resolve_seq
                0x000000008086b740        0x8 arch/arm/cpu/armv7/start.o
 .rel.text.dm_fdt_pre_reloc
                0x000000008086b748       0x18 arch/arm/cpu/armv7/start.o
 .rel.text.device_remove
                0x000000008086b760       0x20 arch/arm/cpu/armv7/start.o
 .rel.text.simple_bus_post_bind
                0x000000008086b780        0x8 arch/arm/cpu/armv7/start.o
 .rel.text.show_devices
                0x000000008086b788       0x30 arch/arm/cpu/armv7/start.o
 .rel.text.dm_dump_all
                0x000000008086b7b8       0x10 arch/arm/cpu/armv7/start.o
 .rel.text.dm_dump_uclass
                0x000000008086b7c8       0x20 arch/arm/cpu/armv7/start.o
 .rel.text.of_read_fmap_entry
                0x000000008086b7e8        0x0 arch/arm/cpu/armv7/start.o
 .rel.text.ofnode_get_chosen_prop
                0x000000008086b7e8        0x8 arch/arm/cpu/armv7/start.o
 .rel.text.ofnode_decode_display_timing
                0x000000008086b7f0        0x0 arch/arm/cpu/armv7/start.o
 .rel.text.ofnode_pre_reloc
                0x000000008086b7f0        0x0 arch/arm/cpu/armv7/start.o
 .rel.text.ofnode_read_resource
                0x000000008086b7f0        0x0 arch/arm/cpu/armv7/start.o
 .rel.text.ofnode_read_resource_byname
                0x000000008086b7f0        0x0 arch/arm/cpu/armv7/start.o
 .rel.text.timer_pre_probe
                0x000000008086b7f0        0x8 arch/arm/cpu/armv7/start.o
 .rel.text.dm_timer_init
                0x000000008086b7f8        0x8 arch/arm/cpu/armv7/start.o
 .rel.text.blk_driver_lookup_type
                0x000000008086b800       0x10 arch/arm/cpu/armv7/start.o
 .rel.text.blk_list_devices
                0x000000008086b810        0x8 arch/arm/cpu/armv7/start.o
 .rel.text.blk_print_device_num
                0x000000008086b818        0x8 arch/arm/cpu/armv7/start.o
 .rel.text.blk_show_device
                0x000000008086b820       0x10 arch/arm/cpu/armv7/start.o
 .rel.text.blk_get_devnum_by_typename
                0x000000008086b830       0x10 arch/arm/cpu/armv7/start.o
 .rel.text.mmc_send_status
                0x000000008086b840       0x10 arch/arm/cpu/armv7/start.o
 .rel.text.mmc_bread
                0x000000008086b850       0x10 arch/arm/cpu/armv7/start.o
 .rel.text.mmc_hwpart_config
                0x000000008086b860       0x48 arch/arm/cpu/armv7/start.o
 .rel.text.mmc_startup
                0x000000008086b8a8       0x50 arch/arm/cpu/armv7/start.o
 .rel.text.mmc_start_init
                0x000000008086b8f8       0x10 arch/arm/cpu/armv7/start.o
 .rel.text.mmc_init
                0x000000008086b908       0x10 arch/arm/cpu/armv7/start.o
 .rel.text.mmc_initialize
                0x000000008086b918       0x10 arch/arm/cpu/armv7/start.o
 .rel.text.find_mmc_device
                0x000000008086b928       0x10 arch/arm/cpu/armv7/start.o
 .rel.text.mmc_get_next_devnum
                0x000000008086b938        0x8 arch/arm/cpu/armv7/start.o
 .rel.text.get_mmc_num
                0x000000008086b940        0x8 arch/arm/cpu/armv7/start.o
 .rel.text.mmc_do_preinit
                0x000000008086b948        0x8 arch/arm/cpu/armv7/start.o
 .rel.text.mmc_list_init
                0x000000008086b950       0x10 arch/arm/cpu/armv7/start.o
 .rel.text.mmc_list_add
                0x000000008086b960        0x8 arch/arm/cpu/armv7/start.o
 .rel.text.print_mmc_devices
                0x000000008086b968       0x40 arch/arm/cpu/armv7/start.o
 .rel.text.mmc_create
                0x000000008086b9a8       0x18 arch/arm/cpu/armv7/start.o
 .rel.text.mmc_berase
                0x000000008086b9c0       0x10 arch/arm/cpu/armv7/start.o
 .rel.text.mmc_bwrite
                0x000000008086b9d0       0x18 arch/arm/cpu/armv7/start.o
 .rel.text.mmc_reset_controller_fsm
                0x000000008086b9e8       0x10 arch/arm/cpu/armv7/start.o
 .rel.text.omap_hsmmc_set_ios
                0x000000008086b9f8       0x10 arch/arm/cpu/armv7/start.o
 .rel.text.omap_hsmmc_send_cmd
                0x000000008086ba08       0x38 arch/arm/cpu/armv7/start.o
 .rel.text.omap_hsmmc_ofdata_to_platdata
                0x000000008086ba40       0x28 arch/arm/cpu/armv7/start.o
 .rel.text.mmc_init_stream
                0x000000008086ba68       0x18 arch/arm/cpu/armv7/start.o
 .rel.text.omap_hsmmc_probe
                0x000000008086ba80       0x38 arch/arm/cpu/armv7/start.o
 .rel.text.dfu_write_buffer_drain
                0x000000008086bab8       0x10 arch/arm/cpu/armv7/start.o
 .rel.text.dfu_free_buf
                0x000000008086bac8        0x8 arch/arm/cpu/armv7/start.o
 .rel.text.dfu_get_buf_size
                0x000000008086bad0        0x8 arch/arm/cpu/armv7/start.o
 .rel.text.dfu_get_buf
                0x000000008086bad8       0x28 arch/arm/cpu/armv7/start.o
 .rel.text.dfu_transaction_initiate
                0x000000008086bb00        0x8 arch/arm/cpu/armv7/start.o
 .rel.text.dfu_flush
                0x000000008086bb08       0x10 arch/arm/cpu/armv7/start.o
 .rel.text.dfu_write
                0x000000008086bb18       0x18 arch/arm/cpu/armv7/start.o
 .rel.text.dfu_read
                0x000000008086bb30       0x30 arch/arm/cpu/armv7/start.o
 .rel.text.dfu_free_entities
                0x000000008086bb60       0x10 arch/arm/cpu/armv7/start.o
 .rel.text.dfu_config_entities
                0x000000008086bb70       0x88 arch/arm/cpu/armv7/start.o
 .rel.text.dfu_init_env_entities
                0x000000008086bbf8       0x18 arch/arm/cpu/armv7/start.o
 .rel.text.dfu_get_dev_type
                0x000000008086bc10        0x8 arch/arm/cpu/armv7/start.o
 .rel.text.dfu_get_layout
                0x000000008086bc18        0x8 arch/arm/cpu/armv7/start.o
 .rel.text.dfu_show_entities
                0x000000008086bc20       0x18 arch/arm/cpu/armv7/start.o
 .rel.text.dfu_get_alt_number
                0x000000008086bc38        0x8 arch/arm/cpu/armv7/start.o
 .rel.text.dfu_get_entity
                0x000000008086bc40        0x8 arch/arm/cpu/armv7/start.o
 .rel.text.dfu_get_alt
                0x000000008086bc48        0x0 arch/arm/cpu/armv7/start.o
 .rel.text.dfu_write_from_mem_addr
                0x000000008086bc48        0x0 arch/arm/cpu/armv7/start.o
 .rel.text.mmc_block_op
                0x000000008086bc48       0x20 arch/arm/cpu/armv7/start.o
 .rel.text.mmc_file_op
                0x000000008086bc68       0x70 arch/arm/cpu/armv7/start.o
 .rel.text.dfu_free_entity_mmc
                0x000000008086bcd8        0x8 arch/arm/cpu/armv7/start.o
 .rel.text.dfu_write_medium_mmc
                0x000000008086bce0       0x20 arch/arm/cpu/armv7/start.o
 .rel.text.dfu_flush_medium_mmc
                0x000000008086bd00       0x10 arch/arm/cpu/armv7/start.o
 .rel.text.dfu_get_medium_size_mmc
                0x000000008086bd10       0x18 arch/arm/cpu/armv7/start.o
 .rel.text.dfu_read_medium_mmc
                0x000000008086bd28       0x20 arch/arm/cpu/armv7/start.o
 .rel.text.dfu_fill_entity_mmc
                0x000000008086bd48       0x90 arch/arm/cpu/armv7/start.o
 .rel.text.nand_block_op
                0x000000008086bdd8       0x30 arch/arm/cpu/armv7/start.o
 .rel.text.dfu_write_medium_nand
                0x000000008086be08       0x10 arch/arm/cpu/armv7/start.o
 .rel.text.dfu_read_medium_nand
                0x000000008086be18       0x10 arch/arm/cpu/armv7/start.o
 .rel.text.dfu_flush_medium_nand
                0x000000008086be28       0x20 arch/arm/cpu/armv7/start.o
 .rel.text.dfu_fill_entity_nand
                0x000000008086be48       0x78 arch/arm/cpu/armv7/start.o
 .rel.text.dfu_write_medium_ram
                0x000000008086bec0       0x10 arch/arm/cpu/armv7/start.o
 .rel.text.dfu_read_medium_ram
                0x000000008086bed0       0x10 arch/arm/cpu/armv7/start.o
 .rel.text.dfu_fill_entity_ram
                0x000000008086bee0       0x38 arch/arm/cpu/armv7/start.o
 .rel.text.rtc_calc_weekday
                0x000000008086bf18        0x8 arch/arm/cpu/armv7/start.o
 .rel.text.rtc_to_tm
                0x000000008086bf20        0x8 arch/arm/cpu/armv7/start.o
 .rel.text.hw_watchdog_reset
                0x000000008086bf28        0x8 arch/arm/cpu/armv7/start.o
 .rel.text._input_send_keycodes
                0x000000008086bf30        0x0 arch/arm/cpu/armv7/start.o
 .rel.text.input_add_tables
                0x000000008086bf30        0x0 arch/arm/cpu/armv7/start.o
 .rel.text.input_stdio_register
                0x000000008086bf30        0x0 arch/arm/cpu/armv7/start.o
 .rel.text.key_matrix_decode_fdt
                0x000000008086bf30        0x0 arch/arm/cpu/armv7/start.o
 .rel.rodata.root_info
                0x000000008086bf30        0x8 arch/arm/cpu/armv7/start.o
 .rel.rodata.generic_simple_bus_ids
                0x000000008086bf38       0x10 arch/arm/cpu/armv7/start.o
 .rel.rodata.omap_timer_ids
                0x000000008086bf48       0x18 arch/arm/cpu/armv7/start.o
 .rel.rodata.omap_timer_ops
                0x000000008086bf60        0x8 arch/arm/cpu/armv7/start.o
 .rel.rodata.mod_exp_ops_sw
                0x000000008086bf68        0x8 arch/arm/cpu/armv7/start.o
 .rel.rodata.omap_hsmmc_ids
                0x000000008086bf70       0x30 arch/arm/cpu/armv7/start.o
 .rel.rodata.omap_hsmmc_ops
                0x000000008086bfa0       0x20 arch/arm/cpu/armv7/start.o
 .rel.rodata.kbd_to_ansi364
                0x000000008086bfc0        0x0 arch/arm/cpu/armv7/start.o
 .rel.u_boot_list_2_driver_2_root_driver
                0x000000008086bfc0        0x8 arch/arm/cpu/armv7/start.o
 .rel.u_boot_list_2_uclass_2_root
                0x000000008086bfc8        0x8 arch/arm/cpu/armv7/start.o
 .rel.u_boot_list_2_driver_2_simple_bus_drv
                0x000000008086bfd0       0x10 arch/arm/cpu/armv7/start.o
 .rel.u_boot_list_2_uclass_2_simple_bus
                0x000000008086bfe0       0x10 arch/arm/cpu/armv7/start.o
 .rel.u_boot_list_2_uclass_2_timer
                0x000000008086bff0       0x18 arch/arm/cpu/armv7/start.o
 .rel.u_boot_list_2_driver_2_omap_timer
                0x000000008086c008       0x28 arch/arm/cpu/armv7/start.o
 .rel.u_boot_list_2_uclass_2_mod_exp
                0x000000008086c030        0x8 arch/arm/cpu/armv7/start.o
 .rel.u_boot_list_2_driver_2_mod_exp_sw
                0x000000008086c038       0x10 arch/arm/cpu/armv7/start.o
 .rel.u_boot_list_2_driver_info_2_mod_exp_sw
                0x000000008086c048        0x8 arch/arm/cpu/armv7/start.o
 .rel.u_boot_list_2_uclass_2_misc
                0x000000008086c050        0x8 arch/arm/cpu/armv7/start.o
 .rel.u_boot_list_2_driver_2_mmc
                0x000000008086c058        0x8 arch/arm/cpu/armv7/start.o
 .rel.u_boot_list_2_uclass_2_mmc
                0x000000008086c060        0x8 arch/arm/cpu/armv7/start.o
 .rel.u_boot_list_2_blk_driver_2_mmc
                0x000000008086c068       0x18 arch/arm/cpu/armv7/start.o
 .rel.u_boot_list_2_driver_2_omap_hsmmc
                0x000000008086c080       0x28 arch/arm/cpu/armv7/start.o
 .rel.data.dfu_list
                0x000000008086c0a8       0x10 arch/arm/cpu/armv7/start.o
 .rel.data.kbd_entry
                0x000000008086c0b8        0x0 arch/arm/cpu/armv7/start.o
 .rel.text.check_reserved
                0x000000008086c0b8       0x10 arch/arm/cpu/armv7/start.o
 .rel.text.dm_gpio_lookup_name
                0x000000008086c0c8        0x8 arch/arm/cpu/armv7/start.o
 .rel.text.gpio_direction_input
                0x000000008086c0d0        0x8 arch/arm/cpu/armv7/start.o
 .rel.text.gpio_direction_output
                0x000000008086c0d8        0x8 arch/arm/cpu/armv7/start.o
 .rel.text.dm_gpio_get_value
                0x000000008086c0e0        0x8 arch/arm/cpu/armv7/start.o
 .rel.text.dm_gpio_set_value
                0x000000008086c0e8        0x8 arch/arm/cpu/armv7/start.o
 .rel.text.dm_gpio_get_open_drain
                0x000000008086c0f0        0x0 arch/arm/cpu/armv7/start.o
 .rel.text.dm_gpio_set_open_drain
                0x000000008086c0f0        0x0 arch/arm/cpu/armv7/start.o
 .rel.text.dm_gpio_set_dir_flags
                0x000000008086c0f0        0x8 arch/arm/cpu/armv7/start.o
 .rel.text.gpio_request_tail
                0x000000008086c0f8       0x10 arch/arm/cpu/armv7/start.o
 .rel.text.gpio_get_status
                0x000000008086c108       0x28 arch/arm/cpu/armv7/start.o
 .rel.text.gpio_request_by_name_nodev
                0x000000008086c130        0x0 arch/arm/cpu/armv7/start.o
 .rel.text.gpio_request_by_name
                0x000000008086c130        0x8 arch/arm/cpu/armv7/start.o
 .rel.text.gpio_get_list_count
                0x000000008086c138        0x8 arch/arm/cpu/armv7/start.o
 .rel.text.gpio_request_list_by_name_nodev
                0x000000008086c140        0x8 arch/arm/cpu/armv7/start.o
 .rel.rodata.gpio_function
                0x000000008086c148       0x28 arch/arm/cpu/armv7/start.o
 .rel.rodata.gpio_omap_ops
                0x000000008086c170       0x28 arch/arm/cpu/armv7/start.o
 .rel.rodata.omap_gpio_ids
                0x000000008086c198       0x18 arch/arm/cpu/armv7/start.o
 .rel.u_boot_list_2_uclass_2_gpio
                0x000000008086c1b0       0x18 arch/arm/cpu/armv7/start.o
 .rel.u_boot_list_2_driver_2_gpio_omap
                0x000000008086c1c8       0x28 arch/arm/cpu/armv7/start.o
 .rel.text.i2c_dump_msgs
                0x000000008086c1f0        0x0 arch/arm/cpu/armv7/start.o
 .rel.text.i2c_get_chip
                0x000000008086c1f0       0x10 arch/arm/cpu/armv7/start.o
 .rel.text.i2c_post_probe
                0x000000008086c200        0x8 arch/arm/cpu/armv7/start.o
 .rel.text.i2c_chip_ofdata_to_platdata
                0x000000008086c208       0x10 arch/arm/cpu/armv7/start.o
 .rel.text.i2c_compat_get_device
                0x000000008086c218       0x10 arch/arm/cpu/armv7/start.o
 .rel.text.i2c_probe
                0x000000008086c228        0x8 arch/arm/cpu/armv7/start.o
 .rel.text.i2c_get_bus_num
                0x000000008086c230        0x0 arch/arm/cpu/armv7/start.o
 .rel.text.i2c_set_bus_num
                0x000000008086c230        0x0 arch/arm/cpu/armv7/start.o
 .rel.text.__omap24_i2c_setspeed
                0x000000008086c230       0x10 arch/arm/cpu/armv7/start.o
 .rel.text.wait_for_bb
                0x000000008086c240        0x8 arch/arm/cpu/armv7/start.o
 .rel.text.wait_for_event
                0x000000008086c248       0x10 arch/arm/cpu/armv7/start.o
 .rel.text.omap_i2c_probe_chip
                0x000000008086c258        0x8 arch/arm/cpu/armv7/start.o
 .rel.text.omap_i2c_xfer
                0x000000008086c260       0x50 arch/arm/cpu/armv7/start.o
 .rel.text.omap_i2c_probe
                0x000000008086c2b0       0x10 arch/arm/cpu/armv7/start.o
 .rel.rodata.omap_i2c_ids
                0x000000008086c2c0       0x10 arch/arm/cpu/armv7/start.o
 .rel.rodata.omap_i2c_ops
                0x000000008086c2d0       0x18 arch/arm/cpu/armv7/start.o
 .rel.u_boot_list_2_driver_2_i2c_generic_chip_drv
                0x000000008086c2e8        0x8 arch/arm/cpu/armv7/start.o
 .rel.u_boot_list_2_uclass_2_i2c
                0x000000008086c2f0       0x20 arch/arm/cpu/armv7/start.o
 .rel.u_boot_list_2_uclass_2_i2c_generic
                0x000000008086c310        0x8 arch/arm/cpu/armv7/start.o
 .rel.u_boot_list_2_driver_2_i2c_omap
                0x000000008086c318       0x28 arch/arm/cpu/armv7/start.o
 .rel.text.__mtd_next_device
                0x000000008086c340        0x8 arch/arm/cpu/armv7/start.o
 .rel.text.del_mtd_device
                0x000000008086c348        0x0 arch/arm/cpu/armv7/start.o
 .rel.text.get_mtd_device
                0x000000008086c348        0x0 arch/arm/cpu/armv7/start.o
 .rel.text.__put_mtd_device
                0x000000008086c348       0x20 arch/arm/cpu/armv7/start.o
 .rel.text.add_mtd_device
                0x000000008086c368       0x30 arch/arm/cpu/armv7/start.o
 .rel.text.mtd_arg_off
                0x000000008086c398       0x10 arch/arm/cpu/armv7/start.o
 .rel.text.mtd_arg_off_size
                0x000000008086c3a8       0x28 arch/arm/cpu/armv7/start.o
 .rel.text.get_nand_dev_by_index
                0x000000008086c3d0        0x8 arch/arm/cpu/armv7/start.o
 .rel.text.nand_register
                0x000000008086c3d8       0x28 arch/arm/cpu/armv7/start.o
 .rel.text.nand_size
                0x000000008086c400        0x8 arch/arm/cpu/armv7/start.o
 .rel.text.nand_init
                0x000000008086c408       0x10 arch/arm/cpu/armv7/start.o
 .rel.text.verify_bbt_descr
                0x000000008086c418       0x20 arch/arm/cpu/armv7/start.o
 .rel.text.create_bbt
                0x000000008086c438       0x20 arch/arm/cpu/armv7/start.o
 .rel.text.write_bbt
                0x000000008086c458        0x8 arch/arm/cpu/armv7/start.o
 .rel.text.nand_default_bbt
                0x000000008086c460       0x30 arch/arm/cpu/armv7/start.o
 .rel.text.nand_erase_opts
                0x000000008086c490       0x48 arch/arm/cpu/armv7/start.o
 .rel.text.nand_write_skip_bad
                0x000000008086c4d8       0x28 arch/arm/cpu/armv7/start.o
 .rel.text.nand_read_skip_bad
                0x000000008086c500       0x28 arch/arm/cpu/armv7/start.o
 .rel.text.nand_calculate_ecc
                0x000000008086c528        0x8 arch/arm/cpu/armv7/start.o
 .rel.text.nand_set_defaults
                0x000000008086c530       0x88 arch/arm/cpu/armv7/start.o
 .rel.text.nand_wait
                0x000000008086c5b8       0x18 arch/arm/cpu/armv7/start.o
 .rel.text.nand_fill_oob
                0x000000008086c5d0       0x20 arch/arm/cpu/armv7/start.o
 .rel.text.nand_select_chip
                0x000000008086c5f0       0x20 arch/arm/cpu/armv7/start.o
 .rel.text.nand_transfer_oob
                0x000000008086c610       0x20 arch/arm/cpu/armv7/start.o
 .rel.text.nand_scan_ident
                0x000000008086c630       0xc8 arch/arm/cpu/armv7/start.o
 .rel.text.nand_scan_tail
                0x000000008086c6f8      0x158 arch/arm/cpu/armv7/start.o
 .rel.text.onfi_async_timing_mode_to_sdr_timings
                0x000000008086c850        0x0 arch/arm/cpu/armv7/start.o
 .rel.text.omap_nand_hwcontrol
                0x000000008086c850        0x8 arch/arm/cpu/armv7/start.o
 .rel.text.omap_dev_ready
                0x000000008086c858        0x8 arch/arm/cpu/armv7/start.o
 .rel.text.omap_enable_hwecc
                0x000000008086c860        0x8 arch/arm/cpu/armv7/start.o
 .rel.text.omap_calculate_ecc
                0x000000008086c868        0x8 arch/arm/cpu/armv7/start.o
 .rel.text.omap_correct_data_bch
                0x000000008086c870        0x8 arch/arm/cpu/armv7/start.o
 .rel.text.omap_nand_read_prefetch
                0x000000008086c878        0x8 arch/arm/cpu/armv7/start.o
 .rel.text.omap_correct_data
                0x000000008086c880        0x0 arch/arm/cpu/armv7/start.o
 .rel.text.omap_nand_switch_ecc
                0x000000008086c880        0x0 arch/arm/cpu/armv7/start.o
 .rel.text.board_nand_init
                0x000000008086c880       0x60 arch/arm/cpu/armv7/start.o
 .rel.text.elm_check_error
                0x000000008086c8e0       0x18 arch/arm/cpu/armv7/start.o
 .rel.text.elm_config
                0x000000008086c8f8        0x8 arch/arm/cpu/armv7/start.o
 .rel.text.elm_reset
                0x000000008086c900        0x8 arch/arm/cpu/armv7/start.o
 .rel.text.elm_init
                0x000000008086c908        0x8 arch/arm/cpu/armv7/start.o
 .rel.data.bbt_main_descr
                0x000000008086c910        0x8 arch/arm/cpu/armv7/start.o
 .rel.data.bbt_main_no_oob_descr
                0x000000008086c918        0x8 arch/arm/cpu/armv7/start.o
 .rel.data.bbt_mirror_descr
                0x000000008086c920        0x8 arch/arm/cpu/armv7/start.o
 .rel.data.bbt_mirror_no_oob_descr
                0x000000008086c928        0x8 arch/arm/cpu/armv7/start.o
 .rel.data.nand_flash_ids
                0x000000008086c930      0x2a8 arch/arm/cpu/armv7/start.o
 .rel.data.nand_manuf_ids
                0x000000008086cbd8        0x0 arch/arm/cpu/armv7/start.o
 .rel.text.spi_flash_write_common
                0x000000008086cbd8        0x8 arch/arm/cpu/armv7/start.o
 .rel.text.spi_flash_cmd_erase_ops
                0x000000008086cbe0        0x8 arch/arm/cpu/armv7/start.o
 .rel.text.spi_flash_cmd_write_ops
                0x000000008086cbe8        0x8 arch/arm/cpu/armv7/start.o
 .rel.text.spi_flash_scan
                0x000000008086cbf0       0x80 arch/arm/cpu/armv7/start.o
 .rel.rodata.spi_flash_ids
                0x000000008086cc70       0x90 arch/arm/cpu/armv7/start.o
 .rel.text.cpsw_gmii_sel_am3352
                0x000000008086cd00       0x10 arch/arm/cpu/armv7/start.o
 .rel.text.cpsw_eth_ofdata_to_platdata
                0x000000008086cd10       0xe8 arch/arm/cpu/armv7/start.o
 .rel.text.cpsw_mdio_read
                0x000000008086cdf8       0x10 arch/arm/cpu/armv7/start.o
 .rel.text.cpsw_mdio_write
                0x000000008086ce08       0x10 arch/arm/cpu/armv7/start.o
 .rel.text.cpsw_eth_send
                0x000000008086ce18        0x8 arch/arm/cpu/armv7/start.o
 .rel.text.cpsw_ale_add_mcast.constprop.9
                0x000000008086ce20       0x10 arch/arm/cpu/armv7/start.o
 .rel.text.cpsw_eth_start
                0x000000008086ce30       0x30 arch/arm/cpu/armv7/start.o
 .rel.text._cpsw_register
                0x000000008086ce60       0x18 arch/arm/cpu/armv7/start.o
 .rel.text.cpsw_am33xx_cm_get_macid
                0x000000008086ce78       0x18 arch/arm/cpu/armv7/start.o
 .rel.text.davinci_emac_3517_get_macid
                0x000000008086ce90       0x18 arch/arm/cpu/armv7/start.o
 .rel.text.ti_cm_get_macid
                0x000000008086cea8       0x38 arch/arm/cpu/armv7/start.o
 .rel.rodata.cpsw_eth_ids
                0x000000008086cee0       0x10 arch/arm/cpu/armv7/start.o
 .rel.rodata.cpsw_eth_ops
                0x000000008086cef0       0x28 arch/arm/cpu/armv7/start.o
 .rel.u_boot_list_2_driver_2_eth_cpsw
                0x000000008086cf18       0x28 arch/arm/cpu/armv7/start.o
 .rel.text.genphy_update_link
                0x000000008086cf40       0x28 arch/arm/cpu/armv7/start.o
 .rel.text.phy_register
                0x000000008086cf68        0x8 arch/arm/cpu/armv7/start.o
 .rel.text.get_phy_device_by_mask
                0x000000008086cf70       0x18 arch/arm/cpu/armv7/start.o
 .rel.text.phy_reset
                0x000000008086cf88        0x8 arch/arm/cpu/armv7/start.o
 .rel.text.phy_connect_dev
                0x000000008086cf90        0x8 arch/arm/cpu/armv7/start.o
 .rel.text.phy_connect
                0x000000008086cf98        0x8 arch/arm/cpu/armv7/start.o
 .rel.text.phy_get_interface_by_name
                0x000000008086cfa0        0x8 arch/arm/cpu/armv7/start.o
 .rel.text.phy_atheros_init
                0x000000008086cfa8       0x18 arch/arm/cpu/armv7/start.o
 .rel.text.phy_smsc_init
                0x000000008086cfc0       0x28 arch/arm/cpu/armv7/start.o
 .rel.rodata.phy_interface_strings
                0x000000008086cfe8       0x88 arch/arm/cpu/armv7/start.o
 .rel.data.genphy_driver
                0x000000008086d070       0x20 arch/arm/cpu/armv7/start.o
 .rel.data.phy_drivers
                0x000000008086d090       0x10 arch/arm/cpu/armv7/start.o
 .rel.data.AR8021_driver
                0x000000008086d0a0       0x20 arch/arm/cpu/armv7/start.o
 .rel.data.AR8031_driver
                0x000000008086d0c0       0x20 arch/arm/cpu/armv7/start.o
 .rel.data.AR8035_driver
                0x000000008086d0e0       0x20 arch/arm/cpu/armv7/start.o
 .rel.data.lan8700_driver
                0x000000008086d100       0x20 arch/arm/cpu/armv7/start.o
 .rel.data.lan8710_driver
                0x000000008086d120       0x20 arch/arm/cpu/armv7/start.o
 .rel.data.lan8740_driver
                0x000000008086d140       0x20 arch/arm/cpu/armv7/start.o
 .rel.data.lan8742_driver
                0x000000008086d160       0x20 arch/arm/cpu/armv7/start.o
 .rel.data.lan911x_driver
                0x000000008086d180       0x20 arch/arm/cpu/armv7/start.o
 .rel.text.serial_post_probe
                0x000000008086d1a0       0x20 arch/arm/cpu/armv7/start.o
 .rel.text.serial_init
                0x000000008086d1c0       0x18 arch/arm/cpu/armv7/start.o
 .rel.text.on_baudrate
                0x000000008086d1d8       0x18 arch/arm/cpu/armv7/start.o
 .rel.text.ns16550_serial_ofdata_to_platdata
                0x000000008086d1f0       0x18 arch/arm/cpu/armv7/start.o
 .rel.rodata.ns16550_serial_ids
                0x000000008086d208       0x58 arch/arm/cpu/armv7/start.o
 .rel.rodata.ns16550_serial_ops
                0x000000008086d260       0x20 arch/arm/cpu/armv7/start.o
 .rel.u_boot_list_2_env_clbk_2_baudrate
                0x000000008086d280       0x10 arch/arm/cpu/armv7/start.o
 .rel.u_boot_list_2_uclass_2_serial
                0x000000008086d290       0x18 arch/arm/cpu/armv7/start.o
 .rel.u_boot_list_2_driver_2_ns16550_serial
                0x000000008086d2a8       0x28 arch/arm/cpu/armv7/start.o
 .rel.text.spi_set_wordlen
                0x000000008086d2d0        0x0 arch/arm/cpu/armv7/start.o
 .rel.text.spi_setup_slave
                0x000000008086d2d0       0x28 arch/arm/cpu/armv7/start.o
 .rel.text.spi_xfer
                0x000000008086d2f8       0x18 arch/arm/cpu/armv7/start.o
 .rel.text.usb_get_dr_mode
                0x000000008086d310       0x18 arch/arm/cpu/armv7/start.o
 .rel.rodata.usb_dr_modes
                0x000000008086d328       0x20 arch/arm/cpu/armv7/start.o
 .rel.text.usb_ep_autoconfig
                0x000000008086d348        0x8 arch/arm/cpu/armv7/start.o
 .rel.text.usb_ep_autoconfig_reset
                0x000000008086d350        0x8 arch/arm/cpu/armv7/start.o
 .rel.text.composite_suspend
                0x000000008086d358        0x8 arch/arm/cpu/armv7/start.o
 .rel.text.composite_resume
                0x000000008086d360        0x8 arch/arm/cpu/armv7/start.o
 .rel.text.composite_unbind
                0x000000008086d368       0x28 arch/arm/cpu/armv7/start.o
 .rel.text.composite_bind
                0x000000008086d390       0x10 arch/arm/cpu/armv7/start.o
 .rel.text.g_dnl_do_config
                0x000000008086d3a0       0x10 arch/arm/cpu/armv7/start.o
 .rel.text.composite_disconnect
                0x000000008086d3b0        0x8 arch/arm/cpu/armv7/start.o
 .rel.text.composite_setup
                0x000000008086d3b8       0x10 arch/arm/cpu/armv7/start.o
 .rel.text.usb_composite_register
                0x000000008086d3c8       0x18 arch/arm/cpu/armv7/start.o
 .rel.text.usb_composite_unregister
                0x000000008086d3e0       0x10 arch/arm/cpu/armv7/start.o
 .rel.text.g_dnl_set_serialnumber
                0x000000008086d3f0        0x8 arch/arm/cpu/armv7/start.o
 .rel.text.g_dnl_bind
                0x000000008086d3f8       0x30 arch/arm/cpu/armv7/start.o
 .rel.text.g_dnl_detach
                0x000000008086d428        0x8 arch/arm/cpu/armv7/start.o
 .rel.text.g_dnl_trigger_detach
                0x000000008086d430        0x8 arch/arm/cpu/armv7/start.o
 .rel.text.g_dnl_clear_detach
                0x000000008086d438        0x8 arch/arm/cpu/armv7/start.o
 .rel.text.g_dnl_register
                0x000000008086d440       0x18 arch/arm/cpu/armv7/start.o
 .rel.text.g_dnl_unregister
                0x000000008086d458        0x8 arch/arm/cpu/armv7/start.o
 .rel.text.dfu_add
                0x000000008086d460       0x58 arch/arm/cpu/armv7/start.o
 .rel.text.dfu_handle
                0x000000008086d4b8       0x10 arch/arm/cpu/armv7/start.o
 .rel.text.dnload_request_flush
                0x000000008086d4c8        0x8 arch/arm/cpu/armv7/start.o
 .rel.text.dfu_bind
                0x000000008086d4d0       0x28 arch/arm/cpu/armv7/start.o
 .rel.text.state_dfu_manifest_sync
                0x000000008086d4f8        0x8 arch/arm/cpu/armv7/start.o
 .rel.text.state_dfu_dnload_idle
                0x000000008086d500        0x8 arch/arm/cpu/armv7/start.o
 .rel.text.state_app_idle
                0x000000008086d508        0x8 arch/arm/cpu/armv7/start.o
 .rel.text.state_dfu_manifest
                0x000000008086d510        0x8 arch/arm/cpu/armv7/start.o
 .rel.text.state_dfu_idle
                0x000000008086d518       0x10 arch/arm/cpu/armv7/start.o
 .rel.text.rx_bytes_expected
                0x000000008086d528       0x10 arch/arm/cpu/armv7/start.o
 .rel.text.fastboot_unbind
                0x000000008086d538        0x8 arch/arm/cpu/armv7/start.o
 .rel.text.fastboot_add
                0x000000008086d540       0x38 arch/arm/cpu/armv7/start.o
 .rel.text.fastboot_set_alt
                0x000000008086d578       0x50 arch/arm/cpu/armv7/start.o
 .rel.text.fastboot_complete
                0x000000008086d5c8        0x8 arch/arm/cpu/armv7/start.o
 .rel.text.do_bootm_on_complete
                0x000000008086d5d0       0x18 arch/arm/cpu/armv7/start.o
 .rel.text.fastboot_tx_write_str
                0x000000008086d5e8       0x10 arch/arm/cpu/armv7/start.o
 .rel.text.rx_handler_command
                0x000000008086d5f8       0x28 arch/arm/cpu/armv7/start.o
 .rel.text.cb_oem
                0x000000008086d620       0x18 arch/arm/cpu/armv7/start.o
 .rel.text.cb_continue
                0x000000008086d638       0x18 arch/arm/cpu/armv7/start.o
 .rel.text.cb_boot
                0x000000008086d650       0x18 arch/arm/cpu/armv7/start.o
 .rel.text.cb_download
                0x000000008086d668       0x40 arch/arm/cpu/armv7/start.o
 .rel.text.rx_handler_dl_image
                0x000000008086d6a8       0x30 arch/arm/cpu/armv7/start.o
 .rel.text.cb_getvar
                0x000000008086d6d8       0x98 arch/arm/cpu/armv7/start.o
 .rel.text.fastboot_bind
                0x000000008086d770       0x48 arch/arm/cpu/armv7/start.o
 .rel.text.fastboot_fail
                0x000000008086d7b8        0x0 arch/arm/cpu/armv7/start.o
 .rel.text.fastboot_okay
                0x000000008086d7b8        0x0 arch/arm/cpu/armv7/start.o
 .rel.text.cb_reboot
                0x000000008086d7b8       0x28 arch/arm/cpu/armv7/start.o
 .rel.text.tx_complete
                0x000000008086d7e0        0x8 arch/arm/cpu/armv7/start.o
 .rel.text.usb_eth_recv
                0x000000008086d7e8       0x18 arch/arm/cpu/armv7/start.o
 .rel.text.rx_complete
                0x000000008086d800        0x8 arch/arm/cpu/armv7/start.o
 .rel.text.usb_eth_send
                0x000000008086d808       0x20 arch/arm/cpu/armv7/start.o
 .rel.text.rndis_command_complete
                0x000000008086d828       0x10 arch/arm/cpu/armv7/start.o
 .rel.text.rndis_control_ack_complete
                0x000000008086d838        0x8 arch/arm/cpu/armv7/start.o
 .rel.text.rndis_control_ack
                0x000000008086d840       0x10 arch/arm/cpu/armv7/start.o
 .rel.text.nibble
                0x000000008086d850        0x8 arch/arm/cpu/armv7/start.o
 .rel.text.eth_bind
                0x000000008086d858      0x128 arch/arm/cpu/armv7/start.o
 .rel.text.usb_eth_probe
                0x000000008086d980       0x18 arch/arm/cpu/armv7/start.o
 .rel.text.set_ether_config.isra.5
                0x000000008086d998       0x38 arch/arm/cpu/armv7/start.o
 .rel.text.rx_submit.constprop.8
                0x000000008086d9d0       0x18 arch/arm/cpu/armv7/start.o
 .rel.text.usb_eth_free_pkt
                0x000000008086d9e8        0x8 arch/arm/cpu/armv7/start.o
 .rel.text.eth_setup
                0x000000008086d9f0       0x98 arch/arm/cpu/armv7/start.o
 .rel.text.dm_usb_init
                0x000000008086da88        0x8 arch/arm/cpu/armv7/start.o
 .rel.text.usb_eth_start
                0x000000008086da90       0x90 arch/arm/cpu/armv7/start.o
 .rel.text.usb_ether_init
                0x000000008086db20       0x18 arch/arm/cpu/armv7/start.o
 .rel.text.rndis_add_response
                0x000000008086db38        0x8 arch/arm/cpu/armv7/start.o
 .rel.text.rndis_signal_connect
                0x000000008086db40        0x8 arch/arm/cpu/armv7/start.o
 .rel.text.rndis_signal_disconnect
                0x000000008086db48        0x8 arch/arm/cpu/armv7/start.o
 .rel.text.rndis_set_host_mac
                0x000000008086db50        0x8 arch/arm/cpu/armv7/start.o
 .rel.text.rndis_get_state
                0x000000008086db58        0x8 arch/arm/cpu/armv7/start.o
 .rel.text.rndis_msg_parser
                0x000000008086db60       0x18 arch/arm/cpu/armv7/start.o
 .rel.text.rndis_register
                0x000000008086db78        0x8 arch/arm/cpu/armv7/start.o
 .rel.text.rndis_deregister
                0x000000008086db80        0x8 arch/arm/cpu/armv7/start.o
 .rel.text.rndis_set_param_dev
                0x000000008086db88        0x8 arch/arm/cpu/armv7/start.o
 .rel.text.rndis_set_param_vendor
                0x000000008086db90        0x8 arch/arm/cpu/armv7/start.o
 .rel.text.rndis_set_param_medium
                0x000000008086db98        0x8 arch/arm/cpu/armv7/start.o
 .rel.text.rndis_free_response
                0x000000008086dba0        0x8 arch/arm/cpu/armv7/start.o
 .rel.text.rndis_get_next_response
                0x000000008086dba8        0x8 arch/arm/cpu/armv7/start.o
 .rel.text.rndis_uninit
                0x000000008086dbb0        0x8 arch/arm/cpu/armv7/start.o
 .rel.text.rndis_init
                0x000000008086dbb8        0x8 arch/arm/cpu/armv7/start.o
 .rel.rodata.dfu_state
                0x000000008086dbc0       0x50 arch/arm/cpu/armv7/start.o
 .rel.rodata.cmd_dispatch_info
                0x000000008086dc10       0x60 arch/arm/cpu/armv7/start.o
 .rel.rodata.usb_eth_ops
                0x000000008086dc70       0x28 arch/arm/cpu/armv7/start.o
 .rel.data.composite_driver
                0x000000008086dc98       0x38 arch/arm/cpu/armv7/start.o
 .rel.data.g_dnl_composite_strings
                0x000000008086dcd0        0x8 arch/arm/cpu/armv7/start.o
 .rel.data.g_dnl_driver
                0x000000008086dcd8       0x20 arch/arm/cpu/armv7/start.o
 .rel.data.g_dnl_string_defs
                0x000000008086dcf8       0x18 arch/arm/cpu/armv7/start.o
 .rel.data.g_dnl_string_tab
                0x000000008086dd10        0x8 arch/arm/cpu/armv7/start.o
 .rel.u_boot_list_2_env_clbk_2_serialno
                0x000000008086dd18       0x10 arch/arm/cpu/armv7/start.o
 .rel.data.dfu_generic_strings
                0x000000008086dd28        0x8 arch/arm/cpu/armv7/start.o
 .rel.data.dfu_runtime_descs
                0x000000008086dd30        0x8 arch/arm/cpu/armv7/start.o
 .rel.data.dfu_strings
                0x000000008086dd38        0x8 arch/arm/cpu/armv7/start.o
 .rel.data.strings_dfu_generic
                0x000000008086dd40        0x8 arch/arm/cpu/armv7/start.o
 .rel.data.stringtab_dfu_generic
                0x000000008086dd48        0x8 arch/arm/cpu/armv7/start.o
 .rel.u_boot_list_2_g_dnl_bind_callbacks_2___usb_function_name_usb_dnl_dfu
                0x000000008086dd50       0x10 arch/arm/cpu/armv7/start.o
 .rel.data.fastboot_string_defs
                0x000000008086dd60        0x8 arch/arm/cpu/armv7/start.o
 .rel.data.fastboot_strings
                0x000000008086dd68        0x8 arch/arm/cpu/armv7/start.o
 .rel.data.fb_fs_function
                0x000000008086dd70       0x18 arch/arm/cpu/armv7/start.o
 .rel.data.fb_hs_function
                0x000000008086dd88       0x18 arch/arm/cpu/armv7/start.o
 .rel.data.stringtab_fastboot
                0x000000008086dda0        0x8 arch/arm/cpu/armv7/start.o
 .rel.u_boot_list_2_g_dnl_bind_callbacks_2___usb_function_name_usb_dnl_fastboot
                0x000000008086dda8       0x10 arch/arm/cpu/armv7/start.o
 .rel.data.fs_eth_function
                0x000000008086ddb8        0x8 arch/arm/cpu/armv7/start.o
 .rel.data.fs_rndis_function
                0x000000008086ddc0       0x50 arch/arm/cpu/armv7/start.o
 .rel.data.hs_eth_function
                0x000000008086de10        0x8 arch/arm/cpu/armv7/start.o
 .rel.data.hs_rndis_function
                0x000000008086de18       0x50 arch/arm/cpu/armv7/start.o
 .rel.data.l_priv
                0x000000008086de68        0x8 arch/arm/cpu/armv7/start.o
 .rel.data.strings
                0x000000008086de70       0x38 arch/arm/cpu/armv7/start.o
 .rel.data.stringtab
                0x000000008086dea8        0x8 arch/arm/cpu/armv7/start.o
 .rel.u_boot_list_2_driver_2_eth_usb
                0x000000008086deb0       0x18 arch/arm/cpu/armv7/start.o
 .rel.text.usb_child_post_bind
                0x000000008086dec8       0x10 arch/arm/cpu/armv7/start.o
 .rel.text.usb_disable_asynch
                0x000000008086ded8        0x8 arch/arm/cpu/armv7/start.o
 .rel.text.usb_stop
                0x000000008086dee0        0x8 arch/arm/cpu/armv7/start.o
 .rel.text.usb_scan_device
                0x000000008086dee8       0x20 arch/arm/cpu/armv7/start.o
 .rel.text.usb_scan_bus.isra.3
                0x000000008086df08       0x20 arch/arm/cpu/armv7/start.o
 .rel.text.usb_init
                0x000000008086df28       0x38 arch/arm/cpu/armv7/start.o
 .rel.u_boot_list_2_driver_2_usb_dev_generic_drv
                0x000000008086df60        0x8 arch/arm/cpu/armv7/start.o
 .rel.u_boot_list_2_uclass_2_usb
                0x000000008086df68       0x20 arch/arm/cpu/armv7/start.o
 .rel.u_boot_list_2_uclass_2_usb_dev_generic
                0x000000008086df88        0x8 arch/arm/cpu/armv7/start.o
 .rel.text.init_peripheral_ep
                0x000000008086df90       0x30 arch/arm/cpu/armv7/start.o
 .rel.text.musb_gadget_setup
                0x000000008086dfc0       0x10 arch/arm/cpu/armv7/start.o
 .rel.text.musb_g_ep0_irq
                0x000000008086dfd0       0x88 arch/arm/cpu/armv7/start.o
 .rel.text.musb_load_testpacket
                0x000000008086e058        0x8 arch/arm/cpu/armv7/start.o
 .rel.text.musb_init_controller
                0x000000008086e060       0xc0 arch/arm/cpu/armv7/start.o
 .rel.text.construct_urb
                0x000000008086e120        0x8 arch/arm/cpu/armv7/start.o
 .rel.text.musb_create_int_queue
                0x000000008086e128       0x18 arch/arm/cpu/armv7/start.o
 .rel.text.submit_urb
                0x000000008086e140        0x8 arch/arm/cpu/armv7/start.o
 .rel.text.musb_lowlevel_init
                0x000000008086e148        0x8 arch/arm/cpu/armv7/start.o
 .rel.text.usb_gadget_handle_interrupts
                0x000000008086e150        0x8 arch/arm/cpu/armv7/start.o
 .rel.text.usb_gadget_register_driver
                0x000000008086e158       0x28 arch/arm/cpu/armv7/start.o
 .rel.text.usb_gadget_unregister_driver
                0x000000008086e180        0x8 arch/arm/cpu/armv7/start.o
 .rel.text.musb_register
                0x000000008086e188        0x0 arch/arm/cpu/armv7/start.o
 .rel.text.musb_h_tx_flush_fifo
                0x000000008086e188        0x8 arch/arm/cpu/armv7/start.o
 .rel.text.musb_h_ep0_flush_fifo
                0x000000008086e190        0x8 arch/arm/cpu/armv7/start.o
 .rel.text.musb_start_urb
                0x000000008086e198       0x20 arch/arm/cpu/armv7/start.o
 .rel.text.musb_h_ep0_irq
                0x000000008086e1b8       0x20 arch/arm/cpu/armv7/start.o
 .rel.text.musb_host_rx
                0x000000008086e1d8       0x10 arch/arm/cpu/armv7/start.o
 .rel.text.dsps_musb_init
                0x000000008086e1e8        0x8 arch/arm/cpu/armv7/start.o
 .rel.text.ti_musb_host_ofdata_to_platdata
                0x000000008086e1f0       0x50 arch/arm/cpu/armv7/start.o
 .rel.text.ti_musb_wrapper_bind
                0x000000008086e240       0x18 arch/arm/cpu/armv7/start.o
 .rel.rodata.musb_ep_ops
                0x000000008086e258       0x48 arch/arm/cpu/armv7/start.o
 .rel.rodata.musb_gadget_operations
                0x000000008086e2a0       0x28 arch/arm/cpu/armv7/start.o
 .rel.rodata.CSWTCH.19
                0x000000008086e2c8       0x38 arch/arm/cpu/armv7/start.o
 .rel.rodata.musb_g_ep0_ops
                0x000000008086e300       0x38 arch/arm/cpu/armv7/start.o
 .rel.rodata.ti_musb_ids
                0x000000008086e338        0x8 arch/arm/cpu/armv7/start.o
 .rel.data.musb_usb_ops
                0x000000008086e340       0x38 arch/arm/cpu/armv7/start.o
 .rel.data.musb_dsps_ops
                0x000000008086e378       0x20 arch/arm/cpu/armv7/start.o
 .rel.u_boot_list_2_driver_2_ti_musb_host
                0x000000008086e398       0x28 arch/arm/cpu/armv7/start.o
 .rel.u_boot_list_2_driver_2_ti_musb_wrapper
                0x000000008086e3c0       0x18 arch/arm/cpu/armv7/start.o
 .rel.text.set_default_env
                0x000000008086e3d8       0x30 arch/arm/cpu/armv7/start.o
 .rel.text.set_default_vars
                0x000000008086e408       0x10 arch/arm/cpu/armv7/start.o
 .rel.text.env_import
                0x000000008086e418       0x28 arch/arm/cpu/armv7/start.o
 .rel.text.env_export
                0x000000008086e440       0x18 arch/arm/cpu/armv7/start.o
 .rel.text.env_relocate
                0x000000008086e458        0x8 arch/arm/cpu/armv7/start.o
 .rel.text.env_complete
                0x000000008086e460       0x18 arch/arm/cpu/armv7/start.o
 .rel.text.env_driver_lookup_default
                0x000000008086e478       0x10 arch/arm/cpu/armv7/start.o
 .rel.text.env_get_char
                0x000000008086e488        0x8 arch/arm/cpu/armv7/start.o
 .rel.text.env_init
                0x000000008086e490        0x8 arch/arm/cpu/armv7/start.o
 .rel.text.regex_callback
                0x000000008086e498       0x10 arch/arm/cpu/armv7/start.o
 .rel.text.env_attr_lookup
                0x000000008086e4a8        0x8 arch/arm/cpu/armv7/start.o
 .rel.text.find_env_callback
                0x000000008086e4b0       0x10 arch/arm/cpu/armv7/start.o
 .rel.text.on_callbacks
                0x000000008086e4c0       0x20 arch/arm/cpu/armv7/start.o
 .rel.text.set_callback
                0x000000008086e4e0        0x8 arch/arm/cpu/armv7/start.o
 .rel.text.env_callback_init
                0x000000008086e4e8       0x20 arch/arm/cpu/armv7/start.o
 .rel.text.skip_num
                0x000000008086e508        0x8 arch/arm/cpu/armv7/start.o
 .rel.text.on_flags
                0x000000008086e510       0x20 arch/arm/cpu/armv7/start.o
 .rel.text.env_flags_parse_vartype
                0x000000008086e530       0x10 arch/arm/cpu/armv7/start.o
 .rel.text.env_flags_parse_varaccess
                0x000000008086e540       0x10 arch/arm/cpu/armv7/start.o
 .rel.text.set_flags
                0x000000008086e550       0x10 arch/arm/cpu/armv7/start.o
 .rel.text.env_flags_parse_varaccess_from_binflags
                0x000000008086e560        0x0 arch/arm/cpu/armv7/start.o
 .rel.text.env_flags_init
                0x000000008086e560       0x30 arch/arm/cpu/armv7/start.o
 .rel.text.env_flags_validate
                0x000000008086e590       0x38 arch/arm/cpu/armv7/start.o
 .rel.text.env_fat_save
                0x000000008086e5c8       0x30 arch/arm/cpu/armv7/start.o
 .rel.text.env_fat_load
                0x000000008086e5f8       0x28 arch/arm/cpu/armv7/start.o
 .rel.data.env_htab
                0x000000008086e620        0x8 arch/arm/cpu/armv7/start.o
 .rel.u_boot_list_2_env_clbk_2_callbacks
                0x000000008086e628       0x10 arch/arm/cpu/armv7/start.o
 .rel.u_boot_list_2_env_clbk_2_flags
                0x000000008086e638       0x10 arch/arm/cpu/armv7/start.o
 .rel.u_boot_list_2_env_driver_2_fat
                0x000000008086e648       0x18 arch/arm/cpu/armv7/start.o
 .rel.text.fs_probe_unsupported
                0x000000008086e660        0x8 arch/arm/cpu/armv7/start.o
 .rel.text.fs_get_info
                0x000000008086e668        0x8 arch/arm/cpu/armv7/start.o
 .rel.text.fs_close
                0x000000008086e670        0x8 arch/arm/cpu/armv7/start.o
 .rel.text.fs_set_blk_dev
                0x000000008086e678       0x30 arch/arm/cpu/armv7/start.o
 .rel.text.fs_set_blk_dev_with_part
                0x000000008086e6a8       0x20 arch/arm/cpu/armv7/start.o
 .rel.text.fs_uuid
                0x000000008086e6c8        0x0 arch/arm/cpu/armv7/start.o
 .rel.text.fs_ls
                0x000000008086e6c8        0x8 arch/arm/cpu/armv7/start.o
 .rel.text.fs_exists
                0x000000008086e6d0        0x8 arch/arm/cpu/armv7/start.o
 .rel.text.fs_size
                0x000000008086e6d8        0x8 arch/arm/cpu/armv7/start.o
 .rel.text.fs_read
                0x000000008086e6e0       0x10 arch/arm/cpu/armv7/start.o
 .rel.text.fs_write
                0x000000008086e6f0       0x10 arch/arm/cpu/armv7/start.o
 .rel.text.fs_opendir
                0x000000008086e700       0x20 arch/arm/cpu/armv7/start.o
 .rel.text.fs_readdir
                0x000000008086e720       0x10 arch/arm/cpu/armv7/start.o
 .rel.text.fs_closedir
                0x000000008086e730        0x8 arch/arm/cpu/armv7/start.o
 .rel.text.fs_ls_generic
                0x000000008086e738       0x20 arch/arm/cpu/armv7/start.o
 .rel.text.do_size
                0x000000008086e758        0x8 arch/arm/cpu/armv7/start.o
 .rel.text.do_load
                0x000000008086e760       0x50 arch/arm/cpu/armv7/start.o
 .rel.text.do_ls
                0x000000008086e7b0        0x8 arch/arm/cpu/armv7/start.o
 .rel.text.do_save
                0x000000008086e7b8       0x28 arch/arm/cpu/armv7/start.o
 .rel.text.do_fs_uuid
                0x000000008086e7e0        0x0 arch/arm/cpu/armv7/start.o
 .rel.text.do_fs_type
                0x000000008086e7e0       0x10 arch/arm/cpu/armv7/start.o
 .rel.text.get_fs
                0x000000008086e7f0        0x8 arch/arm/cpu/armv7/start.o
 .rel.text.ext4fs_free_node
                0x000000008086e7f8        0x8 arch/arm/cpu/armv7/start.o
 .rel.text.ext4fs_read_file
                0x000000008086e800        0x8 arch/arm/cpu/armv7/start.o
 .rel.text.ext4fs_ls
                0x000000008086e808       0x10 arch/arm/cpu/armv7/start.o
 .rel.text.ext4fs_read
                0x000000008086e818       0x10 arch/arm/cpu/armv7/start.o
 .rel.text.ext4_read_file
                0x000000008086e828        0x8 arch/arm/cpu/armv7/start.o
 .rel.text.ext4fs_uuid
                0x000000008086e830        0x8 arch/arm/cpu/armv7/start.o
 .rel.text.put_ext4
                0x000000008086e838       0x20 arch/arm/cpu/armv7/start.o
 .rel.text.ext4fs_set_block_bmap
                0x000000008086e858        0x8 arch/arm/cpu/armv7/start.o
 .rel.text.ext4fs_reset_block_bmap
                0x000000008086e860        0x8 arch/arm/cpu/armv7/start.o
 .rel.text.ext4fs_set_inode_bmap
                0x000000008086e868        0x8 arch/arm/cpu/armv7/start.o
 .rel.text.ext4fs_reset_inode_bmap
                0x000000008086e870        0x8 arch/arm/cpu/armv7/start.o
 .rel.text.ext4fs_get_new_blk_no
                0x000000008086e878       0x10 arch/arm/cpu/armv7/start.o
 .rel.text.ext4fs_get_new_inode_no
                0x000000008086e888       0x10 arch/arm/cpu/armv7/start.o
 .rel.text.ext4fs_allocate_blocks
                0x000000008086e898       0x30 arch/arm/cpu/armv7/start.o
 .rel.text.ext4fs_iget
                0x000000008086e8c8        0x8 arch/arm/cpu/armv7/start.o
 .rel.text.read_allocated_block
                0x000000008086e8d0       0xc8 arch/arm/cpu/armv7/start.o
 .rel.text.ext4fs_update_parent_dentry
                0x000000008086e998       0x48 arch/arm/cpu/armv7/start.o
 .rel.text.search_dir
                0x000000008086e9e0        0x8 arch/arm/cpu/armv7/start.o
 .rel.text.ext4fs_get_parent_inode_num
                0x000000008086e9e8       0x28 arch/arm/cpu/armv7/start.o
 .rel.text.ext4fs_filename_unlink
                0x000000008086ea10       0x18 arch/arm/cpu/armv7/start.o
 .rel.text.ext4fs_reinit_global
                0x000000008086ea28       0x48 arch/arm/cpu/armv7/start.o
 .rel.text.ext4fs_close
                0x000000008086ea70       0x10 arch/arm/cpu/armv7/start.o
 .rel.text.ext4fs_iterate_dir
                0x000000008086ea80       0x30 arch/arm/cpu/armv7/start.o
 .rel.text.ext4fs_find_file1
                0x000000008086eab0       0x10 arch/arm/cpu/armv7/start.o
 .rel.text.ext4fs_find_file
                0x000000008086eac0        0x8 arch/arm/cpu/armv7/start.o
 .rel.text.ext4fs_open
                0x000000008086eac8       0x10 arch/arm/cpu/armv7/start.o
 .rel.text.ext4fs_mount
                0x000000008086ead8       0x10 arch/arm/cpu/armv7/start.o
 .rel.text.ext4fs_set_blk_dev
                0x000000008086eae8       0x10 arch/arm/cpu/armv7/start.o
 .rel.text.ext4fs_devread
                0x000000008086eaf8        0x8 arch/arm/cpu/armv7/start.o
 .rel.text.ext4fs_update
                0x000000008086eb00       0x10 arch/arm/cpu/armv7/start.o
 .rel.text.ext4fs_get_bgdtable
                0x000000008086eb10        0x8 arch/arm/cpu/armv7/start.o
 .rel.text.ext4fs_deinit
                0x000000008086eb18        0x8 arch/arm/cpu/armv7/start.o
 .rel.text.ext4fs_init
                0x000000008086eb20       0x10 arch/arm/cpu/armv7/start.o
 .rel.text.ext4fs_write
                0x000000008086eb30       0x88 arch/arm/cpu/armv7/start.o
 .rel.text.ext4_write_file
                0x000000008086ebb8       0x10 arch/arm/cpu/armv7/start.o
 .rel.text.ext4fs_dump_metadata
                0x000000008086ebc8        0x8 arch/arm/cpu/armv7/start.o
 .rel.text.ext4fs_free_journal
                0x000000008086ebd0       0x28 arch/arm/cpu/armv7/start.o
 .rel.text.ext4fs_log_gdt
                0x000000008086ebf8       0x10 arch/arm/cpu/armv7/start.o
 .rel.text.ext4fs_log_journal
                0x000000008086ec08       0x20 arch/arm/cpu/armv7/start.o
 .rel.text.ext4fs_put_metadata
                0x000000008086ec28       0x20 arch/arm/cpu/armv7/start.o
 .rel.text.print_revoke_blks
                0x000000008086ec48        0x0 arch/arm/cpu/armv7/start.o
 .rel.text.ext4fs_push_revoke_blk
                0x000000008086ec48       0x28 arch/arm/cpu/armv7/start.o
 .rel.text.ext4fs_free_revoke_blks
                0x000000008086ec70       0x18 arch/arm/cpu/armv7/start.o
 .rel.text.check_blknr_for_revoke
                0x000000008086ec88        0x8 arch/arm/cpu/armv7/start.o
 .rel.text.recover_transaction
                0x000000008086ec90       0x10 arch/arm/cpu/armv7/start.o
 .rel.text.print_jrnl_status
                0x000000008086eca0       0x10 arch/arm/cpu/armv7/start.o
 .rel.text.ext4fs_check_journal_state
                0x000000008086ecb0       0x18 arch/arm/cpu/armv7/start.o
 .rel.text.ext4fs_init_journal
                0x000000008086ecc8       0x38 arch/arm/cpu/armv7/start.o
 .rel.text.ext4fs_update_journal
                0x000000008086ed00       0x20 arch/arm/cpu/armv7/start.o
 .rel.text.ext2fs_crc16
                0x000000008086ed20        0x8 arch/arm/cpu/armv7/start.o
 .rel.text.downcase
                0x000000008086ed28        0x8 arch/arm/cpu/armv7/start.o
 .rel.text.disk_read
                0x000000008086ed30       0x10 arch/arm/cpu/armv7/start.o
 .rel.text.disk_write
                0x000000008086ed40       0x20 arch/arm/cpu/armv7/start.o
 .rel.text.flush_dirty_fat_buffer
                0x000000008086ed60        0x8 arch/arm/cpu/armv7/start.o
 .rel.text.get_fatent
                0x000000008086ed68        0x8 arch/arm/cpu/armv7/start.o
 .rel.text.get_cluster
                0x000000008086ed70        0x8 arch/arm/cpu/armv7/start.o
 .rel.text.set_cluster
                0x000000008086ed78        0x8 arch/arm/cpu/armv7/start.o
 .rel.text.read_bootsectandvi
                0x000000008086ed80       0x20 arch/arm/cpu/armv7/start.o
 .rel.text.fat_itr_root
                0x000000008086eda0       0x10 arch/arm/cpu/armv7/start.o
 .rel.text.set_name
                0x000000008086edb0        0x8 arch/arm/cpu/armv7/start.o
 .rel.text.check_overflow
                0x000000008086edb8        0x8 arch/arm/cpu/armv7/start.o
 .rel.text.flush_dir_table.constprop.8
                0x000000008086edc0       0x20 arch/arm/cpu/armv7/start.o
 .rel.text.do_fat_write
                0x000000008086ede0       0xb0 arch/arm/cpu/armv7/start.o
 .rel.text.fat_set_blk_dev
                0x000000008086ee90       0x28 arch/arm/cpu/armv7/start.o
 .rel.text.fat_register_device
                0x000000008086eeb8        0x0 arch/arm/cpu/armv7/start.o
 .rel.text.file_fat_detectfs
                0x000000008086eeb8       0x70 arch/arm/cpu/armv7/start.o
 .rel.text.file_fat_read_at
                0x000000008086ef28       0x20 arch/arm/cpu/armv7/start.o
 .rel.text.fat_read_file
                0x000000008086ef48        0x8 arch/arm/cpu/armv7/start.o
 .rel.text.file_fat_write
                0x000000008086ef50       0x10 arch/arm/cpu/armv7/start.o
 .rel.text.fs_devread
                0x000000008086ef60       0x30 arch/arm/cpu/armv7/start.o
 .rel.data.fstypes
                0x000000008086ef90      0x100 arch/arm/cpu/armv7/start.o
 .rel.text.efi_load_pe
                0x000000008086f090       0x38 arch/arm/cpu/armv7/start.o
 .rel.text.indent_string
                0x000000008086f0c8        0x8 arch/arm/cpu/armv7/start.o
 .rel.text.efi_uninstall_protocol_interface.isra.0.part.1
                0x000000008086f0d0        0x8 arch/arm/cpu/armv7/start.o
 .rel.text.efi_install_protocol_interface
                0x000000008086f0d8        0x8 arch/arm/cpu/armv7/start.o
 .rel.text.efi_locate_handle.isra.4
                0x000000008086f0e0        0x8 arch/arm/cpu/armv7/start.o
 .rel.text.__efi_entry_check
                0x000000008086f0e8       0x18 arch/arm/cpu/armv7/start.o
 .rel.text.__efi_exit_check
                0x000000008086f100       0x10 arch/arm/cpu/armv7/start.o
 .rel.text.efi_locate_protocol
                0x000000008086f110        0x8 arch/arm/cpu/armv7/start.o
 .rel.text.efi_protocols_per_handle
                0x000000008086f118        0x8 arch/arm/cpu/armv7/start.o
 .rel.text.efi_open_protocol
                0x000000008086f120        0x8 arch/arm/cpu/armv7/start.o
 .rel.text.efi_get_next_monotonic_count
                0x000000008086f128        0x8 arch/arm/cpu/armv7/start.o
 .rel.text.efi_unload_image
                0x000000008086f130        0x8 arch/arm/cpu/armv7/start.o
 .rel.text.efi_close_event
                0x000000008086f138        0x8 arch/arm/cpu/armv7/start.o
 .rel.text.efi_restore_tpl
                0x000000008086f140        0x8 arch/arm/cpu/armv7/start.o
 .rel.text.efi_raise_tpl
                0x000000008086f148        0x8 arch/arm/cpu/armv7/start.o
 .rel.text.efi_save_gd
                0x000000008086f150        0x8 arch/arm/cpu/armv7/start.o
 .rel.text.efi_restore_gd
                0x000000008086f158        0x8 arch/arm/cpu/armv7/start.o
 .rel.text.__efi_nesting
                0x000000008086f160        0x0 arch/arm/cpu/armv7/start.o
 .rel.text.__efi_nesting_inc
                0x000000008086f160        0x8 arch/arm/cpu/armv7/start.o
 .rel.text.__efi_nesting_dec
                0x000000008086f168        0x8 arch/arm/cpu/armv7/start.o
 .rel.text.efi_start_image
                0x000000008086f170       0x10 arch/arm/cpu/armv7/start.o
 .rel.text.efi_signal_event
                0x000000008086f180        0x8 arch/arm/cpu/armv7/start.o
 .rel.text.efi_exit_boot_services
                0x000000008086f188       0x18 arch/arm/cpu/armv7/start.o
 .rel.text.efi_signal_event_ext
                0x000000008086f1a0        0x8 arch/arm/cpu/armv7/start.o
 .rel.text.efi_create_event
                0x000000008086f1a8        0x8 arch/arm/cpu/armv7/start.o
 .rel.text.efi_timer_check
                0x000000008086f1b0        0x8 arch/arm/cpu/armv7/start.o
 .rel.text.efi_check_event
                0x000000008086f1b8        0x8 arch/arm/cpu/armv7/start.o
 .rel.text.efi_wait_for_event
                0x000000008086f1c0       0x10 arch/arm/cpu/armv7/start.o
 .rel.text.efi_set_timer
                0x000000008086f1d0        0x8 arch/arm/cpu/armv7/start.o
 .rel.text.efi_install_configuration_table
                0x000000008086f1d8       0x10 arch/arm/cpu/armv7/start.o
 .rel.text.efi_setup_loaded_image
                0x000000008086f1e8       0x38 arch/arm/cpu/armv7/start.o
 .rel.text.efi_load_image_from_path
                0x000000008086f220       0x10 arch/arm/cpu/armv7/start.o
 .rel.text.efi_runtime_relocate
                0x000000008086f230       0x28 arch/arm/cpu/armv7/start.o
 .rel.text.efi_set_virtual_address_map
                0x000000008086f258       0x18 arch/arm/cpu/armv7/start.o
 .rel.text.efi_add_runtime_mmio
                0x000000008086f270        0x0 arch/arm/cpu/armv7/start.o
 .rel.text.efi_cout_enable_cursor
                0x000000008086f270        0x8 arch/arm/cpu/armv7/start.o
 .rel.text.efi_cout_set_cursor_position
                0x000000008086f278       0x10 arch/arm/cpu/armv7/start.o
 .rel.text.efi_cout_clear_screen
                0x000000008086f288        0x8 arch/arm/cpu/armv7/start.o
 .rel.text.efi_cout_set_attribute
                0x000000008086f290       0x18 arch/arm/cpu/armv7/start.o
 .rel.text.efi_cout_output_string
                0x000000008086f2a8       0x10 arch/arm/cpu/armv7/start.o
 .rel.text.efi_console_timer_notify
                0x000000008086f2b8        0x8 arch/arm/cpu/armv7/start.o
 .rel.text.efi_cout_set_mode
                0x000000008086f2c0        0x8 arch/arm/cpu/armv7/start.o
 .rel.text.efi_cout_query_mode
                0x000000008086f2c8       0x30 arch/arm/cpu/armv7/start.o
 .rel.text.efi_console_register
                0x000000008086f2f8       0x58 arch/arm/cpu/armv7/start.o
 .rel.text.efi_find_free_memory
                0x000000008086f350        0x8 arch/arm/cpu/armv7/start.o
 .rel.text.efi_add_memory_map
                0x000000008086f358       0x10 arch/arm/cpu/armv7/start.o
 .rel.text.efi_get_memory_map
                0x000000008086f368        0x8 arch/arm/cpu/armv7/start.o
 .rel.text.efi_memory_init
                0x000000008086f370       0x10 arch/arm/cpu/armv7/start.o
 .rel.text.efi_convert_device_node_to_text.isra.1
                0x000000008086f380       0x88 arch/arm/cpu/armv7/start.o
 .rel.text.dp_fill
                0x000000008086f408        0x8 arch/arm/cpu/armv7/start.o
 .rel.text.find_obj
                0x000000008086f410       0x10 arch/arm/cpu/armv7/start.o
 .rel.text.efi_dp_append
                0x000000008086f420        0x0 arch/arm/cpu/armv7/start.o
 .rel.text.efi_dp_append_node
                0x000000008086f420        0x0 arch/arm/cpu/armv7/start.o
 .rel.text.efi_dp_from_dev
                0x000000008086f420        0x0 arch/arm/cpu/armv7/start.o
 .rel.text.efi_dp_from_part
                0x000000008086f420       0x10 arch/arm/cpu/armv7/start.o
 .rel.text.efi_dp_from_file
                0x000000008086f430       0x10 arch/arm/cpu/armv7/start.o
 .rel.text.efi_dp_from_eth
                0x000000008086f440        0x8 arch/arm/cpu/armv7/start.o
 .rel.text.efi_dp_from_mem
                0x000000008086f448        0x8 arch/arm/cpu/armv7/start.o
 .rel.text.efi_file_getinfo
                0x000000008086f450        0x8 arch/arm/cpu/armv7/start.o
 .rel.text.file_open
                0x000000008086f458       0x28 arch/arm/cpu/armv7/start.o
 .rel.text.efi_file_from_path
                0x000000008086f480        0x8 arch/arm/cpu/armv7/start.o
 .rel.text.efi_simple_file_system
                0x000000008086f488        0x8 arch/arm/cpu/armv7/start.o
 .rel.text.efi_to_native
                0x000000008086f490        0x8 arch/arm/cpu/armv7/start.o
 .rel.text.parse_attr.part.1
                0x000000008086f498       0x20 arch/arm/cpu/armv7/start.o
 .rel.text.efi_get_variable
                0x000000008086f4b8       0x18 arch/arm/cpu/armv7/start.o
 .rel.text.efi_set_variable
                0x000000008086f4d0       0x48 arch/arm/cpu/armv7/start.o
 .rel.text.get_var.constprop.0
                0x000000008086f518       0x10 arch/arm/cpu/armv7/start.o
 .rel.text.efi_bootmgr_load
                0x000000008086f528       0x30 arch/arm/cpu/armv7/start.o
 .rel.text.efi_disk_add_dev.isra.0.part.1
                0x000000008086f558       0x40 arch/arm/cpu/armv7/start.o
 .rel.text.efi_disk_register
                0x000000008086f598       0x20 arch/arm/cpu/armv7/start.o
 .rel.text.efi_net_push
                0x000000008086f5b8       0x10 arch/arm/cpu/armv7/start.o
 .rel.text.efi_network_timer_notify
                0x000000008086f5c8       0x18 arch/arm/cpu/armv7/start.o
 .rel.text.efi_net_get_status
                0x000000008086f5e0       0x10 arch/arm/cpu/armv7/start.o
 .rel.text.efi_net_transmit
                0x000000008086f5f0        0x8 arch/arm/cpu/armv7/start.o
 .rel.text.efi_net_receive
                0x000000008086f5f8       0x18 arch/arm/cpu/armv7/start.o
 .rel.text.efi_net_set_dhcp_ack
                0x000000008086f610        0x8 arch/arm/cpu/armv7/start.o
 .rel.text.efi_net_register
                0x000000008086f618       0xb8 arch/arm/cpu/armv7/start.o
 .rel.text.efi_smbios_register
                0x000000008086f6d0        0x8 arch/arm/cpu/armv7/start.o
 .rel.text.fdt_next_tag
                0x000000008086f6d8       0x48 arch/arm/cpu/armv7/start.o
 .rel.text.fdt_strerror
                0x000000008086f720       0x20 arch/arm/cpu/armv7/start.o
 .rel.text.fdt_create_empty_tree
                0x000000008086f740        0x0 arch/arm/cpu/armv7/start.o
 .rel.text.fdt_address_cells
                0x000000008086f740        0x8 arch/arm/cpu/armv7/start.o
 .rel.text.fdt_size_cells
                0x000000008086f748        0x8 arch/arm/cpu/armv7/start.o
 .rel.text.overlay_adjust_node_phandles
                0x000000008086f750       0x10 arch/arm/cpu/armv7/start.o
 .rel.text.overlay_get_target
                0x000000008086f760       0x10 arch/arm/cpu/armv7/start.o
 .rel.text.fdt_overlay_apply
                0x000000008086f770       0x38 arch/arm/cpu/armv7/start.o
 .rel.text.fdt_get_phandle
                0x000000008086f7a8       0x10 arch/arm/cpu/armv7/start.o
 .rel.text.fdt_get_alias_namelen
                0x000000008086f7b8        0x8 arch/arm/cpu/armv7/start.o
 .rel.text.fdt_node_check_compatible
                0x000000008086f7c0        0x8 arch/arm/cpu/armv7/start.o
 .rel.text.fdt_add_alias_regions
                0x000000008086f7c8        0x0 arch/arm/cpu/armv7/start.o
 .rel.text.crc7
                0x000000008086f7c8        0x0 arch/arm/cpu/armv7/start.o
 .rel.text.crc16_ccitt
                0x000000008086f7c8        0x8 arch/arm/cpu/armv7/start.o
 .rel.text.smbios_write_type3
                0x000000008086f7d0        0x8 arch/arm/cpu/armv7/start.o
 .rel.text.smbios_write_type2
                0x000000008086f7d8       0x10 arch/arm/cpu/armv7/start.o
 .rel.text.smbios_write_type0
                0x000000008086f7e8       0x18 arch/arm/cpu/armv7/start.o
 .rel.text.smbios_write_type1
                0x000000008086f800       0x18 arch/arm/cpu/armv7/start.o
 .rel.text.smbios_write_type4
                0x000000008086f818        0x8 arch/arm/cpu/armv7/start.o
 .rel.text.write_smbios_table
                0x000000008086f820       0x18 arch/arm/cpu/armv7/start.o
 .rel.text.initcall_run_list
                0x000000008086f838        0x8 arch/arm/cpu/armv7/start.o
 .rel.text.lmb_alloc_base
                0x000000008086f840        0x8 arch/arm/cpu/armv7/start.o
 .rel.text.list_sort
                0x000000008086f848        0x8 arch/arm/cpu/armv7/start.o
 .rel.text.sha1_finish
                0x000000008086f850        0x8 arch/arm/cpu/armv7/start.o
 .rel.text.sha256_finish
                0x000000008086f858        0x8 arch/arm/cpu/armv7/start.o
 .rel.text.inflate_fast
                0x000000008086f860       0x18 arch/arm/cpu/armv7/start.o
 .rel.text.inflate_table
                0x000000008086f878       0x20 arch/arm/cpu/armv7/start.o
 .rel.text.inflateInit2_
                0x000000008086f898       0x10 arch/arm/cpu/armv7/start.o
 .rel.text.inflate
                0x000000008086f8a8       0xa0 arch/arm/cpu/armv7/start.o
 .rel.text.gzip_parse_header
                0x000000008086f948       0x10 arch/arm/cpu/armv7/start.o
 .rel.text.zunzip
                0x000000008086f958       0x28 arch/arm/cpu/armv7/start.o
 .rel.text.lzop_is_valid_header
                0x000000008086f980        0x8 arch/arm/cpu/armv7/start.o
 .rel.text.fdtdec_get_compatible
                0x000000008086f988        0x0 arch/arm/cpu/armv7/start.o
 .rel.text.fdtdec_get_is_enabled
                0x000000008086f988       0x10 arch/arm/cpu/armv7/start.o
 .rel.text.fdtdec_lookup
                0x000000008086f998        0x0 arch/arm/cpu/armv7/start.o
 .rel.text.fdtdec_next_compatible
                0x000000008086f998        0x0 arch/arm/cpu/armv7/start.o
 .rel.text.fdtdec_next_compatible_subnode
                0x000000008086f998        0x0 arch/arm/cpu/armv7/start.o
 .rel.text.fdtdec_next_alias
                0x000000008086f998        0x0 arch/arm/cpu/armv7/start.o
 .rel.text.fdtdec_add_aliases_for_id
                0x000000008086f998        0x0 arch/arm/cpu/armv7/start.o
 .rel.text.fdtdec_get_alias_seq
                0x000000008086f998        0x8 arch/arm/cpu/armv7/start.o
 .rel.text.fdtdec_get_chosen_prop
                0x000000008086f9a0        0x8 arch/arm/cpu/armv7/start.o
 .rel.text.fdtdec_prepare_fdt
                0x000000008086f9a8        0x8 arch/arm/cpu/armv7/start.o
 .rel.text.fdtdec_get_config_int
                0x000000008086f9b0        0x8 arch/arm/cpu/armv7/start.o
 .rel.text.fdtdec_get_config_bool
                0x000000008086f9b8        0x0 arch/arm/cpu/armv7/start.o
 .rel.text.fdtdec_get_config_string
                0x000000008086f9b8        0x8 arch/arm/cpu/armv7/start.o
 .rel.text.fdtdec_decode_memory_region
                0x000000008086f9c0        0x0 arch/arm/cpu/armv7/start.o
 .rel.text.fdtdec_decode_display_timing
                0x000000008086f9c0        0x0 arch/arm/cpu/armv7/start.o
 .rel.text.fdtdec_setup_memory_size
                0x000000008086f9c0        0x0 arch/arm/cpu/armv7/start.o
 .rel.text.fdtdec_setup_memory_banksize
                0x000000008086f9c0        0x0 arch/arm/cpu/armv7/start.o
 .rel.text.fdtdec_setup
                0x000000008086f9c0       0x10 arch/arm/cpu/armv7/start.o
 .rel.text.match_string
                0x000000008086f9d0        0x8 arch/arm/cpu/armv7/start.o
 .rel.text.match_entry
                0x000000008086f9d8        0x8 arch/arm/cpu/armv7/start.o
 .rel.text.hcreate_r
                0x000000008086f9e0        0x8 arch/arm/cpu/armv7/start.o
 .rel.text.hdestroy_r
                0x000000008086f9e8        0x8 arch/arm/cpu/armv7/start.o
 .rel.text.hmatch_r
                0x000000008086f9f0        0x8 arch/arm/cpu/armv7/start.o
 .rel.text.hsearch_r
                0x000000008086f9f8        0x8 arch/arm/cpu/armv7/start.o
 .rel.text.hdelete_r
                0x000000008086fa00        0x8 arch/arm/cpu/armv7/start.o
 .rel.text.hexport_r
                0x000000008086fa08       0x18 arch/arm/cpu/armv7/start.o
 .rel.text.himport_r
                0x000000008086fa20       0x20 arch/arm/cpu/armv7/start.o
 .rel.text.display_options_get_banner_priv
                0x000000008086fa40       0x28 arch/arm/cpu/armv7/start.o
 .rel.text.display_options
                0x000000008086fa68        0x8 arch/arm/cpu/armv7/start.o
 .rel.text.print_freq
                0x000000008086fa70        0x0 arch/arm/cpu/armv7/start.o
 .rel.text.print_size
                0x000000008086fa70       0x28 arch/arm/cpu/armv7/start.o
 .rel.text.print_buffer
                0x000000008086fa98       0x28 arch/arm/cpu/armv7/start.o
 .rel.text.crc32_no_comp
                0x000000008086fac0        0x8 arch/arm/cpu/armv7/start.o
 .rel.text.hang
                0x000000008086fac8        0x8 arch/arm/cpu/armv7/start.o
 .rel.text.skip_spaces
                0x000000008086fad0        0x8 arch/arm/cpu/armv7/start.o
 .rel.text.strim
                0x000000008086fad8        0x8 arch/arm/cpu/armv7/start.o
 .rel.text.emit
                0x000000008086fae0        0x8 arch/arm/cpu/armv7/start.o
 .rel.text.store_char_in_data
                0x000000008086fae8        0x8 arch/arm/cpu/armv7/start.o
 .rel.text.match
                0x000000008086faf0       0x10 arch/arm/cpu/armv7/start.o
 .rel.text.quantifier
                0x000000008086fb00        0x8 arch/arm/cpu/armv7/start.o
 .rel.text.fixup_branch
                0x000000008086fb08        0x8 arch/arm/cpu/armv7/start.o
 .rel.text.compile
                0x000000008086fb10       0x28 arch/arm/cpu/armv7/start.o
 .rel.text.slre_compile
                0x000000008086fb38        0x8 arch/arm/cpu/armv7/start.o
 .rel.text.strncasecmp
                0x000000008086fb40        0x8 arch/arm/cpu/armv7/start.o
 .rel.text.strtok
                0x000000008086fb48        0x8 arch/arm/cpu/armv7/start.o
 .rel.text.uuid_str_valid
                0x000000008086fb50        0x8 arch/arm/cpu/armv7/start.o
 .rel.text.uuid_bin_to_str
                0x000000008086fb58       0x18 arch/arm/cpu/armv7/start.o
 .rel.text.rand
                0x000000008086fb70        0x8 arch/arm/cpu/armv7/start.o
 .rel.text.srand
                0x000000008086fb78        0x0 arch/arm/cpu/armv7/start.o
 .rel.text.number
                0x000000008086fb78        0x8 arch/arm/cpu/armv7/start.o
 .rel.text.string
                0x000000008086fb80        0x8 arch/arm/cpu/armv7/start.o
 .rel.text.vsnprintf_internal
                0x000000008086fb88       0x18 arch/arm/cpu/armv7/start.o
 .rel.text.__assert_fail
                0x000000008086fba0        0x0 arch/arm/cpu/armv7/start.o
 .rel.text.simple_itoa
                0x000000008086fba0        0x8 arch/arm/cpu/armv7/start.o
 .rel.text.print_grouped_ull
                0x000000008086fba8        0x0 arch/arm/cpu/armv7/start.o
 .rel.text._parse_integer_fixup_radix
                0x000000008086fba8        0x8 arch/arm/cpu/armv7/start.o
 .rel.text.simple_strtoul
                0x000000008086fbb0        0x8 arch/arm/cpu/armv7/start.o
 .rel.text.simple_strtoull
                0x000000008086fbb8        0x8 arch/arm/cpu/armv7/start.o
 .rel.text.trailing_strtoln
                0x000000008086fbc0        0x8 arch/arm/cpu/armv7/start.o
 .rel.text.strmhz
                0x000000008086fbc8        0x0 arch/arm/cpu/armv7/start.o
 .rel.rodata.efi_boot_services
                0x000000008086fbc8      0x150 arch/arm/cpu/armv7/start.o
 .rel.rodata.efi_runtime_detach_list
                0x000000008086fd18       0x80 arch/arm/cpu/armv7/start.o
 .rel.rodata.efi_con_out
                0x000000008086fd98       0x50 arch/arm/cpu/armv7/start.o
 .rel.rodata.efi_console_control
                0x000000008086fde8       0x18 arch/arm/cpu/armv7/start.o
 .rel.rodata.efi_device_path_to_text
                0x000000008086fe00       0x10 arch/arm/cpu/armv7/start.o
 .rel.rodata.efi_file_handle_protocol
                0x000000008086fe10       0x50 arch/arm/cpu/armv7/start.o
 .rel.rodata.fdt_errtable
                0x000000008086fe60       0x88 arch/arm/cpu/armv7/start.o
 .rel.rodata.smbios_write_funcs
                0x000000008086fee8       0x38 arch/arm/cpu/armv7/start.o
 .rel.rodata.z_errmsg
                0x000000008086ff20        0x0 arch/arm/cpu/armv7/start.o
 .rel.rodata.compat_names
                0x000000008086ff20        0x0 arch/arm/cpu/armv7/start.o
 .rel.data.efi_obj_list
                0x000000008086ff20       0x10 arch/arm/cpu/armv7/start.o
 .rel.data.efi_runtime_mmio
                0x000000008086ff30       0x10 arch/arm/cpu/armv7/start.o
 .rel.data.efi_con_in
                0x000000008086ff40       0x10 arch/arm/cpu/armv7/start.o
 .rel.data.efi_console_control_obj
                0x000000008086ff50       0x18 arch/arm/cpu/armv7/start.o
 .rel.data.efi_console_input_obj
                0x000000008086ff68       0x18 arch/arm/cpu/armv7/start.o
 .rel.data.efi_console_output_obj
                0x000000008086ff80       0x18 arch/arm/cpu/armv7/start.o
 .rel.data.efi_mem
                0x000000008086ff98       0x10 arch/arm/cpu/armv7/start.o
 .rel.data.current
                0x000000008086ffa8        0x0 arch/arm/cpu/armv7/start.o
 .rel.text.arp_init
                0x000000008086ffa8       0x30 arch/arm/cpu/armv7/start.o
 .rel.text.arp_raw_request
                0x000000008086ffd8       0x18 arch/arm/cpu/armv7/start.o
 .rel.text.arp_request
                0x000000008086fff0       0x38 arch/arm/cpu/armv7/start.o
 .rel.text.arp_timeout_check
                0x0000000080870028       0x28 arch/arm/cpu/armv7/start.o
 .rel.text.arp_receive
                0x0000000080870050       0x40 arch/arm/cpu/armv7/start.o
 .rel.text.dhcp_extended
                0x0000000080870090       0x30 arch/arm/cpu/armv7/start.o
 .rel.text.dhcp_process_options
                0x00000000808700c0       0x70 arch/arm/cpu/armv7/start.o
 .rel.text.dhcp_packet_process_options
                0x0000000080870130        0x8 arch/arm/cpu/armv7/start.o
 .rel.text.dhcp_handler
                0x0000000080870138       0x90 arch/arm/cpu/armv7/start.o
 .rel.text.bootp_reset
                0x00000000808701c8       0x20 arch/arm/cpu/armv7/start.o
 .rel.text.bootp_request
                0x00000000808701e8       0x78 arch/arm/cpu/armv7/start.o
 .rel.text.bootp_timeout_handler
                0x0000000080870260       0x28 arch/arm/cpu/armv7/start.o
 .rel.text.eth_post_probe
                0x0000000080870288       0x30 arch/arm/cpu/armv7/start.o
 .rel.text.eth_write_hwaddr
                0x00000000808702b8       0x10 arch/arm/cpu/armv7/start.o
 .rel.text.eth_post_bind
                0x00000000808702c8        0x8 arch/arm/cpu/armv7/start.o
 .rel.text.eth_get_dev
                0x00000000808702d0        0x8 arch/arm/cpu/armv7/start.o
 .rel.text.eth_set_dev
                0x00000000808702d8        0x8 arch/arm/cpu/armv7/start.o
 .rel.text.eth_get_dev_by_name
                0x00000000808702e0        0x8 arch/arm/cpu/armv7/start.o
 .rel.text.eth_init
                0x00000000808702e8       0x28 arch/arm/cpu/armv7/start.o
 .rel.text.eth_initialize
                0x0000000080870310       0x28 arch/arm/cpu/armv7/start.o
 .rel.text.eth_env_set_enetaddr
                0x0000000080870338        0x8 arch/arm/cpu/armv7/start.o
 .rel.text.eth_env_get_enetaddr_by_index
                0x0000000080870340       0x10 arch/arm/cpu/armv7/start.o
 .rel.text.eth_env_set_enetaddr_by_index
                0x0000000080870350       0x10 arch/arm/cpu/armv7/start.o
 .rel.text.eth_mac_skip
                0x0000000080870360       0x10 arch/arm/cpu/armv7/start.o
 .rel.text.eth_get_name
                0x0000000080870370        0x8 arch/arm/cpu/armv7/start.o
 .rel.text.eth_current_changed
                0x0000000080870378       0x18 arch/arm/cpu/armv7/start.o
 .rel.text.eth_try_another
                0x0000000080870390       0x20 arch/arm/cpu/armv7/start.o
 .rel.text.eth_set_current
                0x00000000808703b0       0x20 arch/arm/cpu/armv7/start.o
 .rel.text.net_clear_handlers
                0x00000000808703d0       0x20 arch/arm/cpu/armv7/start.o
 .rel.text.start_again_timeout_handler
                0x00000000808703f0        0x8 arch/arm/cpu/armv7/start.o
 .rel.text.on_ipaddr
                0x00000000808703f8        0x8 arch/arm/cpu/armv7/start.o
 .rel.text.on_gatewayip
                0x0000000080870400        0x8 arch/arm/cpu/armv7/start.o
 .rel.text.on_netmask
                0x0000000080870408        0x8 arch/arm/cpu/armv7/start.o
 .rel.text.on_serverip
                0x0000000080870410        0x8 arch/arm/cpu/armv7/start.o
 .rel.text.net_init_loop
                0x0000000080870418        0x8 arch/arm/cpu/armv7/start.o
 .rel.text.net_auto_load
                0x0000000080870420       0x18 arch/arm/cpu/armv7/start.o
 .rel.text.net_init
                0x0000000080870438       0x20 arch/arm/cpu/armv7/start.o
 .rel.text.net_start_again
                0x0000000080870458       0x78 arch/arm/cpu/armv7/start.o
 .rel.text.net_loop
                0x00000000808704d0      0x108 arch/arm/cpu/armv7/start.o
 .rel.text.net_get_udp_handler
                0x00000000808705d8        0x0 arch/arm/cpu/armv7/start.o
 .rel.text.net_set_udp_handler
                0x00000000808705d8       0x10 arch/arm/cpu/armv7/start.o
 .rel.text.net_get_arp_handler
                0x00000000808705e8        0x8 arch/arm/cpu/armv7/start.o
 .rel.text.net_set_arp_handler
                0x00000000808705f0        0x0 arch/arm/cpu/armv7/start.o
 .rel.text.net_set_timeout_handler
                0x00000000808705f0       0x18 arch/arm/cpu/armv7/start.o
 .rel.text.net_process_received_packet
                0x0000000080870608       0x40 arch/arm/cpu/armv7/start.o
 .rel.text.net_eth_hdr_size
                0x0000000080870648        0x8 arch/arm/cpu/armv7/start.o
 .rel.text.net_set_ether
                0x0000000080870650       0x10 arch/arm/cpu/armv7/start.o
 .rel.text.net_update_ether
                0x0000000080870660        0x8 arch/arm/cpu/armv7/start.o
 .rel.text.net_set_ip_header
                0x0000000080870668        0x8 arch/arm/cpu/armv7/start.o
 .rel.text.net_set_udp_header
                0x0000000080870670        0x8 arch/arm/cpu/armv7/start.o
 .rel.text.net_send_udp_packet
                0x0000000080870678       0x40 arch/arm/cpu/armv7/start.o
 .rel.text.on_bootfile
                0x00000000808706b8        0x8 arch/arm/cpu/armv7/start.o
 .rel.text.ip_to_string
                0x00000000808706c0        0x8 arch/arm/cpu/armv7/start.o
 .rel.text.vlan_to_string
                0x00000000808706c8        0x0 arch/arm/cpu/armv7/start.o
 .rel.text.on_nvlan
                0x00000000808706c8        0x8 arch/arm/cpu/armv7/start.o
 .rel.text.on_vlan
                0x00000000808706d0        0x8 arch/arm/cpu/armv7/start.o
 .rel.text.rpc_lookup_reply
                0x00000000808706d8       0x18 arch/arm/cpu/armv7/start.o
 .rel.text.nfs_mount_reply
                0x00000000808706f0       0x18 arch/arm/cpu/armv7/start.o
 .rel.text.nfs_umountall_reply
                0x0000000080870708       0x18 arch/arm/cpu/armv7/start.o
 .rel.text.nfs_lookup_reply
                0x0000000080870720       0x30 arch/arm/cpu/armv7/start.o
 .rel.text.nfs_readlink_reply
                0x0000000080870750       0x20 arch/arm/cpu/armv7/start.o
 .rel.text.rpc_req
                0x0000000080870770       0x40 arch/arm/cpu/armv7/start.o
 .rel.text.nfs_umountall_req
                0x00000000808707b0       0x10 arch/arm/cpu/armv7/start.o
 .rel.text.nfs_read_reply.isra.0
                0x00000000808707c0       0x30 arch/arm/cpu/armv7/start.o
 .rel.text.nfs_readlink_req
                0x00000000808707f0       0x18 arch/arm/cpu/armv7/start.o
 .rel.text.nfs_lookup_req
                0x0000000080870808       0x10 arch/arm/cpu/armv7/start.o
 .rel.text.nfs_read_req
                0x0000000080870818       0x18 arch/arm/cpu/armv7/start.o
 .rel.text.nfs_send
                0x0000000080870830       0x30 arch/arm/cpu/armv7/start.o
 .rel.text.nfs_handler
                0x0000000080870860       0x70 arch/arm/cpu/armv7/start.o
 .rel.text.nfs_timeout_handler
                0x00000000808708d0       0x20 arch/arm/cpu/armv7/start.o
 .rel.text.nfs_start
                0x00000000808708f0       0x88 arch/arm/cpu/armv7/start.o
 .rel.text.ping_timeout_handler
                0x0000000080870978        0x8 arch/arm/cpu/armv7/start.o
 .rel.text.ping_start
                0x0000000080870980       0x58 arch/arm/cpu/armv7/start.o
 .rel.text.ping_receive
                0x00000000808709d8       0x18 arch/arm/cpu/armv7/start.o
 .rel.text.tftp_send
                0x00000000808709f0       0x80 arch/arm/cpu/armv7/start.o
 .rel.text.tftp_handler
                0x0000000080870a70       0xd0 arch/arm/cpu/armv7/start.o
 .rel.text.tftp_timeout_handler
                0x0000000080870b40       0x40 arch/arm/cpu/armv7/start.o
 .rel.text.tftp_start
                0x0000000080870b80      0x148 arch/arm/cpu/armv7/start.o
 .rel.u_boot_list_2_env_clbk_2_ethaddr
                0x0000000080870cc8       0x10 arch/arm/cpu/armv7/start.o
 .rel.u_boot_list_2_uclass_2_eth
                0x0000000080870cd8       0x28 arch/arm/cpu/armv7/start.o
 .rel.u_boot_list_2_env_clbk_2_bootfile
                0x0000000080870d00       0x10 arch/arm/cpu/armv7/start.o
 .rel.u_boot_list_2_env_clbk_2_gatewayip
                0x0000000080870d10       0x10 arch/arm/cpu/armv7/start.o
 .rel.u_boot_list_2_env_clbk_2_ipaddr
                0x0000000080870d20       0x10 arch/arm/cpu/armv7/start.o
 .rel.u_boot_list_2_env_clbk_2_netmask
                0x0000000080870d30       0x10 arch/arm/cpu/armv7/start.o
 .rel.u_boot_list_2_env_clbk_2_nvlan
                0x0000000080870d40       0x10 arch/arm/cpu/armv7/start.o
 .rel.u_boot_list_2_env_clbk_2_serverip
                0x0000000080870d50       0x10 arch/arm/cpu/armv7/start.o
 .rel.u_boot_list_2_env_clbk_2_vlan
                0x0000000080870d60       0x10 arch/arm/cpu/armv7/start.o
 .rel.text.do_dm
                0x0000000080870d70        0x8 arch/arm/cpu/armv7/start.o
 .rel.data.test_commands
                0x0000000080870d78       0x60 arch/arm/cpu/armv7/start.o
 .rel.u_boot_list_2_cmd_2_dm
                0x0000000080870dd8       0x20 arch/arm/cpu/armv7/start.o
 .rel.text.raise
                0x0000000080870df8        0x0 arch/arm/cpu/armv7/start.o

.rel_dyn_end    0x0000000080870df8        0x0
 *(.__rel_dyn_end)
 .__rel_dyn_end
                0x0000000080870df8        0x0 arch/arm/lib/built-in.o

.hash           0x0000000080870df8       0x18
 *(.hash*)
 .hash          0x0000000080870df8       0x18 arch/arm/cpu/armv7/start.o

.end            0x0000000080870e10        0x0
 *(.__end)
 .__end         0x0000000080870e10        0x0 arch/arm/lib/built-in.o
                0x0000000080870e10                _image_binary_end = .
                0x0000000080871000                . = ALIGN (0x1000)

.mmutable
 *(.mmutable)

.bss_start      0x0000000080864658        0x0
 *(.__bss_start)
 .__bss_start   0x0000000080864658        0x0 arch/arm/lib/built-in.o
                0x0000000080864658                __bss_start
                0x0000000080864658                __bss_base = .

.bss            0x0000000080864658    0x3d144
 *(.bss*)
 .bss.params    0x0000000080864658        0x4 arch/arm/lib/built-in.o
 .bss.bootefi_device_path
                0x000000008086465c        0x4 cmd/built-in.o
 .bss.bootefi_image_path
                0x0000000080864660        0x4 cmd/built-in.o
 .bss.efi_obj_list_initalized
                0x0000000080864664        0x1 cmd/built-in.o
 *fill*         0x0000000080864665        0x3 
 .bss.data.8166
                0x0000000080864668      0x400 cmd/built-in.o
 .bss.working_fdt
                0x0000000080864a68        0x4 cmd/built-in.o
                0x0000000080864a68                working_fdt
 .bss.i2c_cur_bus
                0x0000000080864a6c        0x4 cmd/built-in.o
 .bss.i2c_dp_last_addr
                0x0000000080864a70        0x4 cmd/built-in.o
 .bss.i2c_dp_last_alen
                0x0000000080864a74        0x4 cmd/built-in.o
 .bss.i2c_dp_last_chip
                0x0000000080864a78        0x4 cmd/built-in.o
 .bss.i2c_mm_last_addr
                0x0000000080864a7c        0x4 cmd/built-in.o
 .bss.i2c_mm_last_alen
                0x0000000080864a80        0x4 cmd/built-in.o
 .bss.i2c_mm_last_chip
                0x0000000080864a84        0x4 cmd/built-in.o
 .bss.a_b       0x0000000080864a88       0x18 cmd/built-in.o
 .bss.bin_start_address
                0x0000000080864aa0        0x4 cmd/built-in.o
 .bss.his_eol   0x0000000080864aa4        0x1 cmd/built-in.o
 .bss.his_pad_char
                0x0000000080864aa5        0x1 cmd/built-in.o
 *fill*         0x0000000080864aa6        0x2 
 .bss.his_pad_count
                0x0000000080864aa8        0x4 cmd/built-in.o
 .bss.his_quote
                0x0000000080864aac        0x1 cmd/built-in.o
 *fill*         0x0000000080864aad        0x3 
 .bss.k_data_escape
                0x0000000080864ab0        0x4 cmd/built-in.o
 .bss.k_data_escape_saved
                0x0000000080864ab4        0x4 cmd/built-in.o
 .bss.os_data_addr
                0x0000000080864ab8        0x4 cmd/built-in.o
 .bss.os_data_addr_saved
                0x0000000080864abc        0x4 cmd/built-in.o
 .bss.os_data_char
                0x0000000080864ac0        0x4 cmd/built-in.o
 .bss.os_data_init
                0x0000000080864ac4        0x4 cmd/built-in.o
 .bss.os_data_state
                0x0000000080864ac8        0x4 cmd/built-in.o
 .bss.os_data_state_saved
                0x0000000080864acc        0x4 cmd/built-in.o
 .bss.send_parms
                0x0000000080864ad0       0x14 cmd/built-in.o
 .bss.send_ptr  0x0000000080864ae4        0x4 cmd/built-in.o
 .bss.base_address
                0x0000000080864ae8        0x4 cmd/built-in.o
 .bss.dp_last_addr
                0x0000000080864aec        0x4 cmd/built-in.o
 .bss.dp_last_size
                0x0000000080864af0        0x4 cmd/built-in.o
 .bss.mm_last_addr
                0x0000000080864af4        0x4 cmd/built-in.o
 .bss.mm_last_size
                0x0000000080864af8        0x4 cmd/built-in.o
 .bss.last_addr_hi
                0x0000000080864afc        0x8 cmd/built-in.o
 .bss.last_addr_lo
                0x0000000080864b04        0x8 cmd/built-in.o
 .bss.last_data
                0x0000000080864b0c        0x8 cmd/built-in.o
 .bss.last_mask
                0x0000000080864b14        0x4 cmd/built-in.o
 .bss.last_op   0x0000000080864b18        0x4 cmd/built-in.o
 .bss.last_reg_hi
                0x0000000080864b1c        0x8 cmd/built-in.o
 .bss.last_reg_lo
                0x0000000080864b24        0x8 cmd/built-in.o
 .bss.last_devad_hi
                0x0000000080864b2c        0x4 cmd/built-in.o
 .bss.last_devad_lo
                0x0000000080864b30        0x4 cmd/built-in.o
 .bss.current_mtd_dev
                0x0000000080864b34        0x4 cmd/built-in.o
                0x0000000080864b34                current_mtd_dev
 .bss.current_mtd_partnum
                0x0000000080864b38        0x1 cmd/built-in.o
                0x0000000080864b38                current_mtd_partnum
 *fill*         0x0000000080864b39        0x3 
 .bss.devices   0x0000000080864b3c        0x8 cmd/built-in.o
 .bss.initialized.9850
                0x0000000080864b44        0x4 cmd/built-in.o
 .bss.last_ids  0x0000000080864b48       0x81 cmd/built-in.o
 .bss.last_partition
                0x0000000080864bc9       0x11 cmd/built-in.o
 .bss.last_parts
                0x0000000080864bda      0x201 cmd/built-in.o
 *fill*         0x0000000080864ddb        0x1 
 .bss.mtdids    0x0000000080864ddc        0x8 cmd/built-in.o
 .bss.use_defaults
                0x0000000080864de4        0x1 cmd/built-in.o
                0x0000000080864de4                use_defaults
 *fill*         0x0000000080864de5        0x3 
 .bss.last.9603
                0x0000000080864de8        0x8 cmd/built-in.o
 .bss.do_getfile
                0x0000000080864df0        0x4 cmd/built-in.o
 .bss.fs_argv   0x0000000080864df4       0x14 cmd/built-in.o
 .bss.is_pxe    0x0000000080864e08        0x1 cmd/built-in.o
 *fill*         0x0000000080864e09        0x3 
 .bss.flash     0x0000000080864e0c        0x4 cmd/built-in.o
 .bss.bitlen    0x0000000080864e10        0x4 cmd/built-in.o
 .bss.bus       0x0000000080864e14        0x4 cmd/built-in.o
 .bss.cs        0x0000000080864e18        0x4 cmd/built-in.o
 .bss.din       0x0000000080864e1c       0x20 cmd/built-in.o
 .bss.dout      0x0000000080864e3c       0x20 cmd/built-in.o
 .bss.mode      0x0000000080864e5c        0x4 cmd/built-in.o
 .bss.buf.8512  0x0000000080864e60       0x28 common/built-in.o
 .bss.do_repeat
                0x0000000080864e88        0x4 common/built-in.o
 .bss.flag_repeat
                0x0000000080864e8c        0x4 common/built-in.o
 .bss.ifs       0x0000000080864e90        0x4 common/built-in.o
 .bss.last_return_code
                0x0000000080864e94        0x4 common/built-in.o
 .bss.map       0x0000000080864e98      0x100 common/built-in.o
 .bss.the_command.8312
                0x0000000080864f98      0x401 common/built-in.o
 *fill*         0x0000000080865399        0x3 
 .bss.top_vars  0x000000008086539c        0x4 common/built-in.o
 .bss.stored_bootdelay
                0x00000000808653a0        0x4 common/built-in.o
 .bss.monitor_flash_len
                0x00000000808653a4        0x4 common/built-in.o
                0x00000000808653a4                monitor_flash_len
 .bss.images    0x00000000808653a8      0x164 common/built-in.o
                0x00000000808653a8                images
 .bss.current_mii
                0x000000008086550c        0x4 common/built-in.o
 .bss.mii_devs  0x0000000080865510        0x8 common/built-in.o
 .bss.usb_started
                0x0000000080865518        0x1 common/built-in.o
                0x0000000080865518                usb_started
 *fill*         0x0000000080865519        0x3 
 .bss.running.10529
                0x000000008086551c        0x4 common/built-in.o
 .bss.CBWTag    0x0000000080865520        0x4 common/built-in.o
 *fill*         0x0000000080865524       0x1c 
 .bss.usb_ccb   0x0000000080865540       0xc0 common/built-in.o
 .bss.usb_dev_desc
                0x0000000080865600      0x3b8 common/built-in.o
 .bss.usb_max_devs
                0x00000000808659b8        0x4 common/built-in.o
 .bss.usb_stor  0x00000000808659bc      0x188 common/built-in.o
 .bss.console_buffer
                0x0000000080865b44      0x401 common/built-in.o
                0x0000000080865b44                console_buffer
 *fill*         0x0000000080865f45        0x3 
 .bss.hist_add_idx
                0x0000000080865f48        0x4 common/built-in.o
 .bss.hist_lines
                0x0000000080865f4c     0x5014 common/built-in.o
 .bss.hist_list
                0x000000008086af60       0x50 common/built-in.o
 .bss.hist_max  0x000000008086afb0        0x4 common/built-in.o
 .bss.hist_num  0x000000008086afb4        0x4 common/built-in.o
 .bss.initted.8182
                0x000000008086afb8        0x4 common/built-in.o
 .bss.ctrlc_disabled
                0x000000008086afbc        0x4 common/built-in.o
 .bss.ctrlc_was_pressed
                0x000000008086afc0        0x4 common/built-in.o
 .bss.current_mallinfo
                0x000000008086afc4       0x28 common/built-in.o
 .bss.max_sbrked_mem
                0x000000008086afec        0x4 common/built-in.o
 .bss.max_total_mem
                0x000000008086aff0        0x4 common/built-in.o
 .bss.mem_malloc_brk
                0x000000008086aff4        0x4 common/built-in.o
                0x000000008086aff4                mem_malloc_brk
 .bss.mem_malloc_end
                0x000000008086aff8        0x4 common/built-in.o
                0x000000008086aff8                mem_malloc_end
 .bss.mem_malloc_start
                0x000000008086affc        0x4 common/built-in.o
                0x000000008086affc                mem_malloc_start
 .bss.top_pad   0x000000008086b000        0x4 common/built-in.o
 .bss.andr_tmp_str
                0x000000008086b004      0x201 common/built-in.o
 *fill*         0x000000008086b205        0x3 
 .bss.devs      0x000000008086b208       0x4c common/built-in.o
 .bss.stdio_devices
                0x000000008086b254        0xc common/built-in.o
                0x000000008086b254                stdio_devices
 .bss.tmp_buf   0x000000008086b260      0x400 common/built-in.o
 .bss.tmp_buf.8071
                0x000000008086b660      0x200 common/built-in.o
 .bss.xyz       0x000000008086b860      0x434 common/built-in.o
 *fill*         0x000000008086bc94       0x2c 
 .bss.tmpbuf    0x000000008086bcc0      0x800 disk/built-in.o
 .bss.name.8781
                0x000000008086c4c0       0x25 disk/built-in.o
 *fill*         0x000000008086c4e5        0x3 
 .bss.initialized.10290
                0x000000008086c4e8        0x4 drivers/built-in.o
 .bss.mmc_devices
                0x000000008086c4ec        0x8 drivers/built-in.o
 .bss.alt_num_cnt
                0x000000008086c4f4        0x4 drivers/built-in.o
 .bss.dfu_alt_num
                0x000000008086c4f8        0x4 drivers/built-in.o
 .bss.dfu_buf   0x000000008086c4fc        0x4 drivers/built-in.o
 .bss.dfu_buf_size
                0x000000008086c500        0x4 drivers/built-in.o
 .bss.dfu_hash_algo
                0x000000008086c504        0x4 drivers/built-in.o
 .bss.dfu_file_buf
                0x000000008086c508        0x4 drivers/built-in.o
 .bss.dfu_file_buf_filled
                0x000000008086c50c        0x4 drivers/built-in.o
 .bss.dfu_file_buf_len
                0x000000008086c510        0x8 drivers/built-in.o
 .bss.mtd_idr   0x000000008086c518      0x200 drivers/mtd/built-in.o
 .bss.dev_name  0x000000008086c718        0x8 drivers/mtd/nand/built-in.o
 .bss.initialized.9461
                0x000000008086c720        0x4 drivers/mtd/nand/built-in.o
 *fill*         0x000000008086c724        0x4 
 .bss.nand_chip
                0x000000008086c728      0x510 drivers/mtd/nand/built-in.o
 .bss.nand_info
                0x000000008086cc38        0x4 drivers/mtd/nand/built-in.o
 .bss.total_nand_size
                0x000000008086cc3c        0x4 drivers/mtd/nand/built-in.o
 .bss.cs_next   0x000000008086cc40        0x1 drivers/mtd/nand/built-in.o
 *fill*         0x000000008086cc41        0x3 
 .bss.omap_ecclayout
                0x000000008086cc44      0xba8 drivers/mtd/nand/built-in.o
 .bss.omap_nand_info
                0x000000008086d7ec       0x60 drivers/mtd/nand/built-in.o
 .bss.elm_cfg   0x000000008086d84c        0x4 drivers/mtd/nand/built-in.o
                0x000000008086d84c                elm_cfg
 .bss.mdio_regs
                0x000000008086d850        0x4 drivers/net/built-in.o
 .bss.epnum     0x000000008086d854        0x4 drivers/usb/gadget/built-in.o
 .bss.composite
                0x000000008086d858        0x4 drivers/usb/gadget/built-in.o
 .bss.g_dnl_detach_request
                0x000000008086d85c        0x1 drivers/usb/gadget/built-in.o
 .bss.g_dnl_serial
                0x000000008086d85d      0x100 drivers/usb/gadget/built-in.o
 *fill*         0x000000008086d95d        0x3 
 .bss.dfu_defer_flush
                0x000000008086d960        0x4 drivers/usb/gadget/built-in.o
                0x000000008086d960                dfu_defer_flush
 .bss.download_bytes
                0x000000008086d964        0x4 drivers/usb/gadget/built-in.o
 .bss.download_size
                0x000000008086d968        0x4 drivers/usb/gadget/built-in.o
 .bss.fastboot_func
                0x000000008086d96c        0x4 drivers/usb/gadget/built-in.o
 *fill*         0x000000008086d970       0x10 
 .bss.__control_req
                0x000000008086d980      0x100 drivers/usb/gadget/built-in.o
 .bss.__status_req
                0x000000008086da80       0x40 drivers/usb/gadget/built-in.o
 .bss.dev_addr  0x000000008086dac0       0x12 drivers/usb/gadget/built-in.o
 *fill*         0x000000008086dad2        0x2 
 .bss.eth_priv  0x000000008086dad4       0xd8 drivers/usb/gadget/built-in.o
                0x000000008086dad4                eth_priv
 .bss.ethaddr   0x000000008086dbac        0xd drivers/usb/gadget/built-in.o
 .bss.host_addr
                0x000000008086dbb9       0x12 drivers/usb/gadget/built-in.o
 .bss.manufacturer
                0x000000008086dbcb       0x32 drivers/usb/gadget/built-in.o
 *fill*         0x000000008086dbfd        0x3 
 .bss.packet_received
                0x000000008086dc00        0x4 drivers/usb/gadget/built-in.o
                0x000000008086dc00                packet_received
 .bss.packet_sent
                0x000000008086dc04        0x4 drivers/usb/gadget/built-in.o
                0x000000008086dc04                packet_sent
 .bss.rndis_resp_buf
                0x000000008086dc08        0x8 drivers/usb/gadget/built-in.o
 .bss.serial_number
                0x000000008086dc10       0x14 drivers/usb/gadget/built-in.o
 .bss.rndis_per_dev_params
                0x000000008086dc24       0x3c drivers/usb/gadget/built-in.o
 .bss.asynch_allowed
                0x000000008086dc60        0x1 drivers/usb/host/built-in.o
 *fill*         0x000000008086dc61        0x3 
 .bss.gadget    0x000000008086dc64        0x4 drivers/usb/musb-new/built-in.o
 .bss.callback_list
                0x000000008086dc68        0x4 env/built-in.o
 .bss.flags_list
                0x000000008086dc6c        0x4 env/built-in.o
 .bss.fs_dev_desc
                0x000000008086dc70        0x4 fs/built-in.o
 .bss.fs_dev_part
                0x000000008086dc74        0x4 fs/built-in.o
 .bss.fs_partition
                0x000000008086dc78       0x78 fs/built-in.o
 .bss.fs_type   0x000000008086dcf0        0x4 fs/built-in.o
 *fill*         0x000000008086dcf4        0x4 
 .bss.ext_fs    0x000000008086dcf8       0x48 fs/built-in.o
                0x000000008086dcf8                ext_fs
 .bss.ext4fs_file
                0x000000008086dd40        0x4 fs/built-in.o
                0x000000008086dd40                ext4fs_file
 .bss.ext4fs_indir1_block
                0x000000008086dd44        0x4 fs/built-in.o
                0x000000008086dd44                ext4fs_indir1_block
 .bss.ext4fs_indir1_size
                0x000000008086dd48        0x4 fs/built-in.o
                0x000000008086dd48                ext4fs_indir1_size
 .bss.ext4fs_indir2_block
                0x000000008086dd4c        0x4 fs/built-in.o
                0x000000008086dd4c                ext4fs_indir2_block
 .bss.ext4fs_indir2_size
                0x000000008086dd50        0x4 fs/built-in.o
                0x000000008086dd50                ext4fs_indir2_size
 .bss.ext4fs_indir3_block
                0x000000008086dd54        0x4 fs/built-in.o
                0x000000008086dd54                ext4fs_indir3_block
 .bss.ext4fs_indir3_size
                0x000000008086dd58        0x4 fs/built-in.o
                0x000000008086dd58                ext4fs_indir3_size
 .bss.ext4fs_root
                0x000000008086dd5c        0x4 fs/built-in.o
                0x000000008086dd5c                ext4fs_root
 .bss.g_parent_inode
                0x000000008086dd60        0x4 fs/built-in.o
                0x000000008086dd60                g_parent_inode
 .bss.symlinknest
                0x000000008086dd64        0x4 fs/built-in.o
 .bss.part_info
                0x000000008086dd68        0x4 fs/built-in.o
 .bss.part_offset
                0x000000008086dd6c        0x4 fs/built-in.o
                0x000000008086dd6c                part_offset
 .bss.dirty_block_ptr
                0x000000008086dd70      0x190 fs/built-in.o
                0x000000008086dd70                dirty_block_ptr
 .bss.gd_index  0x000000008086df00        0x4 fs/built-in.o
                0x000000008086df00                gd_index
 .bss.gindex    0x000000008086df04        0x4 fs/built-in.o
                0x000000008086df04                gindex
 .bss.journal_ptr
                0x000000008086df08      0x190 fs/built-in.o
                0x000000008086df08                journal_ptr
 .bss.jrnl_blk_idx
                0x000000008086e098        0x4 fs/built-in.o
                0x000000008086e098                jrnl_blk_idx
 .bss.prev_node
                0x000000008086e09c        0x4 fs/built-in.o
 .bss.revk_blk_list
                0x000000008086e0a0        0x4 fs/built-in.o
 .bss.cur_dev   0x000000008086e0a4        0x4 fs/built-in.o
 .bss.cur_part_info
                0x000000008086e0a8       0x78 fs/built-in.o
 .bss.dir_curclust
                0x000000008086e120        0x4 fs/built-in.o
 *fill*         0x000000008086e124       0x1c 
 .bss.do_fat_read_at_block
                0x000000008086e140    0x10000 fs/built-in.o
                0x000000008086e140                do_fat_read_at_block
 .bss.empty_dentptr
                0x000000008087e140        0x4 fs/built-in.o
 *fill*         0x000000008087e144       0x3c 
 .bss.get_contents_vfatname_block
                0x000000008087e180    0x10000 fs/built-in.o
                0x000000008087e180                get_contents_vfatname_block
 .bss.get_dentfromdir_block
                0x000000008088e180    0x10000 fs/built-in.o
                0x000000008088e180                get_dentfromdir_block
 .bss.num_of_fats
                0x000000008089e180        0x1 fs/built-in.o
 *fill*         0x000000008089e181        0x3 
 .bss.total_sector
                0x000000008089e184        0x4 fs/built-in.o
 .bss.app_gd    0x000000008089e188        0x4 lib/built-in.o
 *fill*         0x000000008089e18c        0x4 
 .bss.efi_events
                0x000000008089e190      0x280 lib/built-in.o
 .bss.efi_gd    0x000000008089e410        0x4 lib/built-in.o
 .bss.entry_count
                0x000000008089e414        0x4 lib/built-in.o
 .bss.mono.9694
                0x000000008089e418        0x8 lib/built-in.o
 .bss.nesting_level
                0x000000008089e420        0x4 lib/built-in.o
 .bss.ret.9605  0x000000008089e424        0x4 lib/built-in.o
 .bss.console_size_queried
                0x000000008089e428        0x1 lib/built-in.o
 *fill*         0x000000008089e429        0x3 
 .bss.console_timer_event
                0x000000008089e42c        0x4 lib/built-in.o
 .bss.rs        0x000000008089e430        0x4 lib/built-in.o
 .bss.dhcp_ack  0x000000008089e434        0x4 lib/built-in.o
 .bss.network_timer_event
                0x000000008089e438        0x4 lib/built-in.o
 .bss.new_rx_packet
                0x000000008089e43c        0x1 lib/built-in.o
 *fill*         0x000000008089e43d        0x3 
 .bss.new_tx_packet
                0x000000008089e440        0x4 lib/built-in.o
 .bss.wait_for_packet
                0x000000008089e444        0x4 lib/built-in.o
 .bss.errno     0x000000008089e448        0x4 lib/built-in.o
                0x000000008089e448                errno
 .bss.___strtok
                0x000000008089e44c        0x4 lib/built-in.o
                0x000000008089e44c                ___strtok
 .bss.local.8355
                0x000000008089e450       0x16 lib/built-in.o
 *fill*         0x000000008089e466        0x2 
 .bss.arp_tx_packet
                0x000000008089e468        0x4 net/built-in.o
 .bss.arp_tx_packet_buf
                0x000000008089e46c      0x640 net/built-in.o
 .bss.arp_wait_packet_ethaddr
                0x000000008089eaac        0x4 net/built-in.o
                0x000000008089eaac                arp_wait_packet_ethaddr
 .bss.arp_wait_timer_start
                0x000000008089eab0        0x4 net/built-in.o
                0x000000008089eab0                arp_wait_timer_start
 .bss.arp_wait_try
                0x000000008089eab4        0x4 net/built-in.o
                0x000000008089eab4                arp_wait_try
 .bss.arp_wait_tx_packet_size
                0x000000008089eab8        0x4 net/built-in.o
                0x000000008089eab8                arp_wait_tx_packet_size
 .bss.net_arp_wait_packet_ip
                0x000000008089eabc        0x4 net/built-in.o
                0x000000008089eabc                net_arp_wait_packet_ip
 .bss.net_arp_wait_reply_ip
                0x000000008089eac0        0x4 net/built-in.o
 .bss.bootp_ids
                0x000000008089eac4       0x10 net/built-in.o
                0x000000008089eac4                bootp_ids
 .bss.bootp_num_ids
                0x000000008089ead4        0x4 net/built-in.o
                0x000000008089ead4                bootp_num_ids
 .bss.bootp_start
                0x000000008089ead8        0x4 net/built-in.o
                0x000000008089ead8                bootp_start
 .bss.bootp_timeout
                0x000000008089eadc        0x4 net/built-in.o
                0x000000008089eadc                bootp_timeout
 .bss.bootp_try
                0x000000008089eae0        0x4 net/built-in.o
                0x000000008089eae0                bootp_try
 .bss.dhcp_leasetime
                0x000000008089eae4        0x4 net/built-in.o
 .bss.dhcp_option_overload
                0x000000008089eae8        0x1 net/built-in.o
 *fill*         0x000000008089eae9        0x3 
 .bss.dhcp_server_ip
                0x000000008089eaec        0x4 net/built-in.o
 .bss.dhcp_state
                0x000000008089eaf0        0x4 net/built-in.o
 .bss.net_hostname
                0x000000008089eaf4       0x20 net/built-in.o
                0x000000008089eaf4                net_hostname
 .bss.net_nis_domain
                0x000000008089eb14       0x20 net/built-in.o
                0x000000008089eb14                net_nis_domain
 .bss.net_root_path
                0x000000008089eb34       0x40 net/built-in.o
                0x000000008089eb34                net_root_path
 .bss.time_taken_max
                0x000000008089eb74        0x4 net/built-in.o
 .bss.eth_errno
                0x000000008089eb78        0x4 net/built-in.o
 .bss.act.10046
                0x000000008089eb7c        0x4 net/built-in.o
 .bss.env_changed_id.10047
                0x000000008089eb80        0x4 net/built-in.o
 .bss.first_failed.10041
                0x000000008089eb84        0x4 net/built-in.o
 .bss.arp_packet_handler
                0x000000008089eb88        0x4 net/built-in.o
 .bss.net_boot_file_expected_size_in_blocks
                0x000000008089eb8c        0x4 net/built-in.o
                0x000000008089eb8c                net_boot_file_expected_size_in_blocks
 .bss.net_boot_file_name
                0x000000008089eb90      0x400 net/built-in.o
                0x000000008089eb90                net_boot_file_name
 .bss.net_boot_file_size
                0x000000008089ef90        0x4 net/built-in.o
                0x000000008089ef90                net_boot_file_size
 .bss.net_dev_exists
                0x000000008089ef94        0x4 net/built-in.o
 .bss.net_dns_server
                0x000000008089ef98        0x4 net/built-in.o
                0x000000008089ef98                net_dns_server
 .bss.net_dns_server2
                0x000000008089ef9c        0x4 net/built-in.o
                0x000000008089ef9c                net_dns_server2
 .bss.net_ethaddr
                0x000000008089efa0        0x6 net/built-in.o
                0x000000008089efa0                net_ethaddr
 *fill*         0x000000008089efa6        0x2 
 .bss.net_gateway
                0x000000008089efa8        0x4 net/built-in.o
                0x000000008089efa8                net_gateway
 .bss.net_ip    0x000000008089efac        0x4 net/built-in.o
                0x000000008089efac                net_ip
 .bss.net_ip_id
                0x000000008089efb0        0x4 net/built-in.o
 .bss.net_netmask
                0x000000008089efb4        0x4 net/built-in.o
                0x000000008089efb4                net_netmask
 .bss.net_null_ethaddr
                0x000000008089efb8        0x6 net/built-in.o
                0x000000008089efb8                net_null_ethaddr
 .bss.net_pkt_buf
                0x000000008089efbe     0x1e40 net/built-in.o
 *fill*         0x00000000808a0dfe        0x2 
 .bss.net_restart_wrap
                0x00000000808a0e00        0x4 net/built-in.o
                0x00000000808a0e00                net_restart_wrap
 .bss.net_restarted
                0x00000000808a0e04        0x4 net/built-in.o
 .bss.net_rx_packet
                0x00000000808a0e08        0x4 net/built-in.o
                0x00000000808a0e08                net_rx_packet
 .bss.net_rx_packet_len
                0x00000000808a0e0c        0x4 net/built-in.o
                0x00000000808a0e0c                net_rx_packet_len
 .bss.net_rx_packets
                0x00000000808a0e10       0x10 net/built-in.o
                0x00000000808a0e10                net_rx_packets
 .bss.net_server_ethaddr
                0x00000000808a0e20        0x6 net/built-in.o
                0x00000000808a0e20                net_server_ethaddr
 *fill*         0x00000000808a0e26        0x2 
 .bss.net_server_ip
                0x00000000808a0e28        0x4 net/built-in.o
                0x00000000808a0e28                net_server_ip
 .bss.net_state
                0x00000000808a0e2c        0x4 net/built-in.o
                0x00000000808a0e2c                net_state
 .bss.net_try_count
                0x00000000808a0e30        0x4 net/built-in.o
 .bss.net_tx_packet
                0x00000000808a0e34        0x4 net/built-in.o
                0x00000000808a0e34                net_tx_packet
 .bss.push_packet
                0x00000000808a0e38        0x4 net/built-in.o
                0x00000000808a0e38                push_packet
 .bss.time_delta
                0x00000000808a0e3c        0x4 net/built-in.o
 .bss.time_handler
                0x00000000808a0e40        0x4 net/built-in.o
 .bss.time_start
                0x00000000808a0e44        0x8 net/built-in.o
 .bss.udp_packet_handler
                0x00000000808a0e4c        0x4 net/built-in.o
 .bss.dirfh     0x00000000808a0e50       0x20 net/built-in.o
 .bss.filefh    0x00000000808a0e70       0x40 net/built-in.o
 .bss.filefh3_length
                0x00000000808a0eb0        0x4 net/built-in.o
 .bss.fs_mounted
                0x00000000808a0eb4        0x4 net/built-in.o
 .bss.nfs_download_state
                0x00000000808a0eb8        0x4 net/built-in.o
 .bss.nfs_filename
                0x00000000808a0ebc        0x4 net/built-in.o
 .bss.nfs_len   0x00000000808a0ec0        0x4 net/built-in.o
 .bss.nfs_our_port
                0x00000000808a0ec4        0x4 net/built-in.o
 .bss.nfs_path  0x00000000808a0ec8        0x4 net/built-in.o
 .bss.nfs_path_buff
                0x00000000808a0ecc      0x800 net/built-in.o
 .bss.nfs_server_ip
                0x00000000808a16cc        0x4 net/built-in.o
 .bss.nfs_server_mount_port
                0x00000000808a16d0        0x4 net/built-in.o
 .bss.nfs_server_port
                0x00000000808a16d4        0x4 net/built-in.o
 .bss.nfs_state
                0x00000000808a16d8        0x4 net/built-in.o
 .bss.nfs_timeout_count
                0x00000000808a16dc        0x4 net/built-in.o
 .bss.rpc_id    0x00000000808a16e0        0x4 net/built-in.o
 .bss.net_ping_ip
                0x00000000808a16e4        0x4 net/built-in.o
                0x00000000808a16e4                net_ping_ip
 .bss.ping_seq_number
                0x00000000808a16e8        0x2 net/built-in.o
 .bss.default_filename
                0x00000000808a16ea        0xd net/built-in.o
 *fill*         0x00000000808a16f7        0x1 
 .bss.tftp_block_wrap
                0x00000000808a16f8        0x4 net/built-in.o
 .bss.tftp_block_wrap_offset
                0x00000000808a16fc        0x4 net/built-in.o
 .bss.tftp_cur_block
                0x00000000808a1700        0x4 net/built-in.o
 .bss.tftp_filename
                0x00000000808a1704       0x80 net/built-in.o
 .bss.tftp_our_port
                0x00000000808a1784        0x4 net/built-in.o
 .bss.tftp_prev_block
                0x00000000808a1788        0x4 net/built-in.o
 .bss.tftp_remote_ip
                0x00000000808a178c        0x4 net/built-in.o
 .bss.tftp_remote_port
                0x00000000808a1790        0x4 net/built-in.o
 .bss.tftp_state
                0x00000000808a1794        0x4 net/built-in.o
 .bss.timeout_count
                0x00000000808a1798        0x4 net/built-in.o
                0x00000000808a179c                . = ALIGN (0x4)
                0x00000000808a179c                __bss_limit = .

.bss_end        0x00000000808a179c        0x0
 *(.__bss_end)
 .__bss_end     0x00000000808a179c        0x0 arch/arm/lib/built-in.o
                0x00000000808a179c                __bss_end

.dynsym         0x0000000080870e10       0x30
 *(.dynsym)
 .dynsym        0x0000000080870e10       0x30 arch/arm/cpu/armv7/start.o

.dynbss         0x0000000080870e40        0x0
 *(.dynbss)
 .dynbss        0x0000000080870e40        0x0 arch/arm/cpu/armv7/start.o

.dynstr         0x0000000080870e40        0x1
 *(.dynstr*)
 .dynstr        0x0000000080870e40        0x1 arch/arm/cpu/armv7/start.o

.dynamic        0x0000000080870e44       0x88
 *(.dynamic*)
 .dynamic       0x0000000080870e44       0x88 arch/arm/cpu/armv7/start.o
                0x0000000080870e44                _DYNAMIC

.gnu.hash
 *(.gnu.hash)

.plt            0x0000000080870ecc        0x0
 *(.plt*)
 .plt           0x0000000080870ecc        0x0 arch/arm/cpu/armv7/start.o

.interp
 *(.interp*)

.gnu            0x0000000080870ecc        0x0
 *(.gnu*)
 .gnu.version_d
                0x0000000080870ecc        0x0 arch/arm/cpu/armv7/start.o
 .gnu.version   0x0000000080870ecc        0x0 arch/arm/cpu/armv7/start.o
 .gnu.version_r
                0x0000000080870ecc        0x0 arch/arm/cpu/armv7/start.o

.ARM.exidx
 *(.ARM.exidx*)
LOAD arch/arm/cpu/armv7/start.o
START GROUP
LOAD arch/arm/cpu/built-in.o
LOAD arch/arm/cpu/armv7/built-in.o
LOAD arch/arm/lib/built-in.o
LOAD arch/arm/mach-omap2/built-in.o
LOAD board/ti/am335x/built-in.o
LOAD board/ti/common/built-in.o
LOAD cmd/built-in.o
LOAD common/built-in.o
LOAD disk/built-in.o
LOAD drivers/built-in.o
LOAD drivers/dma/built-in.o
LOAD drivers/gpio/built-in.o
LOAD drivers/i2c/built-in.o
LOAD drivers/mtd/built-in.o
LOAD drivers/mtd/nand/built-in.o
LOAD drivers/mtd/onenand/built-in.o
LOAD drivers/mtd/spi/built-in.o
LOAD drivers/net/built-in.o
LOAD drivers/net/phy/built-in.o
LOAD drivers/pci/built-in.o
LOAD drivers/power/built-in.o
LOAD drivers/power/battery/built-in.o
LOAD drivers/power/domain/built-in.o
LOAD drivers/power/fuel_gauge/built-in.o
LOAD drivers/power/mfd/built-in.o
LOAD drivers/power/pmic/built-in.o
LOAD drivers/power/regulator/built-in.o
LOAD drivers/serial/built-in.o
LOAD drivers/spi/built-in.o
LOAD drivers/usb/common/built-in.o
LOAD drivers/usb/dwc3/built-in.o
LOAD drivers/usb/emul/built-in.o
LOAD drivers/usb/eth/built-in.o
LOAD drivers/usb/gadget/built-in.o
LOAD drivers/usb/gadget/udc/built-in.o
LOAD drivers/usb/host/built-in.o
LOAD drivers/usb/musb-new/built-in.o
LOAD drivers/usb/musb/built-in.o
LOAD drivers/usb/phy/built-in.o
LOAD drivers/usb/ulpi/built-in.o
LOAD env/built-in.o
LOAD fs/built-in.o
LOAD lib/built-in.o
LOAD net/built-in.o
LOAD test/built-in.o
LOAD test/dm/built-in.o
END GROUP
LOAD arch/arm/lib/eabi_compat.o
LOAD arch/arm/lib/lib.a
OUTPUT(u-boot elf32-littlearm)

.ARM.attributes
                0x0000000000000000       0x2d
 .ARM.attributes
                0x0000000000000000       0x1f arch/arm/cpu/armv7/start.o
 .ARM.attributes
                0x000000000000001f       0x2d board/ti/am335x/built-in.o
 .ARM.attributes
                0x000000000000004c       0x2d arch/arm/cpu/armv7/built-in.o
 .ARM.attributes
                0x0000000000000079       0x2b arch/arm/lib/built-in.o
 .ARM.attributes
                0x00000000000000a4       0x2f arch/arm/mach-omap2/built-in.o
 .ARM.attributes
                0x00000000000000d3       0x2d board/ti/common/built-in.o
 .ARM.attributes
                0x0000000000000100       0x2f cmd/built-in.o
 .ARM.attributes
                0x000000000000012f       0x2d common/built-in.o
 .ARM.attributes
                0x000000000000015c       0x2d disk/built-in.o
 .ARM.attributes
                0x0000000000000189       0x2f drivers/built-in.o
 .ARM.attributes
                0x00000000000001b8       0x2d drivers/gpio/built-in.o
 .ARM.attributes
                0x00000000000001e5       0x2d drivers/i2c/built-in.o
 .ARM.attributes
                0x0000000000000212       0x2d drivers/mtd/built-in.o
 .ARM.attributes
                0x000000000000023f       0x2f drivers/mtd/nand/built-in.o
 .ARM.attributes
                0x000000000000026e       0x2f drivers/mtd/spi/built-in.o
 .ARM.attributes
                0x000000000000029d       0x2d drivers/net/built-in.o
 .ARM.attributes
                0x00000000000002ca       0x2d drivers/net/phy/built-in.o
 .ARM.attributes
                0x00000000000002f7       0x2d drivers/serial/built-in.o
 .ARM.attributes
                0x0000000000000324       0x2d drivers/spi/built-in.o
 .ARM.attributes
                0x0000000000000351       0x2d drivers/usb/common/built-in.o
 .ARM.attributes
                0x000000000000037e       0x2d drivers/usb/gadget/built-in.o
 .ARM.attributes
                0x00000000000003ab       0x2d drivers/usb/host/built-in.o
 .ARM.attributes
                0x00000000000003d8       0x2d drivers/usb/musb-new/built-in.o
 .ARM.attributes
                0x0000000000000405       0x2d env/built-in.o
 .ARM.attributes
                0x0000000000000432       0x2d fs/built-in.o
 .ARM.attributes
                0x000000000000045f       0x2f lib/built-in.o
 .ARM.attributes
                0x000000000000048e       0x2d net/built-in.o
 .ARM.attributes
                0x00000000000004bb       0x2d test/dm/built-in.o
 .ARM.attributes
                0x00000000000004e8       0x1f arch/arm/lib/lib.a(ashldi3.o)
 .ARM.attributes
                0x0000000000000507       0x1f arch/arm/lib/lib.a(ashrdi3.o)
 .ARM.attributes
                0x0000000000000526       0x1f arch/arm/lib/lib.a(lib1funcs.o)
 .ARM.attributes
                0x0000000000000545       0x1f arch/arm/lib/lib.a(lshrdi3.o)
 .ARM.attributes
                0x0000000000000564       0x2d arch/arm/lib/lib.a(div0.o)

.comment        0x0000000000000000       0x2d
 .comment       0x0000000000000000       0x2d board/ti/am335x/built-in.o
                                         0x2e (size before relaxing)
 .comment       0x000000000000002d       0xb8 arch/arm/cpu/armv7/built-in.o
 .comment       0x000000000000002d      0x1cc arch/arm/lib/built-in.o
 .comment       0x000000000000002d      0x30e arch/arm/mach-omap2/built-in.o
 .comment       0x000000000000002d       0x2e board/ti/common/built-in.o
 .comment       0x000000000000002d      0x844 cmd/built-in.o
 .comment       0x000000000000002d      0x61c common/built-in.o
 .comment       0x000000000000002d       0xb8 disk/built-in.o
 .comment       0x000000000000002d      0x61c drivers/built-in.o
 .comment       0x000000000000002d       0x5c drivers/gpio/built-in.o
 .comment       0x000000000000002d       0x8a drivers/i2c/built-in.o
 .comment       0x000000000000002d       0x5c drivers/mtd/built-in.o
 .comment       0x000000000000002d      0x19e drivers/mtd/nand/built-in.o
 .comment       0x000000000000002d       0xb8 drivers/mtd/spi/built-in.o
 .comment       0x000000000000002d       0x5c drivers/net/built-in.o
 .comment       0x000000000000002d       0x8a drivers/net/phy/built-in.o
 .comment       0x000000000000002d       0x5c drivers/serial/built-in.o
 .comment       0x000000000000002d       0x5c drivers/spi/built-in.o
 .comment       0x000000000000002d       0x2e drivers/usb/common/built-in.o
 .comment       0x000000000000002d      0x170 drivers/usb/gadget/built-in.o
 .comment       0x000000000000002d       0x2e drivers/usb/host/built-in.o
 .comment       0x000000000000002d      0x142 drivers/usb/musb-new/built-in.o
 .comment       0x000000000000002d      0x114 env/built-in.o
 .comment       0x000000000000002d      0x19e fs/built-in.o
 .comment       0x000000000000002d      0xb80 lib/built-in.o
 .comment       0x000000000000002d      0x19e net/built-in.o
 .comment       0x000000000000002d       0x2e test/dm/built-in.o
 .comment       0x000000000000002d       0x2e arch/arm/lib/lib.a(div0.o)

.note.GNU-stack
                0x0000000000000000        0x0
 .note.GNU-stack
                0x0000000000000000        0x0 board/ti/am335x/built-in.o
 .note.GNU-stack
                0x0000000000000000        0x0 arch/arm/cpu/armv7/built-in.o
 .note.GNU-stack
                0x0000000000000000        0x0 arch/arm/lib/built-in.o
 .note.GNU-stack
                0x0000000000000000        0x0 arch/arm/mach-omap2/built-in.o
 .note.GNU-stack
                0x0000000000000000        0x0 board/ti/common/built-in.o
 .note.GNU-stack
                0x0000000000000000        0x0 cmd/built-in.o
 .note.GNU-stack
                0x0000000000000000        0x0 common/built-in.o
 .note.GNU-stack
                0x0000000000000000        0x0 disk/built-in.o
 .note.GNU-stack
                0x0000000000000000        0x0 drivers/built-in.o
 .note.GNU-stack
                0x0000000000000000        0x0 drivers/gpio/built-in.o
 .note.GNU-stack
                0x0000000000000000        0x0 drivers/i2c/built-in.o
 .note.GNU-stack
                0x0000000000000000        0x0 drivers/mtd/built-in.o
 .note.GNU-stack
                0x0000000000000000        0x0 drivers/mtd/nand/built-in.o
 .note.GNU-stack
                0x0000000000000000        0x0 drivers/mtd/spi/built-in.o
 .note.GNU-stack
                0x0000000000000000        0x0 drivers/net/built-in.o
 .note.GNU-stack
                0x0000000000000000        0x0 drivers/net/phy/built-in.o
 .note.GNU-stack
                0x0000000000000000        0x0 drivers/serial/built-in.o
 .note.GNU-stack
                0x0000000000000000        0x0 drivers/spi/built-in.o
 .note.GNU-stack
                0x0000000000000000        0x0 drivers/usb/common/built-in.o
 .note.GNU-stack
                0x0000000000000000        0x0 drivers/usb/gadget/built-in.o
 .note.GNU-stack
                0x0000000000000000        0x0 drivers/usb/host/built-in.o
 .note.GNU-stack
                0x0000000000000000        0x0 drivers/usb/musb-new/built-in.o
 .note.GNU-stack
                0x0000000000000000        0x0 env/built-in.o
 .note.GNU-stack
                0x0000000000000000        0x0 fs/built-in.o
 .note.GNU-stack
                0x0000000000000000        0x0 lib/built-in.o
 .note.GNU-stack
                0x0000000000000000        0x0 net/built-in.o
 .note.GNU-stack
                0x0000000000000000        0x0 test/dm/built-in.o
 .note.GNU-stack
                0x0000000000000000        0x0 arch/arm/lib/lib.a(div0.o)

.debug_line     0x0000000000000000    0x41c09
 .debug_line    0x0000000000000000       0x86 arch/arm/cpu/armv7/start.o
 .debug_line    0x0000000000000086      0x4ad board/ti/am335x/built-in.o
 .debug_line    0x0000000000000533      0x767 arch/arm/cpu/armv7/built-in.o
 .debug_line    0x0000000000000c9a     0x1649 arch/arm/lib/built-in.o
 .debug_line    0x00000000000022e3     0x23ce arch/arm/mach-omap2/built-in.o
 .debug_line    0x00000000000046b1      0x466 board/ti/common/built-in.o
 .debug_line    0x0000000000004b17     0x91dc cmd/built-in.o
 .debug_line    0x000000000000dcf3     0x93ef common/built-in.o
 .debug_line    0x00000000000170e2     0x14ca disk/built-in.o
 .debug_line    0x00000000000185ac     0x7142 drivers/built-in.o
 .debug_line    0x000000000001f6ee      0xb7f drivers/gpio/built-in.o
 .debug_line    0x000000000002026d      0xcb2 drivers/i2c/built-in.o
 .debug_line    0x0000000000020f1f      0x8df drivers/mtd/built-in.o
 .debug_line    0x00000000000217fe     0x351b drivers/mtd/nand/built-in.o
 .debug_line    0x0000000000024d19      0xae8 drivers/mtd/spi/built-in.o
 .debug_line    0x0000000000025801      0xa52 drivers/net/built-in.o
 .debug_line    0x0000000000026253      0xa30 drivers/net/phy/built-in.o
 .debug_line    0x0000000000026c83      0x868 drivers/serial/built-in.o
 .debug_line    0x00000000000274eb      0x58e drivers/spi/built-in.o
 .debug_line    0x0000000000027a79      0x1e8 drivers/usb/common/built-in.o
 .debug_line    0x0000000000027c61     0x2d7d drivers/usb/gadget/built-in.o
 .debug_line    0x000000000002a9de      0x6a8 drivers/usb/host/built-in.o
 .debug_line    0x000000000002b086     0x3419 drivers/usb/musb-new/built-in.o
 .debug_line    0x000000000002e49f      0xecb env/built-in.o
 .debug_line    0x000000000002f36a     0x399e fs/built-in.o
 .debug_line    0x0000000000032d08     0xc277 lib/built-in.o
 .debug_line    0x000000000003ef7f     0x2834 net/built-in.o
 .debug_line    0x00000000000417b3      0x23a test/dm/built-in.o
 .debug_line    0x00000000000419ed       0x4d arch/arm/lib/lib.a(ashldi3.o)
 .debug_line    0x0000000000041a3a       0x4d arch/arm/lib/lib.a(ashrdi3.o)
 .debug_line    0x0000000000041a87       0xf1 arch/arm/lib/lib.a(lib1funcs.o)
 .debug_line    0x0000000000041b78       0x4d arch/arm/lib/lib.a(lshrdi3.o)
 .debug_line    0x0000000000041bc5       0x44 arch/arm/lib/lib.a(div0.o)

.debug_info     0x0000000000000000   0x21491a
 .debug_info    0x0000000000000000       0x77 arch/arm/cpu/armv7/start.o
 .debug_info    0x0000000000000077     0x44f5 board/ti/am335x/built-in.o
 .debug_info    0x000000000000456c     0x3169 arch/arm/cpu/armv7/built-in.o
 .debug_info    0x00000000000076d5     0xa7eb arch/arm/lib/built-in.o
 .debug_info    0x0000000000011ec0    0x1e080 arch/arm/mach-omap2/built-in.o
 .debug_info    0x000000000002ff40     0x37b5 board/ti/common/built-in.o
 .debug_info    0x00000000000336f5    0x4ca61 cmd/built-in.o
 .debug_info    0x0000000000080156    0x44226 common/built-in.o
 .debug_info    0x00000000000c437c     0x8c21 disk/built-in.o
 .debug_info    0x00000000000ccf9d    0x3c35d drivers/built-in.o
 .debug_info    0x00000000001092fa     0x51e3 drivers/gpio/built-in.o
 .debug_info    0x000000000010e4dd     0x6d82 drivers/i2c/built-in.o
 .debug_info    0x000000000011525f     0x3e04 drivers/mtd/built-in.o
 .debug_info    0x0000000000119063    0x1a926 drivers/mtd/nand/built-in.o
 .debug_info    0x0000000000133989     0x62c9 drivers/mtd/spi/built-in.o
 .debug_info    0x0000000000139c52     0x5fd6 drivers/net/built-in.o
 .debug_info    0x000000000013fc28     0x49ac drivers/net/phy/built-in.o
 .debug_info    0x00000000001445d4     0x4839 drivers/serial/built-in.o
 .debug_info    0x0000000000148e0d     0x3161 drivers/spi/built-in.o
 .debug_info    0x000000000014bf6e      0xe26 drivers/usb/common/built-in.o
 .debug_info    0x000000000014cd94    0x15c19 drivers/usb/gadget/built-in.o
 .debug_info    0x00000000001629ad     0x35ac drivers/usb/host/built-in.o
 .debug_info    0x0000000000165f59    0x1fc86 drivers/usb/musb-new/built-in.o
 .debug_info    0x0000000000185bdf     0x77fa env/built-in.o
 .debug_info    0x000000000018d3d9    0x19622 fs/built-in.o
 .debug_info    0x00000000001a69fb    0x59a6d lib/built-in.o
 .debug_info    0x0000000000200468    0x12beb net/built-in.o
 .debug_info    0x0000000000213053     0x16a6 test/dm/built-in.o
 .debug_info    0x00000000002146f9       0x73 arch/arm/lib/lib.a(ashldi3.o)
 .debug_info    0x000000000021476c       0x73 arch/arm/lib/lib.a(ashrdi3.o)
 .debug_info    0x00000000002147df       0x71 arch/arm/lib/lib.a(lib1funcs.o)
 .debug_info    0x0000000000214850       0x73 arch/arm/lib/lib.a(lshrdi3.o)
 .debug_info    0x00000000002148c3       0x57 arch/arm/lib/lib.a(div0.o)

.debug_abbrev   0x0000000000000000    0x3e59a
 .debug_abbrev  0x0000000000000000       0x14 arch/arm/cpu/armv7/start.o
 .debug_abbrev  0x0000000000000014      0x43a board/ti/am335x/built-in.o
 .debug_abbrev  0x000000000000044e      0x987 arch/arm/cpu/armv7/built-in.o
 .debug_abbrev  0x0000000000000dd5     0x18ad arch/arm/lib/built-in.o
 .debug_abbrev  0x0000000000002682     0x2a8e arch/arm/mach-omap2/built-in.o
 .debug_abbrev  0x0000000000005110      0x50e board/ti/common/built-in.o
 .debug_abbrev  0x000000000000561e     0x998d cmd/built-in.o
 .debug_abbrev  0x000000000000efab     0x830e common/built-in.o
 .debug_abbrev  0x00000000000172b9     0x1352 disk/built-in.o
 .debug_abbrev  0x000000000001860b     0x79e8 drivers/built-in.o
 .debug_abbrev  0x000000000001fff3      0xa13 drivers/gpio/built-in.o
 .debug_abbrev  0x0000000000020a06      0xd15 drivers/i2c/built-in.o
 .debug_abbrev  0x000000000002171b      0x7b2 drivers/mtd/built-in.o
 .debug_abbrev  0x0000000000021ecd     0x23d1 drivers/mtd/nand/built-in.o
 .debug_abbrev  0x000000000002429e      0xca6 drivers/mtd/spi/built-in.o
 .debug_abbrev  0x0000000000024f44      0x837 drivers/net/built-in.o
 .debug_abbrev  0x000000000002577b      0xa33 drivers/net/phy/built-in.o
 .debug_abbrev  0x00000000000261ae      0xa49 drivers/serial/built-in.o
 .debug_abbrev  0x0000000000026bf7      0x6f9 drivers/spi/built-in.o
 .debug_abbrev  0x00000000000272f0      0x264 drivers/usb/common/built-in.o
 .debug_abbrev  0x0000000000027554     0x24f9 drivers/usb/gadget/built-in.o
 .debug_abbrev  0x0000000000029a4d      0x545 drivers/usb/host/built-in.o
 .debug_abbrev  0x0000000000029f92     0x2616 drivers/usb/musb-new/built-in.o
 .debug_abbrev  0x000000000002c5a8     0x1335 env/built-in.o
 .debug_abbrev  0x000000000002d8dd     0x263c fs/built-in.o
 .debug_abbrev  0x000000000002ff19     0xbe6e lib/built-in.o
 .debug_abbrev  0x000000000003bd87     0x2499 net/built-in.o
 .debug_abbrev  0x000000000003e220      0x2ce test/dm/built-in.o
 .debug_abbrev  0x000000000003e4ee       0x14 arch/arm/lib/lib.a(ashldi3.o)
 .debug_abbrev  0x000000000003e502       0x14 arch/arm/lib/lib.a(ashrdi3.o)
 .debug_abbrev  0x000000000003e516       0x12 arch/arm/lib/lib.a(lib1funcs.o)
 .debug_abbrev  0x000000000003e528       0x14 arch/arm/lib/lib.a(lshrdi3.o)
 .debug_abbrev  0x000000000003e53c       0x5e arch/arm/lib/lib.a(div0.o)

.debug_aranges  0x0000000000000000     0x6a70
 .debug_aranges
                0x0000000000000000       0x20 arch/arm/cpu/armv7/start.o
 .debug_aranges
                0x0000000000000020       0x40 board/ti/am335x/built-in.o
 .debug_aranges
                0x0000000000000060      0x100 arch/arm/cpu/armv7/built-in.o
 .debug_aranges
                0x0000000000000160      0x318 arch/arm/lib/built-in.o
 .debug_aranges
                0x0000000000000478      0x390 arch/arm/mach-omap2/built-in.o
 .debug_aranges
                0x0000000000000808       0xa8 board/ti/common/built-in.o
 .debug_aranges
                0x00000000000008b0      0xbc0 cmd/built-in.o
 .debug_aranges
                0x0000000000001470     0x1030 common/built-in.o
 .debug_aranges
                0x00000000000024a0      0x1b0 disk/built-in.o
 .debug_aranges
                0x0000000000002650      0xbd8 drivers/built-in.o
 .debug_aranges
                0x0000000000003228      0x1c0 drivers/gpio/built-in.o
 .debug_aranges
                0x00000000000033e8      0x188 drivers/i2c/built-in.o
 .debug_aranges
                0x0000000000003570      0x130 drivers/mtd/built-in.o
 .debug_aranges
                0x00000000000036a0      0x438 drivers/mtd/nand/built-in.o
 .debug_aranges
                0x0000000000003ad8       0xd8 drivers/mtd/spi/built-in.o
 .debug_aranges
                0x0000000000003bb0       0xe0 drivers/net/built-in.o
 .debug_aranges
                0x0000000000003c90      0x130 drivers/net/phy/built-in.o
 .debug_aranges
                0x0000000000003dc0      0x138 drivers/serial/built-in.o
 .debug_aranges
                0x0000000000003ef8       0x90 drivers/spi/built-in.o
 .debug_aranges
                0x0000000000003f88       0x20 drivers/usb/common/built-in.o
 .debug_aranges
                0x0000000000003fa8      0x4c8 drivers/usb/gadget/built-in.o
 .debug_aranges
                0x0000000000004470       0xd0 drivers/usb/host/built-in.o
 .debug_aranges
                0x0000000000004540      0x300 drivers/usb/musb-new/built-in.o
 .debug_aranges
                0x0000000000004840      0x198 env/built-in.o
 .debug_aranges
                0x00000000000049d8      0x4d8 fs/built-in.o
 .debug_aranges
                0x0000000000004eb0     0x1698 lib/built-in.o
 .debug_aranges
                0x0000000000006548      0x428 net/built-in.o
 .debug_aranges
                0x0000000000006970       0x38 test/dm/built-in.o
 .debug_aranges
                0x00000000000069a8       0x20 arch/arm/lib/lib.a(ashldi3.o)
 .debug_aranges
                0x00000000000069c8       0x20 arch/arm/lib/lib.a(ashrdi3.o)
 .debug_aranges
                0x00000000000069e8       0x48 arch/arm/lib/lib.a(lib1funcs.o)
 .debug_aranges
                0x0000000000006a30       0x20 arch/arm/lib/lib.a(lshrdi3.o)
 .debug_aranges
                0x0000000000006a50       0x20 arch/arm/lib/lib.a(div0.o)

.debug_frame    0x0000000000000000    0x13a50
 .debug_frame   0x0000000000000000       0xbc board/ti/am335x/built-in.o
 .debug_frame   0x00000000000000bc      0x1ec arch/arm/cpu/armv7/built-in.o
 .debug_frame   0x00000000000002a8      0x458 arch/arm/lib/built-in.o
 .debug_frame   0x0000000000000700      0x660 arch/arm/mach-omap2/built-in.o
 .debug_frame   0x0000000000000d60      0x1e4 board/ti/common/built-in.o
 .debug_frame   0x0000000000000f44     0x21e0 cmd/built-in.o
 .debug_frame   0x0000000000003124     0x32b4 common/built-in.o
 .debug_frame   0x00000000000063d8      0x668 disk/built-in.o
 .debug_frame   0x0000000000006a40     0x20e4 drivers/built-in.o
 .debug_frame   0x0000000000008b24      0x610 drivers/gpio/built-in.o
 .debug_frame   0x0000000000009134      0x4ec drivers/i2c/built-in.o
 .debug_frame   0x0000000000009620      0x4cc drivers/mtd/built-in.o
 .debug_frame   0x0000000000009aec      0xf3c drivers/mtd/nand/built-in.o
 .debug_frame   0x000000000000aa28      0x224 drivers/mtd/spi/built-in.o
 .debug_frame   0x000000000000ac4c      0x2f8 drivers/net/built-in.o
 .debug_frame   0x000000000000af44      0x34c drivers/net/phy/built-in.o
 .debug_frame   0x000000000000b290      0x344 drivers/serial/built-in.o
 .debug_frame   0x000000000000b5d4      0x154 drivers/spi/built-in.o
 .debug_frame   0x000000000000b728       0x2c drivers/usb/common/built-in.o
 .debug_frame   0x000000000000b754      0xe24 drivers/usb/gadget/built-in.o
 .debug_frame   0x000000000000c578      0x2b8 drivers/usb/host/built-in.o
 .debug_frame   0x000000000000c830      0xa04 drivers/usb/musb-new/built-in.o
 .debug_frame   0x000000000000d234      0x484 env/built-in.o
 .debug_frame   0x000000000000d6b8     0x1164 fs/built-in.o
 .debug_frame   0x000000000000e81c     0x4454 lib/built-in.o
 .debug_frame   0x0000000000012c70      0xd48 net/built-in.o
 .debug_frame   0x00000000000139b8       0x78 test/dm/built-in.o
 .debug_frame   0x0000000000013a30       0x20 arch/arm/lib/lib.a(div0.o)

.debug_str      0x0000000000000000    0x25a50
 .debug_str     0x0000000000000000     0x3fb0 board/ti/am335x/built-in.o
                                       0x43e8 (size before relaxing)
 .debug_str     0x0000000000003fb0      0x357 arch/arm/cpu/armv7/built-in.o
                                       0x2bfc (size before relaxing)
 .debug_str     0x0000000000004307     0x18d7 arch/arm/lib/built-in.o
                                       0x8ccd (size before relaxing)
 .debug_str     0x0000000000005bde     0x1d9c arch/arm/mach-omap2/built-in.o
                                      0x203a3 (size before relaxing)
 .debug_str     0x000000000000797a      0x286 board/ti/common/built-in.o
                                       0x3a72 (size before relaxing)
 .debug_str     0x0000000000007c00     0x6564 cmd/built-in.o
                                      0x31223 (size before relaxing)
 .debug_str     0x000000000000e164     0x43c8 common/built-in.o
                                      0x2c906 (size before relaxing)
 .debug_str     0x000000000001252c      0x9b9 disk/built-in.o
                                       0x4681 (size before relaxing)
 .debug_str     0x0000000000012ee5     0x2b99 drivers/built-in.o
                                      0x2b375 (size before relaxing)
 .debug_str     0x0000000000015a7e      0x4e6 drivers/gpio/built-in.o
                                       0x30c0 (size before relaxing)
 .debug_str     0x0000000000015f64      0x521 drivers/i2c/built-in.o
                                       0x4443 (size before relaxing)
 .debug_str     0x0000000000016485      0x892 drivers/mtd/built-in.o
                                       0x2415 (size before relaxing)
 .debug_str     0x0000000000016d17     0x1858 drivers/mtd/nand/built-in.o
                                       0xd04b (size before relaxing)
 .debug_str     0x000000000001856f      0x3ae drivers/mtd/spi/built-in.o
                                       0x4ae4 (size before relaxing)
 .debug_str     0x000000000001891d      0x988 drivers/net/built-in.o
                                       0x3624 (size before relaxing)
 .debug_str     0x00000000000192a5      0x30e drivers/net/phy/built-in.o
                                       0x2d1d (size before relaxing)
 .debug_str     0x00000000000195b3      0x4a1 drivers/serial/built-in.o
                                       0x3023 (size before relaxing)
 .debug_str     0x0000000000019a54      0x15e drivers/spi/built-in.o
                                       0x201f (size before relaxing)
 .debug_str     0x0000000000019bb2       0x91 drivers/usb/common/built-in.o
                                        0xc89 (size before relaxing)
 .debug_str     0x0000000000019c43     0x1db2 drivers/usb/gadget/built-in.o
                                       0xc0bb (size before relaxing)
 .debug_str     0x000000000001b9f5      0x261 drivers/usb/host/built-in.o
                                       0x1ec1 (size before relaxing)
 .debug_str     0x000000000001bc56     0x193e drivers/usb/musb-new/built-in.o
                                      0x11ea8 (size before relaxing)
 .debug_str     0x000000000001d594      0x5c6 env/built-in.o
                                       0x5d0b (size before relaxing)
 .debug_str     0x000000000001db5a     0x1c90 fs/built-in.o
                                       0xc08c (size before relaxing)
 .debug_str     0x000000000001f7ea     0x4ed5 lib/built-in.o
                                      0x37a06 (size before relaxing)
 .debug_str     0x00000000000246bf     0x12fd net/built-in.o
                                       0xd3e1 (size before relaxing)
 .debug_str     0x00000000000259bc       0x79 test/dm/built-in.o
                                       0x143f (size before relaxing)
 .debug_str     0x0000000000025a35       0x1b arch/arm/lib/lib.a(div0.o)
                                        0x1cb (size before relaxing)

.debug_loc      0x0000000000000000    0xb6b72
 .debug_loc     0x0000000000000000      0x4f3 board/ti/am335x/built-in.o
 .debug_loc     0x00000000000004f3      0x41e arch/arm/cpu/armv7/built-in.o
 .debug_loc     0x0000000000000911      0xd12 arch/arm/lib/built-in.o
 .debug_loc     0x0000000000001623     0x20b1 arch/arm/mach-omap2/built-in.o
 .debug_loc     0x00000000000036d4      0x74d board/ti/common/built-in.o
 .debug_loc     0x0000000000003e21    0x17596 cmd/built-in.o
 .debug_loc     0x000000000001b3b7    0x18885 common/built-in.o
 .debug_loc     0x0000000000033c3c     0x33bf disk/built-in.o
 .debug_loc     0x0000000000036ffb     0xd2e6 drivers/built-in.o
 .debug_loc     0x00000000000442e1     0x205c drivers/gpio/built-in.o
 .debug_loc     0x000000000004633d     0x285b drivers/i2c/built-in.o
 .debug_loc     0x0000000000048b98     0x1b3c drivers/mtd/built-in.o
 .debug_loc     0x000000000004a6d4     0xcc73 drivers/mtd/nand/built-in.o
 .debug_loc     0x0000000000057347     0x11a4 drivers/mtd/spi/built-in.o
 .debug_loc     0x00000000000584eb     0x230e drivers/net/built-in.o
 .debug_loc     0x000000000005a7f9     0x194a drivers/net/phy/built-in.o
 .debug_loc     0x000000000005c143      0xef9 drivers/serial/built-in.o
 .debug_loc     0x000000000005d03c     0x1018 drivers/spi/built-in.o
 .debug_loc     0x000000000005e054       0xa7 drivers/usb/common/built-in.o
 .debug_loc     0x000000000005e0fb     0x8537 drivers/usb/gadget/built-in.o
 .debug_loc     0x0000000000066632     0x1833 drivers/usb/host/built-in.o
 .debug_loc     0x0000000000067e65     0xae6b drivers/usb/musb-new/built-in.o
 .debug_loc     0x0000000000072cd0     0x157b env/built-in.o
 .debug_loc     0x000000000007424b     0xe555 fs/built-in.o
 .debug_loc     0x00000000000827a0    0x2ec7f lib/built-in.o
 .debug_loc     0x00000000000b141f     0x54f5 net/built-in.o
 .debug_loc     0x00000000000b6914      0x25e test/dm/built-in.o

.debug_ranges   0x0000000000000000    0x10f20
 .debug_ranges  0x0000000000000000      0x108 board/ti/am335x/built-in.o
 .debug_ranges  0x0000000000000108      0x108 arch/arm/cpu/armv7/built-in.o
 .debug_ranges  0x0000000000000210      0x2d8 arch/arm/lib/built-in.o
 .debug_ranges  0x00000000000004e8      0x538 arch/arm/mach-omap2/built-in.o
 .debug_ranges  0x0000000000000a20       0xe0 board/ti/common/built-in.o
 .debug_ranges  0x0000000000000b00     0x2330 cmd/built-in.o
 .debug_ranges  0x0000000000002e30     0x24b8 common/built-in.o
 .debug_ranges  0x00000000000052e8      0x768 disk/built-in.o
 .debug_ranges  0x0000000000005a50     0x1798 drivers/built-in.o
 .debug_ranges  0x00000000000071e8      0x308 drivers/gpio/built-in.o
 .debug_ranges  0x00000000000074f0      0x568 drivers/i2c/built-in.o
 .debug_ranges  0x0000000000007a58      0x190 drivers/mtd/built-in.o
 .debug_ranges  0x0000000000007be8     0x1198 drivers/mtd/nand/built-in.o
 .debug_ranges  0x0000000000008d80      0x238 drivers/mtd/spi/built-in.o
 .debug_ranges  0x0000000000008fb8      0x4c0 drivers/net/built-in.o
 .debug_ranges  0x0000000000009478      0x428 drivers/net/phy/built-in.o
 .debug_ranges  0x00000000000098a0      0x200 drivers/serial/built-in.o
 .debug_ranges  0x0000000000009aa0      0x2b8 drivers/spi/built-in.o
 .debug_ranges  0x0000000000009d58       0x10 drivers/usb/common/built-in.o
 .debug_ranges  0x0000000000009d68      0xe70 drivers/usb/gadget/built-in.o
 .debug_ranges  0x000000000000abd8      0x240 drivers/usb/host/built-in.o
 .debug_ranges  0x000000000000ae18     0x1128 drivers/usb/musb-new/built-in.o
 .debug_ranges  0x000000000000bf40      0x238 env/built-in.o
 .debug_ranges  0x000000000000c178     0x13f8 fs/built-in.o
 .debug_ranges  0x000000000000d570     0x2e28 lib/built-in.o
 .debug_ranges  0x0000000000010398      0xb10 net/built-in.o
 .debug_ranges  0x0000000000010ea8       0x28 test/dm/built-in.o
 .debug_ranges  0x0000000000010ed0       0x40 arch/arm/lib/lib.a(lib1funcs.o)
 .debug_ranges  0x0000000000010f10       0x10 arch/arm/lib/lib.a(div0.o)
